Archive member included because of file (symbol)

c:/progra~2/codesourcery/source~1/bin/../lib/gcc/arm-none-eabi/4.5.2/../../../../arm-none-eabi/lib/thumb2\libstdc++.a(si_class_type_info.o)
                              build\Menu.o (vtable for __cxxabiv1::__si_class_type_info)
c:/progra~2/codesourcery/source~1/bin/../lib/gcc/arm-none-eabi/4.5.2/../../../../arm-none-eabi/lib/thumb2\libstdc++.a(pure.o)
                              build\InterfaceBoard.o (__cxa_pure_virtual)
c:/progra~2/codesourcery/source~1/bin/../lib/gcc/arm-none-eabi/4.5.2/../../../../arm-none-eabi/lib/thumb2\libstdc++.a(class_type_info.o)
                              c:/progra~2/codesourcery/source~1/bin/../lib/gcc/arm-none-eabi/4.5.2/../../../../arm-none-eabi/lib/thumb2\libstdc++.a(si_class_type_info.o) (__cxxabiv1::__class_type_info::__do_upcast(__cxxabiv1::__class_type_info const*, void**) const)
c:/progra~2/codesourcery/source~1/bin/../lib/gcc/arm-none-eabi/4.5.2/../../../../arm-none-eabi/lib/thumb2\libstdc++.a(tinfo.o)
                              c:/progra~2/codesourcery/source~1/bin/../lib/gcc/arm-none-eabi/4.5.2/../../../../arm-none-eabi/lib/thumb2\libstdc++.a(class_type_info.o) (std::type_info::~type_info())
c:/progra~2/codesourcery/source~1/bin/../lib/gcc/arm-none-eabi/4.5.2/../../../../arm-none-eabi/lib/thumb2\libstdc++.a(eh_terminate.o)
                              c:/progra~2/codesourcery/source~1/bin/../lib/gcc/arm-none-eabi/4.5.2/../../../../arm-none-eabi/lib/thumb2\libstdc++.a(pure.o) (std::terminate())
c:/progra~2/codesourcery/source~1/bin/../lib/gcc/arm-none-eabi/4.5.2/../../../../arm-none-eabi/lib/thumb2\libstdc++.a(eh_call.o)
                              c:/progra~2/codesourcery/source~1/bin/../lib/gcc/arm-none-eabi/4.5.2/../../../../arm-none-eabi/lib/thumb2\libstdc++.a(eh_terminate.o) (__cxa_call_unexpected)
c:/progra~2/codesourcery/source~1/bin/../lib/gcc/arm-none-eabi/4.5.2/../../../../arm-none-eabi/lib/thumb2\libstdc++.a(eh_term_handler.o)
                              c:/progra~2/codesourcery/source~1/bin/../lib/gcc/arm-none-eabi/4.5.2/../../../../arm-none-eabi/lib/thumb2\libstdc++.a(eh_terminate.o) (__cxxabiv1::__terminate_handler)
c:/progra~2/codesourcery/source~1/bin/../lib/gcc/arm-none-eabi/4.5.2/../../../../arm-none-eabi/lib/thumb2\libstdc++.a(eh_personality.o)
                              c:/progra~2/codesourcery/source~1/bin/../lib/gcc/arm-none-eabi/4.5.2/../../../../arm-none-eabi/lib/thumb2\libstdc++.a(eh_terminate.o) (__gxx_personality_v0)
c:/progra~2/codesourcery/source~1/bin/../lib/gcc/arm-none-eabi/4.5.2/../../../../arm-none-eabi/lib/thumb2\libstdc++.a(eh_throw.o)
                              c:/progra~2/codesourcery/source~1/bin/../lib/gcc/arm-none-eabi/4.5.2/../../../../arm-none-eabi/lib/thumb2\libstdc++.a(eh_call.o) (__cxa_throw)
c:/progra~2/codesourcery/source~1/bin/../lib/gcc/arm-none-eabi/4.5.2/../../../../arm-none-eabi/lib/thumb2\libstdc++.a(eh_unex_handler.o)
                              c:/progra~2/codesourcery/source~1/bin/../lib/gcc/arm-none-eabi/4.5.2/../../../../arm-none-eabi/lib/thumb2\libstdc++.a(eh_terminate.o) (__cxxabiv1::__unexpected_handler)
c:/progra~2/codesourcery/source~1/bin/../lib/gcc/arm-none-eabi/4.5.2/../../../../arm-none-eabi/lib/thumb2\libstdc++.a(eh_globals.o)
                              c:/progra~2/codesourcery/source~1/bin/../lib/gcc/arm-none-eabi/4.5.2/../../../../arm-none-eabi/lib/thumb2\libstdc++.a(eh_call.o) (__cxa_get_globals_fast)
c:/progra~2/codesourcery/source~1/bin/../lib/gcc/arm-none-eabi/4.5.2/../../../../arm-none-eabi/lib/thumb2\libstdc++.a(eh_catch.o)
                              c:/progra~2/codesourcery/source~1/bin/../lib/gcc/arm-none-eabi/4.5.2/../../../../arm-none-eabi/lib/thumb2\libstdc++.a(eh_terminate.o) (__cxa_begin_catch)
c:/progra~2/codesourcery/source~1/bin/../lib/gcc/arm-none-eabi/4.5.2/../../../../arm-none-eabi/lib/thumb2\libstdc++.a(vterminate.o)
                              c:/progra~2/codesourcery/source~1/bin/../lib/gcc/arm-none-eabi/4.5.2/../../../../arm-none-eabi/lib/thumb2\libstdc++.a(eh_term_handler.o) (__gnu_cxx::__verbose_terminate_handler())
c:/progra~2/codesourcery/source~1/bin/../lib/gcc/arm-none-eabi/4.5.2/../../../../arm-none-eabi/lib/thumb2\libstdc++.a(eh_exception.o)
                              c:/progra~2/codesourcery/source~1/bin/../lib/gcc/arm-none-eabi/4.5.2/../../../../arm-none-eabi/lib/thumb2\libstdc++.a(eh_call.o) (std::bad_exception::~bad_exception())
c:/progra~2/codesourcery/source~1/bin/../lib/gcc/arm-none-eabi/4.5.2/../../../../arm-none-eabi/lib/thumb2\libstdc++.a(eh_type.o)
                              c:/progra~2/codesourcery/source~1/bin/../lib/gcc/arm-none-eabi/4.5.2/../../../../arm-none-eabi/lib/thumb2\libstdc++.a(vterminate.o) (__cxa_current_exception_type)
c:/progra~2/codesourcery/source~1/bin/../lib/gcc/arm-none-eabi/4.5.2/../../../../arm-none-eabi/lib/thumb2\libstdc++.a(eh_arm.o)
                              c:/progra~2/codesourcery/source~1/bin/../lib/gcc/arm-none-eabi/4.5.2/../../../../arm-none-eabi/lib/thumb2\libstdc++.a(eh_terminate.o) (__cxa_end_cleanup)
c:/progra~2/codesourcery/source~1/bin/../lib/gcc/arm-none-eabi/4.5.2/../../../../arm-none-eabi/lib/thumb2\libstdc++.a(eh_alloc.o)
                              c:/progra~2/codesourcery/source~1/bin/../lib/gcc/arm-none-eabi/4.5.2/../../../../arm-none-eabi/lib/thumb2\libstdc++.a(eh_call.o) (__cxa_allocate_exception)
c:/progra~2/codesourcery/source~1/bin/../lib/gcc/arm-none-eabi/4.5.2/../../../../arm-none-eabi/lib/thumb2\libstdc++.a(cp-demangle.o)
                              c:/progra~2/codesourcery/source~1/bin/../lib/gcc/arm-none-eabi/4.5.2/../../../../arm-none-eabi/lib/thumb2\libstdc++.a(vterminate.o) (__cxa_demangle)
c:/progra~2/codesourcery/source~1/bin/../lib/gcc/arm-none-eabi/4.5.2/thumb2\libgcc.a(_arm_addsubsf3.o)
                              src\shared\PID.o (__aeabi_fsub)
c:/progra~2/codesourcery/source~1/bin/../lib/gcc/arm-none-eabi/4.5.2/thumb2\libgcc.a(_arm_muldivsf3.o)
                              src\shared\PID.o (__aeabi_fmul)
c:/progra~2/codesourcery/source~1/bin/../lib/gcc/arm-none-eabi/4.5.2/thumb2\libgcc.a(_arm_fixsfsi.o)
                              src\shared\PID.o (__aeabi_f2iz)
c:/progra~2/codesourcery/source~1/bin/../lib/gcc/arm-none-eabi/4.5.2/thumb2\libgcc.a(_aeabi_uldivmod.o)
                              build\lib\source\lpc17xx_timer.o (__aeabi_uldivmod)
c:/progra~2/codesourcery/source~1/bin/../lib/gcc/arm-none-eabi/4.5.2/thumb2\libgcc.a(bpabi.o)
                              c:/progra~2/codesourcery/source~1/bin/../lib/gcc/arm-none-eabi/4.5.2/thumb2\libgcc.a(_aeabi_uldivmod.o) (__gnu_uldivmod_helper)
c:/progra~2/codesourcery/source~1/bin/../lib/gcc/arm-none-eabi/4.5.2/thumb2\libgcc.a(unwind-arm.o)
                              build\Command.o (__aeabi_unwind_cpp_pr0)
c:/progra~2/codesourcery/source~1/bin/../lib/gcc/arm-none-eabi/4.5.2/thumb2\libgcc.a(libunwind.o)
                              c:/progra~2/codesourcery/source~1/bin/../lib/gcc/arm-none-eabi/4.5.2/thumb2\libgcc.a(unwind-arm.o) (restore_core_regs)
c:/progra~2/codesourcery/source~1/bin/../lib/gcc/arm-none-eabi/4.5.2/thumb2\libgcc.a(pr-support.o)
                              c:/progra~2/codesourcery/source~1/bin/../lib/gcc/arm-none-eabi/4.5.2/thumb2\libgcc.a(unwind-arm.o) (__gnu_unwind_execute)
c:/progra~2/codesourcery/source~1/bin/../lib/gcc/arm-none-eabi/4.5.2/thumb2\libgcc.a(_dvmd_tls.o)
                              c:/progra~2/codesourcery/source~1/bin/../lib/gcc/arm-none-eabi/4.5.2/thumb2\libgcc.a(_aeabi_uldivmod.o) (__aeabi_ldiv0)
c:/progra~2/codesourcery/source~1/bin/../lib/gcc/arm-none-eabi/4.5.2/thumb2\libgcc.a(_divdi3.o)
                              c:/progra~2/codesourcery/source~1/bin/../lib/gcc/arm-none-eabi/4.5.2/thumb2\libgcc.a(bpabi.o) (__divdi3)
c:/progra~2/codesourcery/source~1/bin/../lib/gcc/arm-none-eabi/4.5.2/thumb2\libgcc.a(_udivdi3.o)
                              c:/progra~2/codesourcery/source~1/bin/../lib/gcc/arm-none-eabi/4.5.2/thumb2\libgcc.a(bpabi.o) (__udivdi3)
c:/progra~2/codesourcery/source~1/bin/../lib/gcc/arm-none-eabi/4.5.2/thumb2\libgcc.a(_udivsi3.o)
                              c:/progra~2/codesourcery/source~1/bin/../lib/gcc/arm-none-eabi/4.5.2/thumb2\libgcc.a(_divdi3.o) (__aeabi_uidiv)
c:/progra~2/codesourcery/source~1/bin/../lib/gcc/arm-none-eabi/4.5.2/../../../../arm-none-eabi/lib/thumb2\libc.a(lib_a-abort.o)
                              build\system\syscalls.o (abort)
c:/progra~2/codesourcery/source~1/bin/../lib/gcc/arm-none-eabi/4.5.2/../../../../arm-none-eabi/lib/thumb2\libc.a(lib_a-fputc.o)
                              c:/progra~2/codesourcery/source~1/bin/../lib/gcc/arm-none-eabi/4.5.2/../../../../arm-none-eabi/lib/thumb2\libstdc++.a(vterminate.o) (fputc)
c:/progra~2/codesourcery/source~1/bin/../lib/gcc/arm-none-eabi/4.5.2/../../../../arm-none-eabi/lib/thumb2\libc.a(lib_a-fputs.o)
                              c:/progra~2/codesourcery/source~1/bin/../lib/gcc/arm-none-eabi/4.5.2/../../../../arm-none-eabi/lib/thumb2\libstdc++.a(vterminate.o) (fputs)
c:/progra~2/codesourcery/source~1/bin/../lib/gcc/arm-none-eabi/4.5.2/../../../../arm-none-eabi/lib/thumb2\libc.a(lib_a-fvwrite.o)
                              c:/progra~2/codesourcery/source~1/bin/../lib/gcc/arm-none-eabi/4.5.2/../../../../arm-none-eabi/lib/thumb2\libc.a(lib_a-fputs.o) (__sfvwrite_r)
c:/progra~2/codesourcery/source~1/bin/../lib/gcc/arm-none-eabi/4.5.2/../../../../arm-none-eabi/lib/thumb2\libc.a(lib_a-fwrite.o)
                              c:/progra~2/codesourcery/source~1/bin/../lib/gcc/arm-none-eabi/4.5.2/../../../../arm-none-eabi/lib/thumb2\libstdc++.a(vterminate.o) (fwrite)
c:/progra~2/codesourcery/source~1/bin/../lib/gcc/arm-none-eabi/4.5.2/../../../../arm-none-eabi/lib/thumb2\libc.a(lib_a-impure.o)
                              c:/progra~2/codesourcery/source~1/bin/../lib/gcc/arm-none-eabi/4.5.2/../../../../arm-none-eabi/lib/thumb2\libstdc++.a(vterminate.o) (_impure_ptr)
c:/progra~2/codesourcery/source~1/bin/../lib/gcc/arm-none-eabi/4.5.2/../../../../arm-none-eabi/lib/thumb2\libc.a(lib_a-malloc.o)
                              build\system\mini_cpp.o (malloc)
c:/progra~2/codesourcery/source~1/bin/../lib/gcc/arm-none-eabi/4.5.2/../../../../arm-none-eabi/lib/thumb2\libc.a(lib_a-mallocr.o)
                              c:/progra~2/codesourcery/source~1/bin/../lib/gcc/arm-none-eabi/4.5.2/../../../../arm-none-eabi/lib/thumb2\libc.a(lib_a-fvwrite.o) (_malloc_r)
c:/progra~2/codesourcery/source~1/bin/../lib/gcc/arm-none-eabi/4.5.2/../../../../arm-none-eabi/lib/thumb2\libc.a(lib_a-memchr.o)
                              c:/progra~2/codesourcery/source~1/bin/../lib/gcc/arm-none-eabi/4.5.2/../../../../arm-none-eabi/lib/thumb2\libc.a(lib_a-fvwrite.o) (memchr)
c:/progra~2/codesourcery/source~1/bin/../lib/gcc/arm-none-eabi/4.5.2/../../../../arm-none-eabi/lib/thumb2\libc.a(lib_a-memcmp.o)
                              c:/progra~2/codesourcery/source~1/bin/../lib/gcc/arm-none-eabi/4.5.2/../../../../arm-none-eabi/lib/thumb2\libstdc++.a(cp-demangle.o) (memcmp)
c:/progra~2/codesourcery/source~1/bin/../lib/gcc/arm-none-eabi/4.5.2/../../../../arm-none-eabi/lib/thumb2\libc.a(lib_a-memcpy.o)
                              build\lib_sd\fat.o (memcpy)
c:/progra~2/codesourcery/source~1/bin/../lib/gcc/arm-none-eabi/4.5.2/../../../../arm-none-eabi/lib/thumb2\libc.a(lib_a-memmove.o)
                              c:/progra~2/codesourcery/source~1/bin/../lib/gcc/arm-none-eabi/4.5.2/../../../../arm-none-eabi/lib/thumb2\libc.a(lib_a-fvwrite.o) (memmove)
c:/progra~2/codesourcery/source~1/bin/../lib/gcc/arm-none-eabi/4.5.2/../../../../arm-none-eabi/lib/thumb2\libc.a(lib_a-memset.o)
                              build\lib_sd\fat.o (memset)
c:/progra~2/codesourcery/source~1/bin/../lib/gcc/arm-none-eabi/4.5.2/../../../../arm-none-eabi/lib/thumb2\libc.a(lib_a-mlock.o)
                              c:/progra~2/codesourcery/source~1/bin/../lib/gcc/arm-none-eabi/4.5.2/../../../../arm-none-eabi/lib/thumb2\libc.a(lib_a-mallocr.o) (__malloc_lock)
c:/progra~2/codesourcery/source~1/bin/../lib/gcc/arm-none-eabi/4.5.2/../../../../arm-none-eabi/lib/thumb2\libc.a(lib_a-putc.o)
                              c:/progra~2/codesourcery/source~1/bin/../lib/gcc/arm-none-eabi/4.5.2/../../../../arm-none-eabi/lib/thumb2\libc.a(lib_a-fputc.o) (_putc_r)
c:/progra~2/codesourcery/source~1/bin/../lib/gcc/arm-none-eabi/4.5.2/../../../../arm-none-eabi/lib/thumb2\libc.a(lib_a-rand.o)
                              build\Menu.o (rand)
c:/progra~2/codesourcery/source~1/bin/../lib/gcc/arm-none-eabi/4.5.2/../../../../arm-none-eabi/lib/thumb2\libc.a(lib_a-realloc.o)
                              c:/progra~2/codesourcery/source~1/bin/../lib/gcc/arm-none-eabi/4.5.2/../../../../arm-none-eabi/lib/thumb2\libstdc++.a(cp-demangle.o) (realloc)
c:/progra~2/codesourcery/source~1/bin/../lib/gcc/arm-none-eabi/4.5.2/../../../../arm-none-eabi/lib/thumb2\libc.a(lib_a-reallocr.o)
                              c:/progra~2/codesourcery/source~1/bin/../lib/gcc/arm-none-eabi/4.5.2/../../../../arm-none-eabi/lib/thumb2\libc.a(lib_a-fvwrite.o) (_realloc_r)
c:/progra~2/codesourcery/source~1/bin/../lib/gcc/arm-none-eabi/4.5.2/../../../../arm-none-eabi/lib/thumb2\libc.a(lib_a-reent.o)
                              build\system\syscalls.o (errno)
c:/progra~2/codesourcery/source~1/bin/../lib/gcc/arm-none-eabi/4.5.2/../../../../arm-none-eabi/lib/thumb2\libc.a(lib_a-sbrkr.o)
                              c:/progra~2/codesourcery/source~1/bin/../lib/gcc/arm-none-eabi/4.5.2/../../../../arm-none-eabi/lib/thumb2\libc.a(lib_a-mallocr.o) (_sbrk_r)
c:/progra~2/codesourcery/source~1/bin/../lib/gcc/arm-none-eabi/4.5.2/../../../../arm-none-eabi/lib/thumb2\libc.a(lib_a-signal.o)
                              c:/progra~2/codesourcery/source~1/bin/../lib/gcc/arm-none-eabi/4.5.2/../../../../arm-none-eabi/lib/thumb2\libc.a(lib_a-abort.o) (raise)
c:/progra~2/codesourcery/source~1/bin/../lib/gcc/arm-none-eabi/4.5.2/../../../../arm-none-eabi/lib/thumb2\libc.a(lib_a-signalr.o)
                              c:/progra~2/codesourcery/source~1/bin/../lib/gcc/arm-none-eabi/4.5.2/../../../../arm-none-eabi/lib/thumb2\libc.a(lib_a-signal.o) (_kill_r)
c:/progra~2/codesourcery/source~1/bin/../lib/gcc/arm-none-eabi/4.5.2/../../../../arm-none-eabi/lib/thumb2\libc.a(lib_a-sprintf.o)
                              c:/progra~2/codesourcery/source~1/bin/../lib/gcc/arm-none-eabi/4.5.2/../../../../arm-none-eabi/lib/thumb2\libstdc++.a(cp-demangle.o) (sprintf)
c:/progra~2/codesourcery/source~1/bin/../lib/gcc/arm-none-eabi/4.5.2/../../../../arm-none-eabi/lib/thumb2\libc.a(lib_a-strchr.o)
                              build\lib_sd\fat.o (strchr)
c:/progra~2/codesourcery/source~1/bin/../lib/gcc/arm-none-eabi/4.5.2/../../../../arm-none-eabi/lib/thumb2\libc.a(lib_a-strcmp.o)
                              build\lib_sd\fat.o (strcmp)
c:/progra~2/codesourcery/source~1/bin/../lib/gcc/arm-none-eabi/4.5.2/../../../../arm-none-eabi/lib/thumb2\libc.a(lib_a-strcpy.o)
                              c:/progra~2/codesourcery/source~1/bin/../lib/gcc/arm-none-eabi/4.5.2/../../../../arm-none-eabi/lib/thumb2\libstdc++.a(cp-demangle.o) (strcpy)
c:/progra~2/codesourcery/source~1/bin/../lib/gcc/arm-none-eabi/4.5.2/../../../../arm-none-eabi/lib/thumb2\libc.a(lib_a-strlen.o)
                              build\lib_sd\fat.o (strlen)
c:/progra~2/codesourcery/source~1/bin/../lib/gcc/arm-none-eabi/4.5.2/../../../../arm-none-eabi/lib/thumb2\libc.a(lib_a-strncmp.o)
                              build\lib_sd\fat.o (strncmp)
c:/progra~2/codesourcery/source~1/bin/../lib/gcc/arm-none-eabi/4.5.2/../../../../arm-none-eabi/lib/thumb2\libc.a(lib_a-strncpy.o)
                              build\lib_sd\fat.o (strncpy)
c:/progra~2/codesourcery/source~1/bin/../lib/gcc/arm-none-eabi/4.5.2/../../../../arm-none-eabi/lib/thumb2\libc.a(lib_a-strrchr.o)
                              build\lib_sd\fat.o (strrchr)
c:/progra~2/codesourcery/source~1/bin/../lib/gcc/arm-none-eabi/4.5.2/../../../../arm-none-eabi/lib/thumb2\libc.a(lib_a-svfprintf.o)
                              c:/progra~2/codesourcery/source~1/bin/../lib/gcc/arm-none-eabi/4.5.2/../../../../arm-none-eabi/lib/thumb2\libc.a(lib_a-sprintf.o) (_svfprintf_r)
c:/progra~2/codesourcery/source~1/bin/../lib/gcc/arm-none-eabi/4.5.2/../../../../arm-none-eabi/lib/thumb2\libc.a(lib_a-syswrite.o)
                              c:/progra~2/codesourcery/source~1/bin/../lib/gcc/arm-none-eabi/4.5.2/../../../../arm-none-eabi/lib/thumb2\libstdc++.a(pure.o) (write)
c:/progra~2/codesourcery/source~1/bin/../lib/gcc/arm-none-eabi/4.5.2/../../../../arm-none-eabi/lib/thumb2\libc.a(lib_a-wbuf.o)
                              c:/progra~2/codesourcery/source~1/bin/../lib/gcc/arm-none-eabi/4.5.2/../../../../arm-none-eabi/lib/thumb2\libc.a(lib_a-putc.o) (__swbuf_r)
c:/progra~2/codesourcery/source~1/bin/../lib/gcc/arm-none-eabi/4.5.2/../../../../arm-none-eabi/lib/thumb2\libc.a(lib_a-writer.o)
                              c:/progra~2/codesourcery/source~1/bin/../lib/gcc/arm-none-eabi/4.5.2/../../../../arm-none-eabi/lib/thumb2\libc.a(lib_a-syswrite.o) (_write_r)
c:/progra~2/codesourcery/source~1/bin/../lib/gcc/arm-none-eabi/4.5.2/../../../../arm-none-eabi/lib/thumb2\libc.a(lib_a-wsetup.o)
                              c:/progra~2/codesourcery/source~1/bin/../lib/gcc/arm-none-eabi/4.5.2/../../../../arm-none-eabi/lib/thumb2\libc.a(lib_a-fvwrite.o) (__swsetup_r)
c:/progra~2/codesourcery/source~1/bin/../lib/gcc/arm-none-eabi/4.5.2/../../../../arm-none-eabi/lib/thumb2\libc.a(lib_a-dtoa.o)
                              c:/progra~2/codesourcery/source~1/bin/../lib/gcc/arm-none-eabi/4.5.2/../../../../arm-none-eabi/lib/thumb2\libc.a(lib_a-svfprintf.o) (_dtoa_r)
c:/progra~2/codesourcery/source~1/bin/../lib/gcc/arm-none-eabi/4.5.2/../../../../arm-none-eabi/lib/thumb2\libc.a(lib_a-fflush.o)
                              c:/progra~2/codesourcery/source~1/bin/../lib/gcc/arm-none-eabi/4.5.2/../../../../arm-none-eabi/lib/thumb2\libc.a(lib_a-fvwrite.o) (_fflush_r)
c:/progra~2/codesourcery/source~1/bin/../lib/gcc/arm-none-eabi/4.5.2/../../../../arm-none-eabi/lib/thumb2\libc.a(lib_a-findfp.o)
                              c:/progra~2/codesourcery/source~1/bin/../lib/gcc/arm-none-eabi/4.5.2/../../../../arm-none-eabi/lib/thumb2\libc.a(lib_a-fputc.o) (__sinit)
c:/progra~2/codesourcery/source~1/bin/../lib/gcc/arm-none-eabi/4.5.2/../../../../arm-none-eabi/lib/thumb2\libc.a(lib_a-freer.o)
                              c:/progra~2/codesourcery/source~1/bin/../lib/gcc/arm-none-eabi/4.5.2/../../../../arm-none-eabi/lib/thumb2\libc.a(lib_a-fvwrite.o) (_free_r)
c:/progra~2/codesourcery/source~1/bin/../lib/gcc/arm-none-eabi/4.5.2/../../../../arm-none-eabi/lib/thumb2\libc.a(lib_a-fwalk.o)
                              c:/progra~2/codesourcery/source~1/bin/../lib/gcc/arm-none-eabi/4.5.2/../../../../arm-none-eabi/lib/thumb2\libc.a(lib_a-findfp.o) (_fwalk)
c:/progra~2/codesourcery/source~1/bin/../lib/gcc/arm-none-eabi/4.5.2/../../../../arm-none-eabi/lib/thumb2\libc.a(lib_a-locale.o)
                              c:/progra~2/codesourcery/source~1/bin/../lib/gcc/arm-none-eabi/4.5.2/../../../../arm-none-eabi/lib/thumb2\libc.a(lib_a-svfprintf.o) (_localeconv_r)
c:/progra~2/codesourcery/source~1/bin/../lib/gcc/arm-none-eabi/4.5.2/../../../../arm-none-eabi/lib/thumb2\libc.a(lib_a-makebuf.o)
                              c:/progra~2/codesourcery/source~1/bin/../lib/gcc/arm-none-eabi/4.5.2/../../../../arm-none-eabi/lib/thumb2\libc.a(lib_a-wsetup.o) (__smakebuf_r)
c:/progra~2/codesourcery/source~1/bin/../lib/gcc/arm-none-eabi/4.5.2/../../../../arm-none-eabi/lib/thumb2\libc.a(lib_a-mprec.o)
                              c:/progra~2/codesourcery/source~1/bin/../lib/gcc/arm-none-eabi/4.5.2/../../../../arm-none-eabi/lib/thumb2\libc.a(lib_a-dtoa.o) (_Balloc)
c:/progra~2/codesourcery/source~1/bin/../lib/gcc/arm-none-eabi/4.5.2/../../../../arm-none-eabi/lib/thumb2\libc.a(lib_a-s_fpclassify.o)
                              c:/progra~2/codesourcery/source~1/bin/../lib/gcc/arm-none-eabi/4.5.2/../../../../arm-none-eabi/lib/thumb2\libc.a(lib_a-svfprintf.o) (__fpclassifyd)
c:/progra~2/codesourcery/source~1/bin/../lib/gcc/arm-none-eabi/4.5.2/../../../../arm-none-eabi/lib/thumb2\libc.a(lib_a-stdio.o)
                              c:/progra~2/codesourcery/source~1/bin/../lib/gcc/arm-none-eabi/4.5.2/../../../../arm-none-eabi/lib/thumb2\libc.a(lib_a-findfp.o) (__sread)
c:/progra~2/codesourcery/source~1/bin/../lib/gcc/arm-none-eabi/4.5.2/../../../../arm-none-eabi/lib/thumb2\libc.a(lib_a-svfiprintf.o)
                              c:/progra~2/codesourcery/source~1/bin/../lib/gcc/arm-none-eabi/4.5.2/../../../../arm-none-eabi/lib/thumb2\libc.a(lib_a-svfprintf.o) (__ssprint_r)
c:/progra~2/codesourcery/source~1/bin/../lib/gcc/arm-none-eabi/4.5.2/../../../../arm-none-eabi/lib/thumb2\libc.a(lib_a-callocr.o)
                              c:/progra~2/codesourcery/source~1/bin/../lib/gcc/arm-none-eabi/4.5.2/../../../../arm-none-eabi/lib/thumb2\libc.a(lib_a-mprec.o) (_calloc_r)
c:/progra~2/codesourcery/source~1/bin/../lib/gcc/arm-none-eabi/4.5.2/../../../../arm-none-eabi/lib/thumb2\libc.a(lib_a-closer.o)
                              c:/progra~2/codesourcery/source~1/bin/../lib/gcc/arm-none-eabi/4.5.2/../../../../arm-none-eabi/lib/thumb2\libc.a(lib_a-stdio.o) (_close_r)
c:/progra~2/codesourcery/source~1/bin/../lib/gcc/arm-none-eabi/4.5.2/../../../../arm-none-eabi/lib/thumb2\libc.a(lib_a-fclose.o)
                              c:/progra~2/codesourcery/source~1/bin/../lib/gcc/arm-none-eabi/4.5.2/../../../../arm-none-eabi/lib/thumb2\libc.a(lib_a-findfp.o) (fclose)
c:/progra~2/codesourcery/source~1/bin/../lib/gcc/arm-none-eabi/4.5.2/../../../../arm-none-eabi/lib/thumb2\libc.a(lib_a-fstatr.o)
                              c:/progra~2/codesourcery/source~1/bin/../lib/gcc/arm-none-eabi/4.5.2/../../../../arm-none-eabi/lib/thumb2\libc.a(lib_a-makebuf.o) (_fstat_r)
c:/progra~2/codesourcery/source~1/bin/../lib/gcc/arm-none-eabi/4.5.2/../../../../arm-none-eabi/lib/thumb2\libc.a(lib_a-isattyr.o)
                              c:/progra~2/codesourcery/source~1/bin/../lib/gcc/arm-none-eabi/4.5.2/../../../../arm-none-eabi/lib/thumb2\libc.a(lib_a-makebuf.o) (_isatty_r)
c:/progra~2/codesourcery/source~1/bin/../lib/gcc/arm-none-eabi/4.5.2/../../../../arm-none-eabi/lib/thumb2\libc.a(lib_a-lseekr.o)
                              c:/progra~2/codesourcery/source~1/bin/../lib/gcc/arm-none-eabi/4.5.2/../../../../arm-none-eabi/lib/thumb2\libc.a(lib_a-stdio.o) (_lseek_r)
c:/progra~2/codesourcery/source~1/bin/../lib/gcc/arm-none-eabi/4.5.2/../../../../arm-none-eabi/lib/thumb2\libc.a(lib_a-readr.o)
                              c:/progra~2/codesourcery/source~1/bin/../lib/gcc/arm-none-eabi/4.5.2/../../../../arm-none-eabi/lib/thumb2\libc.a(lib_a-stdio.o) (_read_r)
c:/progra~2/codesourcery/source~1/bin/../lib/gcc/arm-none-eabi/4.5.2/thumb2\libgcc.a(_arm_addsubdf3.o)
                              c:/progra~2/codesourcery/source~1/bin/../lib/gcc/arm-none-eabi/4.5.2/../../../../arm-none-eabi/lib/thumb2\libc.a(lib_a-dtoa.o) (__aeabi_dsub)
c:/progra~2/codesourcery/source~1/bin/../lib/gcc/arm-none-eabi/4.5.2/thumb2\libgcc.a(_arm_muldivdf3.o)
                              c:/progra~2/codesourcery/source~1/bin/../lib/gcc/arm-none-eabi/4.5.2/../../../../arm-none-eabi/lib/thumb2\libc.a(lib_a-dtoa.o) (__aeabi_dmul)
c:/progra~2/codesourcery/source~1/bin/../lib/gcc/arm-none-eabi/4.5.2/thumb2\libgcc.a(_arm_cmpdf2.o)
                              c:/progra~2/codesourcery/source~1/bin/../lib/gcc/arm-none-eabi/4.5.2/../../../../arm-none-eabi/lib/thumb2\libc.a(lib_a-svfprintf.o) (__aeabi_dcmpeq)
c:/progra~2/codesourcery/source~1/bin/../lib/gcc/arm-none-eabi/4.5.2/thumb2\libgcc.a(_arm_fixdfsi.o)
                              c:/progra~2/codesourcery/source~1/bin/../lib/gcc/arm-none-eabi/4.5.2/../../../../arm-none-eabi/lib/thumb2\libc.a(lib_a-dtoa.o) (__aeabi_d2iz)

Allocating common symbols
Common symbol       size              file

errno               0x4               c:/progra~2/codesourcery/source~1/bin/../lib/gcc/arm-none-eabi/4.5.2/../../../../arm-none-eabi/lib/thumb2\libc.a(lib_a-reent.o)

Discarded input sections

 .group         0x00000000       0x10 src\shared\Packet.o
 .group         0x00000000       0x10 src\shared\Packet.o
 .group         0x00000000       0x10 build\Command.o
 .group         0x00000000       0x10 build\Command.o
 .group         0x00000000       0x10 build\Command.o
 .group         0x00000000       0x10 build\Command.o
 .group         0x00000000       0x10 build\Command.o
 .group         0x00000000       0x10 build\Command.o
 .group         0x00000000       0x10 build\Command.o
 .group         0x00000000       0x10 build\Command.o
 .group         0x00000000       0x10 build\Command.o
 .group         0x00000000       0x10 build\Command.o
 .group         0x00000000       0x10 build\Command.o
 .group         0x00000000       0x10 build\Command.o
 .group         0x00000000       0x10 build\Command.o
 .group         0x00000000       0x10 build\DebugPacketProcessor.o
 .group         0x00000000       0x10 build\DebugPacketProcessor.o
 .group         0x00000000       0x10 build\EepromMap.o
 .group         0x00000000       0x10 build\Host.o
 .group         0x00000000       0x10 build\Host.o
 .group         0x00000000       0x10 build\Host.o
 .group         0x00000000       0x10 build\Host.o
 .group         0x00000000       0x10 build\Host.o
 .group         0x00000000       0x10 build\Host.o
 .group         0x00000000       0x10 build\Host.o
 .group         0x00000000       0x10 build\Host.o
 .group         0x00000000       0x10 build\Host.o
 .group         0x00000000       0x10 build\Host.o
 .group         0x00000000       0x10 build\Host.o
 .group         0x00000000       0x10 build\Host.o
 .group         0x00000000       0x10 build\Host.o
 .group         0x00000000       0x10 build\Host.o
 .group         0x00000000       0x10 build\Host.o
 .group         0x00000000       0x10 build\Host.o
 .group         0x00000000       0x10 build\Host.o
 .group         0x00000000       0x10 build\Host.o
 .group         0x00000000       0x10 build\Host.o
 .group         0x00000000       0x10 build\Host.o
 .group         0x00000000       0x10 build\Host.o
 .group         0x00000000       0x10 build\Host.o
 .group         0x00000000       0x10 build\Host.o
 .group         0x00000000       0x10 build\Host.o
 .group         0x00000000       0x10 build\Host.o
 .group         0x00000000       0x10 build\Host.o
 .group         0x00000000       0x10 build\Host.o
 .group         0x00000000       0x10 build\Host.o
 .group         0x00000000       0x10 build\Host.o
 .group         0x00000000       0x10 build\Host.o
 .text._ZN6Packet5errorEh
                0x00000000       0x24 build\Host.o
 .ARM.extab.text._ZN6Packet5errorEh
                0x00000000        0xc build\Host.o
 .ARM.exidx.text._ZN6Packet5errorEh
                0x00000000        0x8 build\Host.o
 .text._ZNK6Packet9getLengthEv
                0x00000000       0x1c build\Host.o
 .ARM.extab.text._ZNK6Packet9getLengthEv
                0x00000000        0x0 build\Host.o
 .ARM.exidx.text._ZNK6Packet9getLengthEv
                0x00000000        0x8 build\Host.o
 .text._ZNK6Packet8hasErrorEv
                0x00000000       0x28 build\Host.o
 .ARM.extab.text._ZNK6Packet8hasErrorEv
                0x00000000        0x0 build\Host.o
 .ARM.exidx.text._ZNK6Packet8hasErrorEv
                0x00000000        0x8 build\Host.o
 .text._ZNK5PointixEj
                0x00000000       0x20 build\Host.o
 .ARM.extab.text._ZNK5PointixEj
                0x00000000        0x0 build\Host.o
 .ARM.exidx.text._ZNK5PointixEj
                0x00000000        0x8 build\Host.o
 .text._ZN11Motherboard8getBoardEv
                0x00000000       0x14 build\Host.o
 .ARM.extab.text._ZN11Motherboard8getBoardEv
                0x00000000        0x0 build\Host.o
 .ARM.exidx.text._ZN11Motherboard8getBoardEv
                0x00000000        0x8 build\Host.o
 .group         0x00000000       0x10 build\InterfaceBoard.o
 .group         0x00000000       0x10 build\InterfaceBoard.o
 .group         0x00000000       0x10 build\InterfaceBoard.o
 .group         0x00000000       0x10 build\InterfaceBoard.o
 .group         0x00000000       0x10 build\InterfaceBoard.o
 .group         0x00000000       0x10 build\InterfaceBoard.o
 .group         0x00000000       0x10 build\InterfaceBoard.o
 .group         0x00000000       0x10 build\InterfaceBoard.o
 .group         0x00000000        0x8 build\InterfaceBoard.o
 .group         0x00000000        0x8 build\InterfaceBoard.o
 .group         0x00000000        0x8 build\InterfaceBoard.o
 .group         0x00000000       0x10 build\LPCPort.o
 .group         0x00000000       0x10 build\LiquidCrystal.o
 .group         0x00000000       0x10 build\LiquidCrystal.o
 .group         0x00000000       0x10 build\LiquidCrystal.o
 .group         0x00000000       0x10 build\LiquidCrystal.o
 .group         0x00000000       0x10 build\LiquidCrystal.o
 .group         0x00000000       0x10 build\LiquidCrystal.o
 .group         0x00000000       0x10 build\LiquidCrystal.o
 .group         0x00000000       0x10 build\LiquidCrystal.o
 .group         0x00000000       0x10 build\LiquidCrystal.o
 .group         0x00000000       0x10 build\LiquidCrystal.o
 .group         0x00000000        0x8 build\LiquidCrystal.o
 .group         0x00000000        0x8 build\LiquidCrystal.o
 .group         0x00000000        0x8 build\LiquidCrystal.o
 .text._ZN4Port15setPinDirectionEhb
                0x00000000       0x2c build\LiquidCrystal.o
 .ARM.extab.text._ZN4Port15setPinDirectionEhb
                0x00000000        0xc build\LiquidCrystal.o
 .ARM.exidx.text._ZN4Port15setPinDirectionEhb
                0x00000000        0x8 build\LiquidCrystal.o
 .text._ZN4Port6setPinEhb
                0x00000000       0x4c build\LiquidCrystal.o
 .ARM.extab.text._ZN4Port6setPinEhb
                0x00000000        0xc build\LiquidCrystal.o
 .ARM.exidx.text._ZN4Port6setPinEhb
                0x00000000        0x8 build\LiquidCrystal.o
 .text._ZN3Pin12setDirectionEb
                0x00000000       0x30 build\LiquidCrystal.o
 .ARM.extab.text._ZN3Pin12setDirectionEb
                0x00000000        0xc build\LiquidCrystal.o
 .ARM.exidx.text._ZN3Pin12setDirectionEb
                0x00000000        0x8 build\LiquidCrystal.o
 .text._ZN3Pin8setValueEb
                0x00000000       0x30 build\LiquidCrystal.o
 .ARM.extab.text._ZN3Pin8setValueEb
                0x00000000        0xc build\LiquidCrystal.o
 .ARM.exidx.text._ZN3Pin8setValueEb
                0x00000000        0x8 build\LiquidCrystal.o
 .group         0x00000000       0x10 build\Main.o
 .text._ZN11Motherboard8getBoardEv
                0x00000000       0x14 build\Main.o
 .ARM.extab.text._ZN11Motherboard8getBoardEv
                0x00000000        0x0 build\Main.o
 .ARM.exidx.text._ZN11Motherboard8getBoardEv
                0x00000000        0x8 build\Main.o
 .group         0x00000000       0x10 build\Menu.o
 .group         0x00000000       0x10 build\Menu.o
 .group         0x00000000       0x10 build\Menu.o
 .group         0x00000000       0x10 build\Menu.o
 .group         0x00000000       0x10 build\Menu.o
 .group         0x00000000       0x10 build\Menu.o
 .group         0x00000000       0x10 build\Menu.o
 .group         0x00000000       0x10 build\Menu.o
 .group         0x00000000       0x10 build\Menu.o
 .group         0x00000000       0x10 build\Menu.o
 .group         0x00000000       0x10 build\Menu.o
 .group         0x00000000       0x10 build\Menu.o
 .group         0x00000000       0x10 build\Menu.o
 .group         0x00000000        0x8 build\Menu.o
 .group         0x00000000        0x8 build\Menu.o
 .group         0x00000000        0x8 build\Menu.o
 .text._ZN5PointixEj
                0x00000000       0x20 build\Menu.o
 .ARM.extab.text._ZN5PointixEj
                0x00000000        0x0 build\Menu.o
 .ARM.exidx.text._ZN5PointixEj
                0x00000000        0x8 build\Menu.o
 .text._ZNK6Packet9getLengthEv
                0x00000000       0x1c build\Menu.o
 .ARM.extab.text._ZNK6Packet9getLengthEv
                0x00000000        0x0 build\Menu.o
 .ARM.exidx.text._ZNK6Packet9getLengthEv
                0x00000000        0x8 build\Menu.o
 .text._ZNK6Packet12getErrorCodeEv
                0x00000000       0x1c build\Menu.o
 .ARM.extab.text._ZNK6Packet12getErrorCodeEv
                0x00000000        0x0 build\Menu.o
 .ARM.exidx.text._ZNK6Packet12getErrorCodeEv
                0x00000000        0x8 build\Menu.o
 .text._ZN6ScreenC2Ev
                0x00000000       0x20 build\Menu.o
 .ARM.extab.text._ZN6ScreenC2Ev
                0x00000000        0x0 build\Menu.o
 .ARM.exidx.text._ZN6ScreenC2Ev
                0x00000000        0x8 build\Menu.o
 .text._ZN11MonitorModeC2Ev
                0x00000000       0x34 build\Menu.o
 .ARM.extab.text._ZN11MonitorModeC2Ev
                0x00000000        0xc build\Menu.o
 .ARM.exidx.text._ZN11MonitorModeC2Ev
                0x00000000        0x8 build\Menu.o
 .rodata._ZTV6Screen
                0x00000000       0x18 build\Menu.o
 .rodata._ZTS6Screen
                0x00000000        0x8 build\Menu.o
 .rodata._ZTI6Screen
                0x00000000        0x8 build\Menu.o
 .group         0x00000000       0x10 build\Motherboard.o
 .group         0x00000000       0x10 build\Motherboard.o
 .group         0x00000000       0x10 build\Motherboard.o
 .group         0x00000000       0x10 build\Motherboard.o
 .group         0x00000000       0x10 build\Motherboard.o
 .group         0x00000000       0x10 build\Motherboard.o
 .group         0x00000000       0x10 build\Motherboard.o
 .group         0x00000000       0x10 build\Motherboard.o
 .group         0x00000000       0x10 build\Motherboard.o
 .group         0x00000000       0x10 build\Motherboard.o
 .group         0x00000000       0x10 build\Motherboard.o
 .group         0x00000000       0x10 build\Motherboard.o
 .text._ZN4PortC2Ev
                0x00000000       0x20 build\Motherboard.o
 .ARM.extab.text._ZN4PortC2Ev
                0x00000000        0x0 build\Motherboard.o
 .ARM.exidx.text._ZN4PortC2Ev
                0x00000000        0x8 build\Motherboard.o
 .text._ZN4Port15setPinDirectionEhb
                0x00000000       0x2c build\Motherboard.o
 .ARM.extab.text._ZN4Port15setPinDirectionEhb
                0x00000000        0xc build\Motherboard.o
 .ARM.exidx.text._ZN4Port15setPinDirectionEhb
                0x00000000        0x8 build\Motherboard.o
 .text._ZN4Port6setPinEhb
                0x00000000       0x4c build\Motherboard.o
 .ARM.extab.text._ZN4Port6setPinEhb
                0x00000000        0xc build\Motherboard.o
 .ARM.exidx.text._ZN4Port6setPinEhb
                0x00000000        0x8 build\Motherboard.o
 .text._ZN3PinC2Ev
                0x00000000       0x28 build\Motherboard.o
 .ARM.extab.text._ZN3PinC2Ev
                0x00000000        0x0 build\Motherboard.o
 .ARM.exidx.text._ZN3PinC2Ev
                0x00000000        0x8 build\Motherboard.o
 .text._ZN3PinC2ER4Porth
                0x00000000       0x38 build\Motherboard.o
 .ARM.extab.text._ZN3PinC2ER4Porth
                0x00000000        0x0 build\Motherboard.o
 .ARM.exidx.text._ZN3PinC2ER4Porth
                0x00000000        0x8 build\Motherboard.o
 .text._ZN3Pin12setDirectionEb
                0x00000000       0x30 build\Motherboard.o
 .ARM.extab.text._ZN3Pin12setDirectionEb
                0x00000000        0xc build\Motherboard.o
 .ARM.exidx.text._ZN3Pin12setDirectionEb
                0x00000000        0x8 build\Motherboard.o
 .text._ZN3Pin8setValueEb
                0x00000000       0x30 build\Motherboard.o
 .ARM.extab.text._ZN3Pin8setValueEb
                0x00000000        0xc build\Motherboard.o
 .ARM.exidx.text._ZN3Pin8setValueEb
                0x00000000        0x8 build\Motherboard.o
 .text._ZN4UART11getHostUARTEv
                0x00000000       0x14 build\Motherboard.o
 .ARM.extab.text._ZN4UART11getHostUARTEv
                0x00000000        0x0 build\Motherboard.o
 .ARM.exidx.text._ZN4UART11getHostUARTEv
                0x00000000        0x8 build\Motherboard.o
 .text._ZN11Motherboard8getBoardEv
                0x00000000       0x14 build\Motherboard.o
 .ARM.extab.text._ZN11Motherboard8getBoardEv
                0x00000000        0x0 build\Motherboard.o
 .ARM.exidx.text._ZN11Motherboard8getBoardEv
                0x00000000        0x8 build\Motherboard.o
 .group         0x00000000       0x10 build\Packet.o
 .group         0x00000000       0x10 build\Packet.o
 .text._ZN6Packet5errorEh
                0x00000000       0x24 build\Packet.o
 .ARM.extab.text._ZN6Packet5errorEh
                0x00000000        0x0 build\Packet.o
 .ARM.exidx.text._ZN6Packet5errorEh
                0x00000000        0x8 build\Packet.o
 .text._ZN6PacketC2Ev
                0x00000000       0x18 build\Packet.o
 .ARM.extab.text._ZN6PacketC2Ev
                0x00000000        0x0 build\Packet.o
 .ARM.exidx.text._ZN6PacketC2Ev
                0x00000000        0x8 build\Packet.o
 .group         0x00000000       0x10 build\SDCard.o
 .group         0x00000000       0x10 build\SDCard.o
 .text._ZNK6Packet9getLengthEv
                0x00000000       0x1c build\SDCard.o
 .ARM.extab.text._ZNK6Packet9getLengthEv
                0x00000000        0x0 build\SDCard.o
 .ARM.exidx.text._ZNK6Packet9getLengthEv
                0x00000000        0x8 build\SDCard.o
 .text._ZNK6Packet7getDataEv
                0x00000000       0x1c build\SDCard.o
 .ARM.extab.text._ZNK6Packet7getDataEv
                0x00000000        0x0 build\SDCard.o
 .ARM.exidx.text._ZNK6Packet7getDataEv
                0x00000000        0x8 build\SDCard.o
 .group         0x00000000       0x10 build\StepperInterface.o
 .group         0x00000000       0x10 build\StepperInterface.o
 .group         0x00000000       0x10 build\StepperInterface.o
 .group         0x00000000       0x10 build\StepperInterface.o
 .group         0x00000000       0x10 build\StepperInterface.o
 .group         0x00000000       0x10 build\StepperInterface.o
 .group         0x00000000       0x10 build\StepperInterface.o
 .group         0x00000000       0x10 build\StepperInterface.o
 .text._ZN4Port6isNullEv
                0x00000000       0x24 build\StepperInterface.o
 .ARM.extab.text._ZN4Port6isNullEv
                0x00000000        0x0 build\StepperInterface.o
 .ARM.exidx.text._ZN4Port6isNullEv
                0x00000000        0x8 build\StepperInterface.o
 .text._ZN4Port15setPinDirectionEhb
                0x00000000       0x2c build\StepperInterface.o
 .ARM.extab.text._ZN4Port15setPinDirectionEhb
                0x00000000        0xc build\StepperInterface.o
 .ARM.exidx.text._ZN4Port15setPinDirectionEhb
                0x00000000        0x8 build\StepperInterface.o
 .text._ZN4Port6setPinEhb
                0x00000000       0x4c build\StepperInterface.o
 .ARM.extab.text._ZN4Port6setPinEhb
                0x00000000        0xc build\StepperInterface.o
 .ARM.exidx.text._ZN4Port6setPinEhb
                0x00000000        0x8 build\StepperInterface.o
 .text._ZN3Pin6isNullEv
                0x00000000       0x1c build\StepperInterface.o
 .ARM.extab.text._ZN3Pin6isNullEv
                0x00000000        0x0 build\StepperInterface.o
 .ARM.exidx.text._ZN3Pin6isNullEv
                0x00000000        0x8 build\StepperInterface.o
 .text._ZN3Pin12setDirectionEb
                0x00000000       0x30 build\StepperInterface.o
 .ARM.extab.text._ZN3Pin12setDirectionEb
                0x00000000        0xc build\StepperInterface.o
 .ARM.exidx.text._ZN3Pin12setDirectionEb
                0x00000000        0x8 build\StepperInterface.o
 .text._ZN3Pin8setValueEb
                0x00000000       0x30 build\StepperInterface.o
 .ARM.extab.text._ZN3Pin8setValueEb
                0x00000000        0xc build\StepperInterface.o
 .ARM.exidx.text._ZN3Pin8setValueEb
                0x00000000        0x8 build\StepperInterface.o
 .group         0x00000000       0x10 build\Steppers.o
 .group         0x00000000       0x10 build\Steppers.o
 .group         0x00000000       0x10 build\Steppers.o
 .group         0x00000000       0x10 build\Steppers.o
 .group         0x00000000       0x10 build\Steppers.o
 .group         0x00000000       0x10 build\Steppers.o
 .group         0x00000000       0x10 build\Steppers.o
 .group         0x00000000       0x10 build\Steppers.o
 .group         0x00000000       0x10 build\Steppers.o
 .group         0x00000000       0x10 build\Steppers.o
 .group         0x00000000       0x10 build\Steppers.o
 .group         0x00000000       0x10 build\Steppers.o
 .text._ZN5PointC2Elllll
                0x00000000       0x3c build\Steppers.o
 .ARM.extab.text._ZN5PointC2Elllll
                0x00000000        0x0 build\Steppers.o
 .ARM.exidx.text._ZN5PointC2Elllll
                0x00000000        0x8 build\Steppers.o
 .text._ZNK5PointixEj
                0x00000000       0x20 build\Steppers.o
 .ARM.extab.text._ZNK5PointixEj
                0x00000000        0x0 build\Steppers.o
 .ARM.exidx.text._ZNK5PointixEj
                0x00000000        0x8 build\Steppers.o
 .text._ZN11Motherboard19getStepperInterfaceEi
                0x00000000       0x28 build\Steppers.o
 .ARM.extab.text._ZN11Motherboard19getStepperInterfaceEi
                0x00000000        0x0 build\Steppers.o
 .ARM.exidx.text._ZN11Motherboard19getStepperInterfaceEi
                0x00000000        0x8 build\Steppers.o
 .group         0x00000000       0x10 build\Timeout.o
 .text._ZN11Motherboard8getBoardEv
                0x00000000       0x14 build\Timeout.o
 .ARM.extab.text._ZN11Motherboard8getBoardEv
                0x00000000        0x0 build\Timeout.o
 .ARM.exidx.text._ZN11Motherboard8getBoardEv
                0x00000000        0x8 build\Timeout.o
 .group         0x00000000       0x10 build\Tool.o
 .group         0x00000000       0x10 build\Tool.o
 .group         0x00000000       0x10 build\Tool.o
 .group         0x00000000       0x10 build\Tool.o
 .group         0x00000000       0x10 build\Tool.o
 .group         0x00000000       0x10 build\Tool.o
 .group         0x00000000       0x10 build\Tool.o
 .text._ZN6Packet5errorEh
                0x00000000       0x24 build\Tool.o
 .ARM.extab.text._ZN6Packet5errorEh
                0x00000000        0xc build\Tool.o
 .ARM.exidx.text._ZN6Packet5errorEh
                0x00000000        0x8 build\Tool.o
 .text._ZNK6Packet8hasErrorEv
                0x00000000       0x28 build\Tool.o
 .ARM.extab.text._ZNK6Packet8hasErrorEv
                0x00000000        0x0 build\Tool.o
 .ARM.exidx.text._ZNK6Packet8hasErrorEv
                0x00000000        0x8 build\Tool.o
 .text._ZNK6Packet12getErrorCodeEv
                0x00000000       0x1c build\Tool.o
 .ARM.extab.text._ZNK6Packet12getErrorCodeEv
                0x00000000        0x0 build\Tool.o
 .ARM.exidx.text._ZNK6Packet12getErrorCodeEv
                0x00000000        0x8 build\Tool.o
 .text._ZNK8InPacket10isFinishedEv
                0x00000000       0x28 build\Tool.o
 .ARM.extab.text._ZNK8InPacket10isFinishedEv
                0x00000000        0x0 build\Tool.o
 .ARM.exidx.text._ZNK8InPacket10isFinishedEv
                0x00000000        0x8 build\Tool.o
 .text._ZN8InPacket7timeoutEv
                0x00000000       0x1c build\Tool.o
 .ARM.extab.text._ZN8InPacket7timeoutEv
                0x00000000        0xc build\Tool.o
 .ARM.exidx.text._ZN8InPacket7timeoutEv
                0x00000000        0x8 build\Tool.o
 .text._ZN4UART12getSlaveUARTEv
                0x00000000       0x14 build\Tool.o
 .ARM.extab.text._ZN4UART12getSlaveUARTEv
                0x00000000        0x0 build\Tool.o
 .ARM.exidx.text._ZN4UART12getSlaveUARTEv
                0x00000000        0x8 build\Tool.o
 .text._ZN11Motherboard8getBoardEv
                0x00000000       0x14 build\Tool.o
 .ARM.extab.text._ZN11Motherboard8getBoardEv
                0x00000000        0x0 build\Tool.o
 .ARM.exidx.text._ZN11Motherboard8getBoardEv
                0x00000000        0x8 build\Tool.o
 .group         0x00000000       0x10 build\UART.o
 .group         0x00000000       0x10 build\UART.o
 .group         0x00000000       0x10 build\UART.o
 .group         0x00000000       0x10 build\UART.o
 .group         0x00000000       0x10 build\UART.o
 .group         0x00000000       0x10 build\UART.o
 .group         0x00000000       0x10 build\UART.o
 .group         0x00000000       0x10 build\UART.o
 .group         0x00000000       0x10 build\UART.o
 .text._ZNK9OutPacket9isSendingEv
                0x00000000       0x38 build\UART.o
 .ARM.extab.text._ZNK9OutPacket9isSendingEv
                0x00000000        0x0 build\UART.o
 .ARM.exidx.text._ZNK9OutPacket9isSendingEv
                0x00000000        0x8 build\UART.o
 .text._ZN4Port15setPinDirectionEhb
                0x00000000       0x2c build\UART.o
 .ARM.extab.text._ZN4Port15setPinDirectionEhb
                0x00000000        0xc build\UART.o
 .ARM.exidx.text._ZN4Port15setPinDirectionEhb
                0x00000000        0x8 build\UART.o
 .text._ZN4Port6setPinEhb
                0x00000000       0x4c build\UART.o
 .ARM.extab.text._ZN4Port6setPinEhb
                0x00000000        0xc build\UART.o
 .ARM.exidx.text._ZN4Port6setPinEhb
                0x00000000        0x8 build\UART.o
 .text._ZN3PinC2ER4Porth
                0x00000000       0x38 build\UART.o
 .ARM.extab.text._ZN3PinC2ER4Porth
                0x00000000        0x0 build\UART.o
 .ARM.exidx.text._ZN3PinC2ER4Porth
                0x00000000        0x8 build\UART.o
 .text._ZN3Pin12setDirectionEb
                0x00000000       0x30 build\UART.o
 .ARM.extab.text._ZN3Pin12setDirectionEb
                0x00000000        0xc build\UART.o
 .ARM.exidx.text._ZN3Pin12setDirectionEb
                0x00000000        0x8 build\UART.o
 .text._ZN3Pin8setValueEb
                0x00000000       0x30 build\UART.o
 .ARM.extab.text._ZN3Pin8setValueEb
                0x00000000        0xc build\UART.o
 .ARM.exidx.text._ZN3Pin8setValueEb
                0x00000000        0x8 build\UART.o
 .text._ZN4UART12getSlaveUARTEv
                0x00000000       0x14 build\UART.o
 .ARM.extab.text._ZN4UART12getSlaveUARTEv
                0x00000000        0x0 build\UART.o
 .ARM.exidx.text._ZN4UART12getSlaveUARTEv
                0x00000000        0x8 build\UART.o

Memory Configuration

Name             Origin             Length             Attributes
rom              0x00003000         0x0007d000         xr
ram              0x10001000         0x00007000         xrw
ram1             0x2007c000         0x00004000         xrw
ram2             0x20080000         0x00004000         xrw
*default*        0x00000000         0xffffffff

Linker script and memory map

LOAD c:/progra~2/codesourcery/source~1/bin/../lib/gcc/arm-none-eabi/4.5.2/thumb2/crti.o
LOAD c:/progra~2/codesourcery/source~1/bin/../lib/gcc/arm-none-eabi/4.5.2/thumb2/crtbegin.o
LOAD build\system\core_cm3.o
LOAD build\system\syscalls.o
LOAD build\system\system_LPC17xx.o
LOAD build\system\mini_cpp.o
LOAD build\system\startup_LPC17xx.o
LOAD build\lib\source\Uart32.o
LOAD build\lib\source\debug_frmwrk.o
LOAD build\lib\source\lpc17xx_adc.o
LOAD build\lib\source\lpc17xx_clkpwr.o
LOAD build\lib\source\lpc17xx_gpio.o
LOAD build\lib\source\lpc17xx_i2c.o
LOAD build\lib\source\lpc17xx_libcfg_default.o
LOAD build\lib\source\lpc17xx_nvic.o
LOAD build\lib\source\lpc17xx_pinsel.o
LOAD build\lib\source\lpc17xx_spi.o
LOAD build\lib\source\lpc17xx_timer.o
LOAD build\lib\source\lpc17xx_uart.o
LOAD build\lib_sd\byteordering.o
LOAD build\lib_sd\fat.o
LOAD build\lib_sd\partition.o
LOAD build\lib_sd\sd_raw.o
LOAD build\IAP_internal_flash_write\IAP.o
LOAD build\VCOM_GV\intenable.o
LOAD build\VCOM_GV\serial_fifo.o
LOAD build\VCOM_GV\usbSerial.o
LOAD build\VCOM_GV\usbcontrol.o
LOAD build\VCOM_GV\usbhw_lpc.o
LOAD build\VCOM_GV\usbinit.o
LOAD build\VCOM_GV\usbstdreq.o
LOAD src\shared\PID.o
LOAD src\shared\Packet.o
LOAD build\Command.o
LOAD build\DebugPacketProcessor.o
LOAD build\Delay.o
LOAD build\EepromMap.o
LOAD build\Host.o
LOAD build\Interface.o
LOAD build\InterfaceBoard.o
LOAD build\LPCPort.o
LOAD build\LiquidCrystal.o
LOAD build\Main.o
LOAD build\Menu.o
LOAD build\Microsteps.o
LOAD build\Motherboard.o
LOAD build\PID.o
LOAD build\Packet.o
LOAD build\SDCard.o
LOAD build\StepperInterface.o
LOAD build\Steppers.o
LOAD build\Timeout.o
LOAD build\Tool.o
LOAD build\UART.o
                0x10008000                PROVIDE (__cs3_stack, (__cs3_region_start_ram + __cs3_region_size_ram))
                0x00005030                PROVIDE (__cs3_stack_size, ((__cs3_region_start_ram + __cs3_region_size_ram) - _end))
                0x10002fd0                PROVIDE (__cs3_heap_start, _end)
                0x10008000                PROVIDE (__cs3_heap_end, (__cs3_region_start_ram + __cs3_region_size_ram))

.text           0x00003000    0x29410
 CREATE_OBJECT_SYMBOLS
                0x00003000                __cs3_region_start_rom = .
 *(.cs3.region-head.rom)
                0x00003000                __cs3_interrupt_vector = __cs3_interrupt_vector_cortex_m
 *(.cs3.interrupt_vector)
 .cs3.interrupt_vector
                0x00003000       0xcc build\system\startup_LPC17xx.o
                0x00003000                __cs3_interrupt_vector_cortex_m
                0x00003001                ASSERT ((. != __cs3_interrupt_vector_cortex_m), No interrupt vector)
 *(.rom)
 *(.rom.b)
                0x000030cc                __cs3_reset = __cs3_reset_cortex_m
 *(.cs3.reset)
 .cs3.reset     0x000030cc       0x10 build\system\startup_LPC17xx.o
                0x000030cc                __cs3_reset_cortex_m
                0x00003001                ASSERT ((. != __cs3_reset), No reset code)
 *(.text .text.* .gnu.linkonce.t.*)
 .text          0x000030dc        0x0 c:/progra~2/codesourcery/source~1/bin/../lib/gcc/arm-none-eabi/4.5.2/thumb2/crti.o
 .text          0x000030dc       0x30 c:/progra~2/codesourcery/source~1/bin/../lib/gcc/arm-none-eabi/4.5.2/thumb2/crtbegin.o
 .text          0x0000310c        0x0 build\system\core_cm3.o
 .text          0x0000310c      0x188 build\system\syscalls.o
                0x0000310c                _kill
                0x00003134                _exit
                0x00003140                _getpid
                0x00003150                get_heap_end
                0x00003164                get_stack_top
                0x00003178                _sbrk
                0x000031cc                _close
                0x000031e4                _fstat
                0x00003208                _isatty
                0x00003220                _lseek
                0x0000323c                _read
                0x00003258                _write
 .text          0x00003294      0x318 build\system\system_LPC17xx.o
                0x00003294                SystemCoreClockUpdate
                0x0000343c                SystemInit
 .text          0x000035ac       0x6c build\system\mini_cpp.o
                0x000035ac                operator new(unsigned int)
                0x000035c8                operator new[](unsigned int)
                0x000035e4                operator delete(void*)
                0x000035fc                __aeabi_atexit
 .text          0x00003618       0x14 build\system\startup_LPC17xx.o
                0x00003618                NMI_Handler
                0x0000361a                HardFault_Handler
                0x0000361c                MemManage_Handler
                0x0000361e                BusFault_Handler
                0x00003620                UsageFault_Handler
                0x00003622                SVC_Handler
                0x00003624                DebugMon_Handler
                0x00003626                PendSV_Handler
                0x00003628                SysTick_Handler
                0x0000362a                PWM1_IRQHandler
                0x0000362a                I2C1_IRQHandler
                0x0000362a                EINT2_IRQHandler
                0x0000362a                EINT3_IRQHandler
                0x0000362a                CANActivity_IRQHandler
                0x0000362a                TIMER3_IRQHandler
                0x0000362a                UART0_IRQHandler
                0x0000362a                I2C0_IRQHandler
                0x0000362a                RIT_IRQHandler
                0x0000362a                CAN_IRQHandler
                0x0000362a                PLL1_IRQHandler
                0x0000362a                SSP0_IRQHandler
                0x0000362a                I2S_IRQHandler
                0x0000362a                I2C2_IRQHandler
                0x0000362a                RTC_IRQHandler
                0x0000362a                SPI_IRQHandler
                0x0000362a                EINT1_IRQHandler
                0x0000362a                UART2_IRQHandler
                0x0000362a                Default_Handler
                0x0000362a                ADC_IRQHandler
                0x0000362a                SSP1_IRQHandler
                0x0000362a                BOD_IRQHandler
                0x0000362a                USBActivity_IRQHandler
                0x0000362a                WDT_IRQHandler
                0x0000362a                PLL0_IRQHandler
                0x0000362a                QEI_IRQHandler
                0x0000362a                EINT0_IRQHandler
                0x0000362a                DMA_IRQHandler
                0x0000362a                TIMER2_IRQHandler
                0x0000362a                UART3_IRQHandler
                0x0000362a                MCPWM_IRQHandler
                0x0000362a                ENET_IRQHandler
 .text          0x0000362c       0xe4 build\lib\source\Uart32.o
                0x0000362c                UART_8
                0x0000364c                UART_32_DEC
                0x000036ac                UART_32_HEX
 .text          0x00003710      0x75c build\lib\source\debug_frmwrk.o
                0x00003710                UARTPutChar
                0x00003738                UARTGetChar
                0x00003768                UARTPuts
                0x0000379c                UARTPuts_
                0x000037c4                UARTPutDec
                0x0000387c                UARTPutDec16
                0x000039b8                UARTPutDec32
                0x00003c1c                UARTPutHex
                0x00003c90                UARTPutHex16
                0x00003d04                UARTPutHex32
                0x00003d74                debug_frmwrk_init
 .text          0x00003e6c      0x518 build\lib\source\lpc17xx_adc.o
                0x00003e6c                ADC_Init
                0x00003f04                ADC_DeInit
                0x00003f48                ADC_GetData
                0x00003f7c                ADC_StartCmd
                0x00004000                ADC_BurstCmd
                0x0000404c                ADC_PowerdownCmd
                0x00004098                ADC_EdgeStartConfig
                0x000040fc                ADC_IntConfig
                0x000041a0                ADC_ChannelCmd
                0x00004208                ADC_ChannelGetData
                0x0000425c                ADC_ChannelGetStatus
                0x000042e0                ADC_GlobalGetData
                0x00004310                ADC_GlobalGetStatus
 .text          0x00004384      0x250 build\lib\source\lpc17xx_clkpwr.o
                0x00004384                CLKPWR_SetPCLKDiv
                0x00004424                CLKPWR_GetPCLKSEL
                0x00004470                CLKPWR_GetPCLK
                0x000044e0                CLKPWR_ConfigPPWR
                0x00004540                CLKPWR_Sleep
                0x0000455c                CLKPWR_DeepSleep
                0x00004584                CLKPWR_PowerDown
                0x000045ac                CLKPWR_DeepPowerDown
 .text          0x000045d4      0x860 build\lib\source\lpc17xx_gpio.o
                0x00004730                GPIO_SetDir
                0x0000477c                GPIO_SetValue
                0x000047a8                GPIO_ClearValue
                0x000047d4                GPIO_ReadValue
                0x00004804                GPIO_IntCmd
                0x00004874                GPIO_GetIntStatus
                0x00004918                GPIO_ClearInt
                0x00004950                FIO_SetDir
                0x00004978                FIO_SetValue
                0x00004998                FIO_ClearValue
                0x000049b8                FIO_ReadValue
                0x000049d8                FIO_IntCmd
                0x00004a00                FIO_GetIntStatus
                0x00004a2c                FIO_ClearInt
                0x00004a4c                FIO_SetMask
                0x00004a98                FIO_HalfWordSetDir
                0x00004b34                FIO_HalfWordSetMask
                0x00004bd0                FIO_HalfWordSetValue
                0x00004c10                FIO_HalfWordClearValue
                0x00004c50                FIO_HalfWordReadValue
                0x00004c94                FIO_ByteSetDir
                0x00004d04                FIO_ByteSetMask
                0x00004d7c                FIO_ByteSetValue
                0x00004db8                FIO_ByteClearValue
                0x00004df4                FIO_ByteReadValue
 .text          0x00004e34     0x1348 build\lib\source\lpc17xx_i2c.o
                0x000050c4                I2C_Init
                0x00005180                I2C_DeInit
                0x0000520c                I2C_Cmd
                0x00005280                I2C_IntCmd
                0x00005310                I2C_MasterHandler
                0x000056d4                I2C_SlaveHandler
                0x000058a8                I2C_MasterTransferData
                0x00005bdc                I2C_SlaveTransferData
                0x00005e3c                I2C_SetOwnSlaveAddr
                0x00005f40                I2C_MonitorModeConfig
                0x00005fc8                I2C_MonitorModeCmd
                0x00006068                I2C_MonitorGetDatabuffer
                0x000060b4                I2C_MonitorHandler
                0x0000610c                I2C_MasterTransferComplete
                0x00006144                I2C_SlaveTransferComplete
 .text          0x0000617c        0xc build\lib\source\lpc17xx_libcfg_default.o
                0x0000617c                check_failed
 .text          0x00006188       0xfc build\lib\source\lpc17xx_nvic.o
                0x00006188                NVIC_DeInit
                0x000061e8                NVIC_SCBDeInit
                0x00006268                NVIC_SetVTOR
 .text          0x00006284      0x284 build\lib\source\lpc17xx_pinsel.o
                0x00006438                PINSEL_ConfigTraceFunc
                0x00006478                PINSEL_SetI2C0Pins
                0x000064b4                PINSEL_ConfigPin
 .text          0x00006508      0x58c build\lib\source\lpc17xx_spi.o
                0x00006508                SPI_SetClock
                0x00006584                SPI_DeInit
                0x000065c4                SPI_GetDataSize
                0x00006600                SPI_Init
                0x00006698                SPI_ConfigStructInit
                0x000066dc                SPI_SendData
                0x00006710                SPI_ReceiveData
                0x00006744                SPI_ReadWrite
                0x00006938                SPI_IntCmd
                0x000069a0                SPI_GetIntStatus
                0x000069d8                SPI_ClearIntPending
                0x00006a0c                SPI_GetStatus
                0x00006a40                SPI_CheckStatus
 .text          0x00006a94      0xab0 build\lib\source\lpc17xx_timer.o
                0x00006bc0                TIM_GetIntStatus
                0x00006c68                TIM_GetIntCaptureStatus
                0x00006d14                TIM_ClearIntPending
                0x00006da0                TIM_ClearIntCapturePending
                0x00006e30                TIM_ConfigStructInit
                0x00006e70                TIM_Init
                0x00007018                TIM_DeInit
                0x000070c0                TIM_Cmd
                0x00007130                TIM_ResetCounter
                0x00007194                TIM_ConfigMatch
                0x00007344                TIM_UpdateMatchValue
                0x000073d4                TIM_ConfigCapture
                0x000074cc                TIM_GetCaptureValue
 .text          0x00007544     0x16c0 build\lib\source\lpc17xx_uart.o
                0x0000784c                UART_Init
                0x00007b70                UART_DeInit
                0x00007c18                UART_ConfigStructInit
                0x00007c4c                UART_SendByte
                0x00007cb4                UART_ReceiveByte
                0x00007d1c                UART_Send
                0x00007e28                UART_Receive
                0x00007f00                UART_ForceBreak
                0x00007f78                UART_IntConfig
                0x00008110                UART_GetLineStatus
                0x00008178                UART_GetIntId
                0x000081d4                UART_CheckBusy
                0x00008200                UART_FIFOConfig
                0x0000835c                UART_FIFOConfigStructInit
                0x00008390                UART_ABCmd
                0x000084d8                UART_ABClearIntPending
                0x0000854c                UART_TxCmd
                0x00008618                UART_IrDAInvtInputCmd
                0x00008694                UART_IrDACmd
                0x00008708                UART_IrDAPulseDivConfig
                0x000087a8                UART_FullModemForcePinState
                0x00008864                UART_FullModemConfigMode
                0x0000892c                UART_FullModemGetStatus
                0x00008960                UART_RS485Config
                0x00008ae8                UART_RS485ReceiverCmd
                0x00008b30                UART_RS485Send
                0x00008bb4                UART_RS485SendSlvAddr
                0x00008bdc                UART_RS485SendData
 .text          0x00008c04       0xf8 build\lib_sd\byteordering.o
                0x00008c04                read16
                0x00008c34                read32
                0x00008c78                write16
                0x00008ca8                write32
 .text          0x00008cfc     0x1cb8 build\lib_sd\fat.o
                0x00008cfc                fat_open
                0x00008d98                fat_close
                0x00009380                fat_get_dir_entry_of_path
                0x000094b8                fat_open_file
                0x00009560                fat_close_file
                0x00009580                fat_read_file
                0x00009710                fat_write_file
                0x00009930                fat_seek_file
                0x000099cc                fat_resize_file
                0x00009b10                fat_open_dir
                0x00009bac                fat_close_dir
                0x00009bcc                fat_read_dir
                0x00009d54                fat_reset_dir
                0x0000a58c                fat_create_file
                0x0000a648                fat_delete_file
                0x0000a700                fat_create_dir
                0x0000a884                fat_get_fs_size
                0x0000a8b8                fat_get_fs_free
 .text          0x0000a9b4      0x16c build\lib_sd\partition.o
                0x0000a9b4                partition_open
                0x0000aaf4                partition_close
 .text          0x0000ab20      0xae4 build\lib_sd\sd_raw.o
                0x0000ab20                sd_raw_init
                0x0000ada0                sd_raw_available
                0x0000adb4                sd_raw_locked
                0x0000aee4                sd_raw_read
                0x0000b010                sd_raw_read_interval
                0x0000b090                sd_raw_write
                0x0000b1fc                sd_raw_write_interval
                0x0000b298                sd_raw_sync
                0x0000b2e4                sd_raw_get_info
 .text          0x0000b604      0x214 build\IAP_internal_flash_write\IAP.o
                0x0000b604                IAP::read_ID()
                0x0000b638                IAP::read_serial()
                0x0000b66c                IAP::blank_check(int, int)
                0x0000b6b0                IAP::erase(int, int)
                0x0000b700                IAP::prepare(int, int)
                0x0000b744                IAP::write(char*, char*, int)
                0x0000b79c                IAP::compare(char*, char*, int)
                0x0000b7e8                IAP::reserved_flash_area_start()
                0x0000b800                IAP::reserved_flash_area_size()
 .text          0x0000b818       0xb4 build\VCOM_GV\intenable.o
                0x0000b8a4                enable_USB_interrupts
 .text          0x0000b8cc      0x164 build\VCOM_GV\serial_fifo.o
                0x0000b8cc                fifo_init
                0x0000b8f8                fifo_put
                0x0000b960                fifo_get
                0x0000b9cc                fifo_avail
                0x0000ba0c                fifo_free
 .text          0x0000ba30      0x8ac build\VCOM_GV\usbSerial.o
                0x0000bb94                VCOM_init
                0x0000bbbc                VCOM_putchar
                0x0000bbec                VCOM_getchar
                0x0000bc48                usbSerialInit
                0x0000bcbc                VCOM_puts
                0x0000bce8                VCOM_putc
                0x0000bd0c                VCOM_getc
                0x0000bd38                VCOM_putHex
                0x0000bd9c                VCOM_gets
                0x0000bde0                VCOM_getc_echo
                0x0000be04                VCOM_gets_echo
                0x0000be48                xatoi
                0x0000bfcc                xitoa
                0x0000c128                VCOM_printf
 .text          0x0000c2dc      0x27c build\VCOM_GV\usbcontrol.o
                0x0000c3b0                USBHandleControlTransfer
                0x0000c524                USBRegisterRequestHandler
 .text          0x0000c558      0x76c build\VCOM_GV\usbhw_lpc.o
                0x0000c6c0                USBHwEPConfig
                0x0000c704                USBHwRegisterEPIntHandler
                0x0000c77c                USBHwRegisterDevIntHandler
                0x0000c7ac                USBHwRegisterFrameHandler
                0x0000c7dc                USBHwSetAddress
                0x0000c800                USBHwConnect
                0x0000c828                USBHwNakIntEnable
                0x0000c848                USBHwEPGetStatus
                0x0000c880                USBHwEPStall
                0x0000c8d0                USBHwEPWrite
                0x0000c984                USBHwEPRead
                0x0000ca6c                USBHwConfigDevice
                0x0000ca94                USBHwISR
                0x0000cbec                USBHwInit
 .text          0x0000ccc4       0x74 build\VCOM_GV\usbinit.o
                0x0000ccd8                USBInit
 .text          0x0000cd38      0x4c0 build\VCOM_GV\usbstdreq.o
                0x0000cd38                USBRegisterDescriptors
                0x0000cd54                USBGetDescriptor
                0x0000d160                USBHandleStandardRequest
                0x0000d1dc                USBRegisterCustomReqHandler
 .text          0x0000d1f8      0x28c src\shared\PID.o
                0x0000d1f8                PID::reset()
                0x0000d230                PID::reset_state()
                0x0000d2b4                PID::calculate(int)
                0x0000d40c                PID::setTarget(int)
                0x0000d434                PID::getErrorTerm()
                0x0000d44c                PID::getDeltaTerm()
                0x0000d46c                PID::getLastOutput()
 .text          0x0000d484      0x54c src\shared\Packet.o
                0x0000d484                _crc_ibutton_update(unsigned char, unsigned char)
                0x0000d4f4                Packet::appendByte(unsigned char)
                0x0000d554                Packet::reset()
                0x0000d58c                InPacket::InPacket()
                0x0000d58c                InPacket::InPacket()
                0x0000d5b0                InPacket::reset()
                0x0000d5c8                InPacket::processByte(unsigned char)
                0x0000d6f0                Packet::read8(unsigned char) const
                0x0000d714                Packet::read16(unsigned char) const
                0x0000d754                Packet::read32(unsigned char) const
                0x0000d7ac                OutPacket::OutPacket()
                0x0000d7ac                OutPacket::OutPacket()
                0x0000d7d0                OutPacket::reset()
                0x0000d7f4                OutPacket::prepareForResend()
                0x0000d824                OutPacket::getNextByteToSend()
                0x0000d920                OutPacket::append8(unsigned char)
                0x0000d940                OutPacket::append16(unsigned short)
                0x0000d978                OutPacket::append32(unsigned long)
 .text._ZN6Packet5errorEh
                0x0000d9d0       0x24 src\shared\Packet.o
                0x0000d9d0                Packet::error(unsigned char)
 .text._ZN6PacketC2Ev
                0x0000d9f4       0x18 src\shared\Packet.o
                0x0000d9f4                Packet::Packet()
                0x0000d9f4                Packet::Packet()
 .text          0x0000da0c      0xb68 build\Command.o
                0x0000da0c                command::getRemainingCapacity()
                0x0000da2c                command::pause(bool)
                0x0000da4c                command::isPaused()
                0x0000da60                command::isEmpty()
                0x0000da74                command::push(unsigned char)
                0x0000da94                command::pop8()
                0x0000daa8                command::pop16()
                0x0000dad4                command::pop32()
                0x0000db14                command::reset()
                0x0000db30                command::runCommandSlice()
 .text._ZN5PointC2Elllll
                0x0000e574       0x3c build\Command.o
                0x0000e574                Point::Point(long, long, long, long, long)
                0x0000e574                Point::Point(long, long, long, long, long)
 .text._ZN5PointC2Elll
                0x0000e5b0       0x64 build\Command.o
                0x0000e5b0                Point::Point(long, long, long)
                0x0000e5b0                Point::Point(long, long, long)
 .text._ZNK5PointixEj
                0x0000e614       0x20 build\Command.o
                0x0000e614                Point::operator[](unsigned int) const
 .text._ZN5PointixEj
                0x0000e634       0x20 build\Command.o
                0x0000e634                Point::operator[](unsigned int)
 .text._ZNK6Packet8hasErrorEv
                0x0000e654       0x28 build\Command.o
                0x0000e654                Packet::hasError() const
 .text._ZN19CircularBufferTemplIhEC2EtPh
                0x0000e67c       0x48 build\Command.o
                0x0000e67c                CircularBufferTempl<unsigned char>::CircularBufferTempl(unsigned short, unsigned char*)
                0x0000e67c                CircularBufferTempl<unsigned char>::CircularBufferTempl(unsigned short, unsigned char*)
 .text._ZNK19CircularBufferTemplIhE20getRemainingCapacityEv
                0x0000e6c4       0x24 build\Command.o
                0x0000e6c4                CircularBufferTempl<unsigned char>::getRemainingCapacity() const
 .text._ZNK19CircularBufferTemplIhE7isEmptyEv
                0x0000e6e8       0x24 build\Command.o
                0x0000e6e8                CircularBufferTempl<unsigned char>::isEmpty() const
 .text._ZN19CircularBufferTemplIhE4pushEh
                0x0000e70c       0x5c build\Command.o
                0x0000e70c                CircularBufferTempl<unsigned char>::push(unsigned char)
 .text._ZN19CircularBufferTemplIhE3popEv
                0x0000e768       0x6c build\Command.o
                0x0000e768                CircularBufferTempl<unsigned char>::pop()
 .text._ZN19CircularBufferTemplIhE5resetEv
                0x0000e7d4       0x34 build\Command.o
                0x0000e7d4                CircularBufferTempl<unsigned char>::reset()
 .text._ZNK19CircularBufferTemplIhE9getLengthEv
                0x0000e808       0x1c build\Command.o
                0x0000e808                CircularBufferTempl<unsigned char>::getLength() const
 .text._ZN19CircularBufferTemplIhEixEt
                0x0000e824       0x3c build\Command.o
                0x0000e824                CircularBufferTempl<unsigned char>::operator[](unsigned short)
 .text          0x0000e860      0x334 build\DebugPacketProcessor.o
                0x0000e860                processDebugPacket(InPacket const&, OutPacket&)
 .text._ZNK6Packet9getLengthEv
                0x0000eb94       0x1c build\DebugPacketProcessor.o
                0x0000eb94                Packet::getLength() const
 .text._ZN11Motherboard8getBoardEv
                0x0000ebb0       0x14 build\DebugPacketProcessor.o
                0x0000ebb0                Motherboard::getBoard()
 .text          0x0000ebc4      0x140 build\Delay.o
                0x0000ebc4                few_ticks
                0x0000ec8c                _delay_us
                0x0000ecc4                _delay_ms
                0x0000ece4                _delay_s
 .text          0x0000ed04      0x798 build\EepromMap.o
                0x0000ed04                print_menu()
                0x0000ed4c                test_uart()
                0x0000ee0c                test_led(unsigned char)
                0x0000ee7c                test_led2(unsigned char)
                0x0000eeec                test_led3(unsigned char)
                0x0000ef5c                test_u()
                0x0000efd0                UART_8(LPC_UART_TypeDef*, unsigned char)
                0x0000eff0                UART_32_DEC(LPC_UART_TypeDef*, unsigned long)
                0x0000f050                UART_32_HEX(LPC_UART_TypeDef*, unsigned long)
                0x0000f0b4                read_all_from_flash()
                0x0000f114                save_to_flash()
                0x0000f160                microstep_pinout(unsigned char)
                0x0000f238                eeprom::init()
                0x0000f328                eeprom::getEeprom8(unsigned long, unsigned char)
                0x0000f354                eeprom::getEeprom16(unsigned long, unsigned short)
 .text._ZN3IAPC2Ev
                0x0000f49c       0x3c build\EepromMap.o
                0x0000f49c                IAP::IAP()
                0x0000f49c                IAP::IAP()
 .text          0x0000f4d8      0x7a4 build\Host.o
                0x0000f4d8                host::runHostSlice()
                0x0000f664                host::processCommandPacket(InPacket const&, OutPacket&)
                0x0000f74c                host::doToolPause(OutPacket&)
                0x0000f868                host::processQueryPacket(InPacket const&, OutPacket&)
                0x0000fa50                host::getMachineName()
                0x0000fae4                host::getBuildName()
                0x0000faf8                host::getHostState()
                0x0000fb0c                host::startBuildFromSD()
                0x0000fb44                host::stopBuild()
 .text._ZNK6Packet12getErrorCodeEv
                0x0000fc7c       0x1c build\Host.o
                0x0000fc7c                Packet::getErrorCode() const
 .text._ZNK6Packet7getDataEv
                0x0000fc98       0x1c build\Host.o
                0x0000fc98                Packet::getData() const
 .text._ZNK8InPacket10isFinishedEv
                0x0000fcb4       0x28 build\Host.o
                0x0000fcb4                InPacket::isFinished() const
 .text._ZNK8InPacket9isStartedEv
                0x0000fcdc       0x28 build\Host.o
                0x0000fcdc                InPacket::isStarted() const
 .text._ZN8InPacket7timeoutEv
                0x0000fd04       0x1c build\Host.o
                0x0000fd04                InPacket::timeout()
 .text._ZNK9OutPacket9isSendingEv
                0x0000fd20       0x38 build\Host.o
                0x0000fd20                OutPacket::isSending() const
 .text._ZN4UART11getHostUARTEv
                0x0000fd58       0x14 build\Host.o
                0x0000fd58                UART::getHostUART()
 .text._ZNK7Timeout8isActiveEv
                0x0000fd6c       0x18 build\Host.o
                0x0000fd6c                Timeout::isActive() const
 .text._ZN11Motherboard19getStepperInterfaceEi
                0x0000fd84       0x28 build\Host.o
                0x0000fd84                Motherboard::getStepperInterface(int)
 .text._ZN4host13handleVersionERK8InPacketR9OutPacket
                0x0000fdac       0x28 build\Host.o
                0x0000fdac                host::handleVersion(InPacket const&, OutPacket&)
 .text._ZN4host18handleGetBuildNameERK8InPacketR9OutPacket
                0x0000fdd4       0x5c build\Host.o
                0x0000fdd4                host::handleGetBuildName(InPacket const&, OutPacket&)
 .text._ZN4host19handleGetBufferSizeERK8InPacketR9OutPacket
                0x0000fe30       0x2c build\Host.o
                0x0000fe30                host::handleGetBufferSize(InPacket const&, OutPacket&)
 .text._ZN4host17handleGetPositionERK8InPacketR9OutPacket
                0x0000fe5c      0x110 build\Host.o
                0x0000fe5c                host::handleGetPosition(InPacket const&, OutPacket&)
 .text._ZN4host20handleGetPositionExtERK8InPacketR9OutPacket
                0x0000ff6c      0x148 build\Host.o
                0x0000ff6c                host::handleGetPositionExt(InPacket const&, OutPacket&)
 .text._ZN4host19handleCaptureToFileERK8InPacketR9OutPacket
                0x000100b4       0x3c build\Host.o
                0x000100b4                host::handleCaptureToFile(InPacket const&, OutPacket&)
 .text._ZN4host16handleEndCaptureERK8InPacketR9OutPacket
                0x000100f0       0x2c build\Host.o
                0x000100f0                host::handleEndCapture(InPacket const&, OutPacket&)
 .text._ZN4host14handlePlaybackERK8InPacketR9OutPacket
                0x0001011c       0x84 build\Host.o
                0x0001011c                host::handlePlayback(InPacket const&, OutPacket&)
 .text._ZN4host18handleNextFilenameERK8InPacketR9OutPacket
                0x000101a0      0x10c build\Host.o
                0x000101a0                host::handleNextFilename(InPacket const&, OutPacket&)
 .text._ZN4host15handleToolQueryERK8InPacketR9OutPacket
                0x000102ac      0x17c build\Host.o
                0x000102ac                host::handleToolQuery(InPacket const&, OutPacket&)
 .text._ZN4host11handlePauseERK8InPacketR9OutPacket
                0x00010428       0x34 build\Host.o
                0x00010428                host::handlePause(InPacket const&, OutPacket&)
 .text._ZN4host16handleIsFinishedERK8InPacketR9OutPacket
                0x0001045c       0x60 build\Host.o
                0x0001045c                host::handleIsFinished(InPacket const&, OutPacket&)
 .text._ZN4host16handleReadEepromERK8InPacketR9OutPacket
                0x000104bc       0x74 build\Host.o
                0x000104bc                host::handleReadEeprom(InPacket const&, OutPacket&)
 .text._ZN4host17handleWriteEepromERK8InPacketR9OutPacket
                0x00010530       0x90 build\Host.o
                0x00010530                host::handleWriteEeprom(InPacket const&, OutPacket&)
 .text._ZN4host18handleExtendedStopERK8InPacketR9OutPacket
                0x000105c0       0x54 build\Host.o
                0x000105c0                host::handleExtendedStop(InPacket const&, OutPacket&)
 .text._ZN4host27handleGetCommunicationStatsERK8InPacketR9OutPacket
                0x00010614       0x60 build\Host.o
                0x00010614                host::handleGetCommunicationStats(InPacket const&, OutPacket&)
 .text          0x00010674       0xc8 build\Interface.o
                0x00010674                interfaceboard::isConnected()
                0x0001068c                interfaceboard::init()
                0x0001069c                interfaceboard::pushScreen(Screen*)
                0x000106b8                interfaceboard::popScreen()
                0x000106c8                interfaceboard::doInterrupt()
                0x000106d8                interfaceboard::getUpdateRate()
                0x000106ec                interfaceboard::doUpdate()
 .text          0x0001073c      0x5e8 build\InterfaceBoard.o
                0x0001073c                ButtonArray::init()
                0x00010760                ButtonArray::scanButtons()
                0x0001088c                ButtonArray::getButton(InterfaceBoardDefinitions::ButtonName&)
                0x000108c8                InterfaceBoard::InterfaceBoard()
                0x000108c8                InterfaceBoard::InterfaceBoard()
                0x00010a9c                InterfaceBoard::init()
                0x00010ab0                InterfaceBoard::doInterrupt()
                0x00010acc                InterfaceBoard::getUpdateRate()
                0x00010b10                InterfaceBoard::doUpdate()
                0x00010c08                InterfaceBoard::pushScreen(Screen*)
                0x00010cbc                InterfaceBoard::popScreen()
 .text._ZN4Port15setPinDirectionEhb
                0x00010d24       0x2c build\InterfaceBoard.o
                0x00010d24                Port::setPinDirection(unsigned char, bool)
 .text._ZN4Port6setPinEhb
                0x00010d50       0x4c build\InterfaceBoard.o
                0x00010d50                Port::setPin(unsigned char, bool)
 .text._ZN3PinC2ER4Porth
                0x00010d9c       0x38 build\InterfaceBoard.o
                0x00010d9c                Pin::Pin(Port&, unsigned char)
                0x00010d9c                Pin::Pin(Port&, unsigned char)
 .text._ZN3Pin12setDirectionEb
                0x00010dd4       0x30 build\InterfaceBoard.o
                0x00010dd4                Pin::setDirection(bool)
 .text._ZN3Pin8setValueEb
                0x00010e04       0x30 build\InterfaceBoard.o
                0x00010e04                Pin::setValue(bool)
 .text._ZN6ScreenC2Ev
                0x00010e34       0x20 build\InterfaceBoard.o
                0x00010e34                Screen::Screen()
                0x00010e34                Screen::Screen()
 .text._ZN12SplashScreenC2Ev
                0x00010e54       0x28 build\InterfaceBoard.o
                0x00010e54                SplashScreen::SplashScreen()
                0x00010e54                SplashScreen::SplashScreen()
 .text._ZN11MonitorModeC2Ev
                0x00010e7c       0x34 build\InterfaceBoard.o
                0x00010e7c                MonitorMode::MonitorMode()
                0x00010e7c                MonitorMode::MonitorMode()
 .text          0x00010eb0       0x70 build\LPCPort.o
 .text._ZN4PortC2Eh
                0x00010f20       0x20 build\LPCPort.o
                0x00010f20                Port::Port(unsigned char)
                0x00010f20                Port::Port(unsigned char)
 .text          0x00010f40      0xbe0 build\LiquidCrystal.o
                0x00010f40                LiquidCrystal::LiquidCrystal(Pin, Pin, Pin, Pin, Pin, Pin, Pin, Pin, Pin, Pin, Pin)
                0x00010f40                LiquidCrystal::LiquidCrystal(Pin, Pin, Pin, Pin, Pin, Pin, Pin, Pin, Pin, Pin, Pin)
                0x00010ff8                LiquidCrystal::LiquidCrystal(Pin, Pin, Pin, Pin, Pin, Pin, Pin, Pin, Pin, Pin)
                0x00010ff8                LiquidCrystal::LiquidCrystal(Pin, Pin, Pin, Pin, Pin, Pin, Pin, Pin, Pin, Pin)
                0x000110bc                LiquidCrystal::LiquidCrystal(Pin, Pin, Pin, Pin, Pin, Pin, Pin)
                0x000110bc                LiquidCrystal::LiquidCrystal(Pin, Pin, Pin, Pin, Pin, Pin, Pin)
                0x0001119c                LiquidCrystal::LiquidCrystal(Pin, Pin, Pin, Pin, Pin, Pin)
                0x0001119c                LiquidCrystal::LiquidCrystal(Pin, Pin, Pin, Pin, Pin, Pin)
                0x00011288                LiquidCrystal::init(unsigned char, Pin, Pin, Pin, Pin, Pin, Pin, Pin, Pin, Pin, Pin, Pin)
                0x00011354                LiquidCrystal::begin(unsigned char, unsigned char, unsigned char)
                0x000114cc                LiquidCrystal::clear()
                0x000114f0                LiquidCrystal::home()
                0x00011514                LiquidCrystal::setCursor(unsigned char, unsigned char)
                0x0001157c                LiquidCrystal::noDisplay()
                0x000115ac                LiquidCrystal::display()
                0x000115dc                LiquidCrystal::noCursor()
                0x0001160c                LiquidCrystal::cursor()
                0x0001163c                LiquidCrystal::noBlink()
                0x0001166c                LiquidCrystal::blink()
                0x0001169c                LiquidCrystal::scrollDisplayLeft()
                0x000116b8                LiquidCrystal::scrollDisplayRight()
                0x000116d4                LiquidCrystal::leftToRight()
                0x00011704                LiquidCrystal::rightToLeft()
                0x00011734                LiquidCrystal::autoscroll()
                0x00011764                LiquidCrystal::noAutoscroll()
                0x00011794                LiquidCrystal::createChar(unsigned char, unsigned char*)
                0x00011800                LiquidCrystal::writeInt(unsigned short, unsigned char)
                0x000118c0                LiquidCrystal::writeString(char*)
                0x00011904                LiquidCrystal::writeFromPgmspace(char const*)
                0x00011944                LiquidCrystal::send(unsigned char, bool)
                0x000119c8                LiquidCrystal::pulseEnable()
                0x00011a20                LiquidCrystal::write4bits(unsigned char)
                0x00011aa0                LiquidCrystal::write8bits(unsigned char)
 .text._ZN4PortC2Ev
                0x00011b20       0x20 build\LiquidCrystal.o
                0x00011b20                Port::Port()
                0x00011b20                Port::Port()
 .text._ZN4Port6isNullEv
                0x00011b40       0x24 build\LiquidCrystal.o
                0x00011b40                Port::isNull()
 .text._ZN3PinC2Ev
                0x00011b64       0x28 build\LiquidCrystal.o
                0x00011b64                Pin::Pin()
                0x00011b64                Pin::Pin()
 .text._ZN3Pin6isNullEv
                0x00011b8c       0x1c build\LiquidCrystal.o
                0x00011b8c                Pin::isNull()
 .text._ZN13LiquidCrystal7commandEh
                0x00011ba8       0x24 build\LiquidCrystal.o
                0x00011ba8                LiquidCrystal::command(unsigned char)
 .text._ZN13LiquidCrystal5writeEh
                0x00011bcc       0x24 build\LiquidCrystal.o
                0x00011bcc                LiquidCrystal::write(unsigned char)
 .text          0x00011bf0      0x624 build\Main.o
                0x00011fec                reset(bool)
                0x00012058                main
 .text          0x00012214     0x1254 build\Menu.o
                0x00012214                queryExtruderParameter(unsigned char, OutPacket&)
                0x00012348                SplashScreen::update(LiquidCrystal&, bool)
                0x000123d4                SplashScreen::notifyButtonPressed(InterfaceBoardDefinitions::ButtonName)
                0x000123ec                SplashScreen::reset()
                0x00012400                JogMode::reset()
                0x00012424                JogMode::update(LiquidCrystal&, bool)
                0x000124e4                JogMode::jog(InterfaceBoardDefinitions::ButtonName)
                0x00012600                JogMode::notifyButtonPressed(InterfaceBoardDefinitions::ButtonName)
                0x0001268c                SnakeMode::update(LiquidCrystal&, bool)
                0x00012a2c                SnakeMode::reset()
                0x00012aec                SnakeMode::notifyButtonPressed(InterfaceBoardDefinitions::ButtonName)
                0x00012b68                MonitorMode::reset()
                0x00012b7c                MonitorMode::update(LiquidCrystal&, bool)
                0x00012d34                MonitorMode::notifyButtonPressed(InterfaceBoardDefinitions::ButtonName)
                0x00012d70                Menu::update(LiquidCrystal&, bool)
                0x00012e74                Menu::reset()
                0x00012eac                Menu::resetState()
                0x00012ec0                Menu::handleSelect(unsigned char)
                0x00012ed8                Menu::handleCancel()
                0x00012eec                Menu::notifyButtonPressed(InterfaceBoardDefinitions::ButtonName)
                0x00012fac                CancelBuildMenu::CancelBuildMenu()
                0x00012fac                CancelBuildMenu::CancelBuildMenu()
                0x00012fe4                CancelBuildMenu::resetState()
                0x00013008                CancelBuildMenu::drawItem(unsigned char, LiquidCrystal&)
                0x00013068                CancelBuildMenu::handleSelect(unsigned char)
                0x00013098                MainMenu::MainMenu()
                0x00013098                MainMenu::MainMenu()
                0x000130d0                MainMenu::drawItem(unsigned char, LiquidCrystal&)
                0x00013140                MainMenu::handleSelect(unsigned char)
                0x000131a4                SDMenu::SDMenu()
                0x000131a4                SDMenu::SDMenu()
                0x000131d4                SDMenu::resetState()
                0x000131f4                SDMenu::countFiles()
                0x00013264                SDMenu::getFilename(unsigned char, char*, unsigned char)
                0x000132f8                SDMenu::drawItem(unsigned char, LiquidCrystal&)
                0x000133a8                SDMenu::handleSelect(unsigned char)
 .text._ZN4Menu13getUpdateRateEv
                0x00013468       0x1c build\Menu.o
                0x00013468                Menu::getUpdateRate()
 .text._ZN12SplashScreen13getUpdateRateEv
                0x00013484       0x18 build\Menu.o
                0x00013484                SplashScreen::getUpdateRate()
 .text._ZN7JogMode13getUpdateRateEv
                0x0001349c       0x18 build\Menu.o
                0x0001349c                JogMode::getUpdateRate()
 .text._ZN9SnakeMode13getUpdateRateEv
                0x000134b4       0x18 build\Menu.o
                0x000134b4                SnakeMode::getUpdateRate()
 .text._ZN11MonitorMode13getUpdateRateEv
                0x000134cc       0x1c build\Menu.o
                0x000134cc                MonitorMode::getUpdateRate()
 .text._ZN7JogModeC2Ev
                0x000134e8       0x28 build\Menu.o
                0x000134e8                JogMode::JogMode()
                0x000134e8                JogMode::JogMode()
 .text._ZN9SnakeModeC2Ev
                0x00013510       0x28 build\Menu.o
                0x00013510                SnakeMode::SnakeMode()
                0x00013510                SnakeMode::SnakeMode()
 .text._ZN4MenuC2Ev
                0x00013538       0x28 build\Menu.o
                0x00013538                Menu::Menu()
                0x00013538                Menu::Menu()
 .text          0x00013560      0x204 build\Microsteps.o
                0x00013560                microsteps::init()
 .text          0x00013764      0xb5c build\Motherboard.o
                0x00013ba0                Motherboard::indicateError(int)
                0x00013c14                Motherboard::getCurrentError()
                0x00013c34                TIMER0_IRQHandler
                0x00013c64                TIMER1_IRQHandler
                0x00013da0                Motherboard::Motherboard()
                0x00013da0                Motherboard::Motherboard()
                0x00014050                Motherboard::reset()
                0x000141e4                Motherboard::getCurrentMicros()
                0x00014200                Motherboard::doInterrupt()
                0x0001423c                Motherboard::runMotherboardSlice()
 .text._ZN4UART12getSlaveUARTEv
                0x000142c0       0x14 build\Motherboard.o
                0x000142c0                UART::getSlaveUART()
 .text._ZN16StepperInterfaceC2Ev
                0x000142d4       0x4c build\Motherboard.o
                0x000142d4                StepperInterface::StepperInterface()
                0x000142d4                StepperInterface::StepperInterface()
 .text._ZN16StepperInterfaceC2ERK3PinS2_S2_S2_S2_
                0x00014320       0x64 build\Motherboard.o
                0x00014320                StepperInterface::StepperInterface(Pin const&, Pin const&, Pin const&, Pin const&, Pin const&)
                0x00014320                StepperInterface::StepperInterface(Pin const&, Pin const&, Pin const&, Pin const&, Pin const&)
 .text          0x00014384      0x28c build\PID.o
 .text          0x00014610      0x54c build\Packet.o
                0x00014610                _crc_ibutton_update
 .text          0x00014b5c      0x730 build\SDCard.o
                0x00014b5c                sdcard::openPartition()
                0x00014bcc                sdcard::openFilesys()
                0x00014bfc                sdcard::openRoot()
                0x00014c50                sdcard::initCard()
                0x00014d00                sdcard::directoryReset()
                0x00014d40                sdcard::directoryNextEntry(char*, unsigned char)
                0x00014e14                sdcard::findFileInDir(char const*, fat_dir_entry_struct*)
                0x00014e70                sdcard::openFile(char const*, fat_file_struct**)
                0x00014ec4                sdcard::deleteFile(char*)
                0x00014f0c                sdcard::createFile(char*)
                0x00014f40                sdcard::isPlaying()
                0x00014f54                sdcard::isCapturing()
                0x00014f68                sdcard::startCapture(char*)
                0x00015000                sdcard::capturePacket(Packet const&)
                0x00015058                sdcard::finishCapture()
                0x000150a4                sdcard::fetchNextByte()
                0x000150e4                sdcard::playbackHasNext()
                0x000150f8                sdcard::playbackNext()
                0x00015118                sdcard::startPlayback(char*)
                0x000151a4                sdcard::playbackRewind(unsigned char)
                0x000151d8                sdcard::finishPlayback()
                0x0001520c                sdcard::reset()
 .text          0x0001528c      0x360 build\StepperInterface.o
                0x0001528c                StepperInterface::setDirection(bool)
                0x000152bc                StepperInterface::step(bool)
                0x000152e0                StepperInterface::setEnabled(bool)
                0x0001530c                StepperInterface::isAtMaximum()
                0x00015358                StepperInterface::isAtMinimum()
                0x000153a4                StepperInterface::init(unsigned char)
 .text._ZN4Port6getPinEh
                0x000155ec       0x34 build\StepperInterface.o
                0x000155ec                Port::getPin(unsigned char)
 .text._ZN3Pin8getValueEv
                0x00015620       0x28 build\StepperInterface.o
                0x00015620                Pin::getValue()
 .text          0x00015648      0x66c build\Steppers.o
                0x00015648                steppers::isRunning()
                0x0001567c                steppers::init(Motherboard&)
                0x000156f0                steppers::abort()
                0x00015714                steppers::definePosition(Point const&)
                0x00015768                steppers::getPosition()
                0x0001579c                steppers::setHoldZ(bool)
                0x000157bc                steppers::setTarget(Point const&, long)
                0x00015908                steppers::setTargetNew(Point const&, long, unsigned char)
                0x00015a4c                steppers::startHoming(bool, unsigned char, unsigned long)
                0x00015b14                steppers::enableAxis(unsigned char, bool)
                0x00015b48                steppers::doInterrupt()
 .text._ZN8steppers4AxisC2Ev
                0x00015cb4       0x20 build\Steppers.o
                0x00015cb4                steppers::Axis::Axis()
                0x00015cb4                steppers::Axis::Axis()
 .text._ZN8steppers4AxisC2ER16StepperInterface
                0x00015cd4       0x24 build\Steppers.o
                0x00015cd4                steppers::Axis::Axis(StepperInterface&)
                0x00015cd4                steppers::Axis::Axis(StepperInterface&)
 .text._ZN8steppers4Axis9setTargetElb
                0x00015cf8       0x84 build\Steppers.o
                0x00015cf8                steppers::Axis::setTarget(long, bool)
 .text._ZN8steppers4Axis9setHomingEb
                0x00015d7c       0x30 build\Steppers.o
                0x00015d7c                steppers::Axis::setHoming(bool)
 .text._ZN8steppers4Axis14definePositionEl
                0x00015dac       0x1c build\Steppers.o
                0x00015dac                steppers::Axis::definePosition(long)
 .text._ZN8steppers4Axis13enableStepperEb
                0x00015dc8       0x24 build\Steppers.o
                0x00015dc8                steppers::Axis::enableStepper(bool)
 .text._ZN8steppers4Axis5resetEv
                0x00015dec       0x44 build\Steppers.o
                0x00015dec                steppers::Axis::reset()
 .text._ZN8steppers4Axis11doInterruptEl
                0x00015e30       0xcc build\Steppers.o
                0x00015e30                steppers::Axis::doInterrupt(long)
 .text._ZN8steppers4Axis8doHomingEl
                0x00015efc       0xf8 build\Steppers.o
                0x00015efc                steppers::Axis::doHoming(long)
 .text          0x00015ff4      0x10c build\Timeout.o
                0x00015ff4                Timeout::Timeout()
                0x00015ff4                Timeout::Timeout()
                0x0001601c                Timeout::start(unsigned long)
                0x00016058                Timeout::hasElapsed()
                0x000160b8                Timeout::hasLeft()
                0x000160e4                Timeout::abort()
 .text          0x00016100      0xa9c build\Tool.o
                0x000164b0                tool::getInPacket()
                0x000164c4                tool::getOutPacket()
                0x000164d8                tool::getSentPacketCount()
                0x000164ec                tool::getPacketFailureCount()
                0x00016500                tool::getRetryCount()
                0x00016514                tool::getNoiseByteCount()
                0x00016528                tool::getToolVersion()
                0x00016764                tool::setToolIndicatorLED()
                0x00016824                tool::reset()
                0x000168bc                tool::getLock()
                0x000168f4                tool::releaseLock()
                0x0001690c                tool::startTransaction()
                0x00016998                tool::isTransactionDone()
                0x000169b4                tool::runToolSlice()
 .text          0x00016b9c      0x378 build\UART.o
                0x00016b9c                UART::UART(unsigned char)
                0x00016b9c                UART::UART(unsigned char)
                0x00016cb0                UART::beginSend()
                0x00016d4c                UART::enable(bool)
                0x00016d98                UART::reset()
                0x00016dc0                USB_IRQHandler
                0x00016dcc                UART1_IRQHandler
 .text._Z6listenv
                0x00016f14       0x30 build\UART.o
                0x00016f14                listen()
 .text._Z5speakv
                0x00016f44       0x30 build\UART.o
                0x00016f44                speak()
 .text          0x00016f74        0x0 c:/progra~2/codesourcery/source~1/bin/../lib/gcc/arm-none-eabi/4.5.2/../../../../arm-none-eabi/lib/thumb2\libstdc++.a(si_class_type_info.o)
 .text._ZNK10__cxxabiv120__si_class_type_info11__do_upcastEPKNS_17__class_type_infoEPKvRNS1_15__upcast_resultE
                0x00016f74       0x28 c:/progra~2/codesourcery/source~1/bin/../lib/gcc/arm-none-eabi/4.5.2/../../../../arm-none-eabi/lib/thumb2\libstdc++.a(si_class_type_info.o)
                0x00016f74                __cxxabiv1::__si_class_type_info::__do_upcast(__cxxabiv1::__class_type_info const*, void const*, __cxxabiv1::__class_type_info::__upcast_result&) const
 .text._ZNK10__cxxabiv120__si_class_type_info12__do_dyncastEiNS_17__class_type_info10__sub_kindEPKS1_PKvS4_S6_RNS1_16__dyncast_resultE
                0x00016f9c       0x90 c:/progra~2/codesourcery/source~1/bin/../lib/gcc/arm-none-eabi/4.5.2/../../../../arm-none-eabi/lib/thumb2\libstdc++.a(si_class_type_info.o)
                0x00016f9c                __cxxabiv1::__si_class_type_info::__do_dyncast(int, __cxxabiv1::__class_type_info::__sub_kind, __cxxabiv1::__class_type_info const*, void const*, __cxxabiv1::__class_type_info const*, void const*, __cxxabiv1::__class_type_info::__dyncast_result&) const
 .text._ZNK10__cxxabiv120__si_class_type_info20__do_find_public_srcEiPKvPKNS_17__class_type_infoES2_
                0x0001702c       0x38 c:/progra~2/codesourcery/source~1/bin/../lib/gcc/arm-none-eabi/4.5.2/../../../../arm-none-eabi/lib/thumb2\libstdc++.a(si_class_type_info.o)
                0x0001702c                __cxxabiv1::__si_class_type_info::__do_find_public_src(int, void const*, __cxxabiv1::__class_type_info const*, void const*) const
 .text._ZN10__cxxabiv120__si_class_type_infoD2Ev
                0x00017064       0x14 c:/progra~2/codesourcery/source~1/bin/../lib/gcc/arm-none-eabi/4.5.2/../../../../arm-none-eabi/lib/thumb2\libstdc++.a(si_class_type_info.o)
                0x00017064                __cxxabiv1::__si_class_type_info::~__si_class_type_info()
                0x00017064                __cxxabiv1::__si_class_type_info::~__si_class_type_info()
 .text._ZN10__cxxabiv120__si_class_type_infoD0Ev
                0x00017078       0x1c c:/progra~2/codesourcery/source~1/bin/../lib/gcc/arm-none-eabi/4.5.2/../../../../arm-none-eabi/lib/thumb2\libstdc++.a(si_class_type_info.o)
                0x00017078                __cxxabiv1::__si_class_type_info::~__si_class_type_info()
 .text          0x00017094        0x0 c:/progra~2/codesourcery/source~1/bin/../lib/gcc/arm-none-eabi/4.5.2/../../../../arm-none-eabi/lib/thumb2\libstdc++.a(pure.o)
 .text.__cxa_pure_virtual
                0x00017094       0x18 c:/progra~2/codesourcery/source~1/bin/../lib/gcc/arm-none-eabi/4.5.2/../../../../arm-none-eabi/lib/thumb2\libstdc++.a(pure.o)
                0x00017094                __cxa_pure_virtual
 .text          0x000170ac        0x0 c:/progra~2/codesourcery/source~1/bin/../lib/gcc/arm-none-eabi/4.5.2/../../../../arm-none-eabi/lib/thumb2\libstdc++.a(class_type_info.o)
 .text._ZNK10__cxxabiv117__class_type_info11__do_upcastEPKS0_PPv
                0x000170ac       0x38 c:/progra~2/codesourcery/source~1/bin/../lib/gcc/arm-none-eabi/4.5.2/../../../../arm-none-eabi/lib/thumb2\libstdc++.a(class_type_info.o)
                0x000170ac                __cxxabiv1::__class_type_info::__do_upcast(__cxxabiv1::__class_type_info const*, void**) const
 .text._ZNK10__cxxabiv117__class_type_info20__do_find_public_srcEiPKvPKS0_S2_
                0x000170e4        0xc c:/progra~2/codesourcery/source~1/bin/../lib/gcc/arm-none-eabi/4.5.2/../../../../arm-none-eabi/lib/thumb2\libstdc++.a(class_type_info.o)
                0x000170e4                __cxxabiv1::__class_type_info::__do_find_public_src(int, void const*, __cxxabiv1::__class_type_info const*, void const*) const
 .text._ZNK10__cxxabiv117__class_type_info11__do_upcastEPKS0_PKvRNS0_15__upcast_resultE
                0x000170f0       0x1c c:/progra~2/codesourcery/source~1/bin/../lib/gcc/arm-none-eabi/4.5.2/../../../../arm-none-eabi/lib/thumb2\libstdc++.a(class_type_info.o)
                0x000170f0                __cxxabiv1::__class_type_info::__do_upcast(__cxxabiv1::__class_type_info const*, void const*, __cxxabiv1::__class_type_info::__upcast_result&) const
 .text._ZNK10__cxxabiv117__class_type_info12__do_dyncastEiNS0_10__sub_kindEPKS0_PKvS3_S5_RNS0_16__dyncast_resultE
                0x0001710c       0x3c c:/progra~2/codesourcery/source~1/bin/../lib/gcc/arm-none-eabi/4.5.2/../../../../arm-none-eabi/lib/thumb2\libstdc++.a(class_type_info.o)
                0x0001710c                __cxxabiv1::__class_type_info::__do_dyncast(int, __cxxabiv1::__class_type_info::__sub_kind, __cxxabiv1::__class_type_info const*, void const*, __cxxabiv1::__class_type_info const*, void const*, __cxxabiv1::__class_type_info::__dyncast_result&) const
 .text._ZNK10__cxxabiv117__class_type_info10__do_catchEPKSt9type_infoPPvj
                0x00017148       0x28 c:/progra~2/codesourcery/source~1/bin/../lib/gcc/arm-none-eabi/4.5.2/../../../../arm-none-eabi/lib/thumb2\libstdc++.a(class_type_info.o)
                0x00017148                __cxxabiv1::__class_type_info::__do_catch(std::type_info const*, void**, unsigned int) const
 .text._ZN10__cxxabiv117__class_type_infoD2Ev
                0x00017170       0x14 c:/progra~2/codesourcery/source~1/bin/../lib/gcc/arm-none-eabi/4.5.2/../../../../arm-none-eabi/lib/thumb2\libstdc++.a(class_type_info.o)
                0x00017170                __cxxabiv1::__class_type_info::~__class_type_info()
                0x00017170                __cxxabiv1::__class_type_info::~__class_type_info()
 .text._ZN10__cxxabiv117__class_type_infoD0Ev
                0x00017184       0x1c c:/progra~2/codesourcery/source~1/bin/../lib/gcc/arm-none-eabi/4.5.2/../../../../arm-none-eabi/lib/thumb2\libstdc++.a(class_type_info.o)
                0x00017184                __cxxabiv1::__class_type_info::~__class_type_info()
 .text          0x000171a0        0x0 c:/progra~2/codesourcery/source~1/bin/../lib/gcc/arm-none-eabi/4.5.2/../../../../arm-none-eabi/lib/thumb2\libstdc++.a(tinfo.o)
 .text._ZNSt9type_infoD2Ev
                0x000171a0        0xc c:/progra~2/codesourcery/source~1/bin/../lib/gcc/arm-none-eabi/4.5.2/../../../../arm-none-eabi/lib/thumb2\libstdc++.a(tinfo.o)
                0x000171a0                std::type_info::~type_info()
                0x000171a0                std::type_info::~type_info()
 .text._ZNKSt9type_info14__is_pointer_pEv
                0x000171ac        0x4 c:/progra~2/codesourcery/source~1/bin/../lib/gcc/arm-none-eabi/4.5.2/../../../../arm-none-eabi/lib/thumb2\libstdc++.a(tinfo.o)
                0x000171ac                std::type_info::__is_pointer_p() const
 .text._ZNKSt9type_info15__is_function_pEv
                0x000171b0        0x4 c:/progra~2/codesourcery/source~1/bin/../lib/gcc/arm-none-eabi/4.5.2/../../../../arm-none-eabi/lib/thumb2\libstdc++.a(tinfo.o)
                0x000171b0                std::type_info::__is_function_p() const
 .text._ZNKSt9type_info11__do_upcastEPKN10__cxxabiv117__class_type_infoEPPv
                0x000171b4        0x4 c:/progra~2/codesourcery/source~1/bin/../lib/gcc/arm-none-eabi/4.5.2/../../../../arm-none-eabi/lib/thumb2\libstdc++.a(tinfo.o)
                0x000171b4                std::type_info::__do_upcast(__cxxabiv1::__class_type_info const*, void**) const
 .text._ZNSt9type_infoD0Ev
                0x000171b8       0x14 c:/progra~2/codesourcery/source~1/bin/../lib/gcc/arm-none-eabi/4.5.2/../../../../arm-none-eabi/lib/thumb2\libstdc++.a(tinfo.o)
                0x000171b8                std::type_info::~type_info()
 .text._ZNKSt9type_infoeqERKS_
                0x000171cc       0x3c c:/progra~2/codesourcery/source~1/bin/../lib/gcc/arm-none-eabi/4.5.2/../../../../arm-none-eabi/lib/thumb2\libstdc++.a(tinfo.o)
                0x000171cc                std::type_info::operator==(std::type_info const&) const
 .text._ZNKSt9type_info10__do_catchEPKS_PPvj
                0x00017208        0x4 c:/progra~2/codesourcery/source~1/bin/../lib/gcc/arm-none-eabi/4.5.2/../../../../arm-none-eabi/lib/thumb2\libstdc++.a(tinfo.o)
                0x00017208                std::type_info::__do_catch(std::type_info const*, void**, unsigned int) const
 .text          0x0001720c        0x0 c:/progra~2/codesourcery/source~1/bin/../lib/gcc/arm-none-eabi/4.5.2/../../../../arm-none-eabi/lib/thumb2\libstdc++.a(eh_terminate.o)
 .text._ZN10__cxxabiv111__terminateEPFvvE
                0x0001720c       0x28 c:/progra~2/codesourcery/source~1/bin/../lib/gcc/arm-none-eabi/4.5.2/../../../../arm-none-eabi/lib/thumb2\libstdc++.a(eh_terminate.o)
                0x0001720c                __cxxabiv1::__terminate(void (*)())
 .text._ZSt9terminatev
                0x00017234       0x10 c:/progra~2/codesourcery/source~1/bin/../lib/gcc/arm-none-eabi/4.5.2/../../../../arm-none-eabi/lib/thumb2\libstdc++.a(eh_terminate.o)
                0x00017234                std::terminate()
 .text._ZN10__cxxabiv112__unexpectedEPFvvE
                0x00017244        0x8 c:/progra~2/codesourcery/source~1/bin/../lib/gcc/arm-none-eabi/4.5.2/../../../../arm-none-eabi/lib/thumb2\libstdc++.a(eh_terminate.o)
                0x00017244                __cxxabiv1::__unexpected(void (*)())
 .text._ZSt10unexpectedv
                0x0001724c       0x14 c:/progra~2/codesourcery/source~1/bin/../lib/gcc/arm-none-eabi/4.5.2/../../../../arm-none-eabi/lib/thumb2\libstdc++.a(eh_terminate.o)
                0x0001724c                std::unexpected()
 .text._ZSt13set_terminatePFvvE
                0x00017260       0x10 c:/progra~2/codesourcery/source~1/bin/../lib/gcc/arm-none-eabi/4.5.2/../../../../arm-none-eabi/lib/thumb2\libstdc++.a(eh_terminate.o)
                0x00017260                std::set_terminate(void (*)())
 .text._ZSt14set_unexpectedPFvvE
                0x00017270       0x10 c:/progra~2/codesourcery/source~1/bin/../lib/gcc/arm-none-eabi/4.5.2/../../../../arm-none-eabi/lib/thumb2\libstdc++.a(eh_terminate.o)
                0x00017270                std::set_unexpected(void (*)())
 .text          0x00017280        0x0 c:/progra~2/codesourcery/source~1/bin/../lib/gcc/arm-none-eabi/4.5.2/../../../../arm-none-eabi/lib/thumb2\libstdc++.a(eh_call.o)
 .text.__cxa_call_terminate
                0x00017280       0x50 c:/progra~2/codesourcery/source~1/bin/../lib/gcc/arm-none-eabi/4.5.2/../../../../arm-none-eabi/lib/thumb2\libstdc++.a(eh_call.o)
                0x00017280                __cxa_call_terminate
 .text.__cxa_call_unexpected
                0x000172d0      0x130 c:/progra~2/codesourcery/source~1/bin/../lib/gcc/arm-none-eabi/4.5.2/../../../../arm-none-eabi/lib/thumb2\libstdc++.a(eh_call.o)
                0x000172d0                __cxa_call_unexpected
 .text          0x00017400        0x0 c:/progra~2/codesourcery/source~1/bin/../lib/gcc/arm-none-eabi/4.5.2/../../../../arm-none-eabi/lib/thumb2\libstdc++.a(eh_term_handler.o)
 .text          0x00017400        0x0 c:/progra~2/codesourcery/source~1/bin/../lib/gcc/arm-none-eabi/4.5.2/../../../../arm-none-eabi/lib/thumb2\libstdc++.a(eh_personality.o)
 .text._ZL12read_sleb128PKhPl
                0x00017400       0x3c c:/progra~2/codesourcery/source~1/bin/../lib/gcc/arm-none-eabi/4.5.2/../../../../arm-none-eabi/lib/thumb2\libstdc++.a(eh_personality.o)
 .text._ZL28read_encoded_value_with_basehjPKhPj
                0x0001743c       0xac c:/progra~2/codesourcery/source~1/bin/../lib/gcc/arm-none-eabi/4.5.2/../../../../arm-none-eabi/lib/thumb2\libstdc++.a(eh_personality.o)
 .text._ZL21base_of_encoded_valuehP15_Unwind_Context
                0x000174e8       0x4c c:/progra~2/codesourcery/source~1/bin/../lib/gcc/arm-none-eabi/4.5.2/../../../../arm-none-eabi/lib/thumb2\libstdc++.a(eh_personality.o)
 .text._ZL17parse_lsda_headerP15_Unwind_ContextPKhP16lsda_header_info
                0x00017534       0x8c c:/progra~2/codesourcery/source~1/bin/../lib/gcc/arm-none-eabi/4.5.2/../../../../arm-none-eabi/lib/thumb2\libstdc++.a(eh_personality.o)
 .text.__gxx_personality_v0
                0x000175c0      0x3ec c:/progra~2/codesourcery/source~1/bin/../lib/gcc/arm-none-eabi/4.5.2/../../../../arm-none-eabi/lib/thumb2\libstdc++.a(eh_personality.o)
                0x000175c0                __gxx_personality_v0
 .text          0x000179ac        0x0 c:/progra~2/codesourcery/source~1/bin/../lib/gcc/arm-none-eabi/4.5.2/../../../../arm-none-eabi/lib/thumb2\libstdc++.a(eh_throw.o)
 .text._ZL23__gxx_exception_cleanup19_Unwind_Reason_CodeP21_Unwind_Control_Block
                0x000179ac       0x4c c:/progra~2/codesourcery/source~1/bin/../lib/gcc/arm-none-eabi/4.5.2/../../../../arm-none-eabi/lib/thumb2\libstdc++.a(eh_throw.o)
 .text.__cxa_throw
                0x000179f8       0x80 c:/progra~2/codesourcery/source~1/bin/../lib/gcc/arm-none-eabi/4.5.2/../../../../arm-none-eabi/lib/thumb2\libstdc++.a(eh_throw.o)
                0x000179f8                __cxa_throw
 .text.__cxa_rethrow
                0x00017a78       0x78 c:/progra~2/codesourcery/source~1/bin/../lib/gcc/arm-none-eabi/4.5.2/../../../../arm-none-eabi/lib/thumb2\libstdc++.a(eh_throw.o)
                0x00017a78                __cxa_rethrow
 .text          0x00017af0        0x0 c:/progra~2/codesourcery/source~1/bin/../lib/gcc/arm-none-eabi/4.5.2/../../../../arm-none-eabi/lib/thumb2\libstdc++.a(eh_unex_handler.o)
 .text          0x00017af0        0x0 c:/progra~2/codesourcery/source~1/bin/../lib/gcc/arm-none-eabi/4.5.2/../../../../arm-none-eabi/lib/thumb2\libstdc++.a(eh_globals.o)
 .text.__cxa_get_globals_fast
                0x00017af0        0xc c:/progra~2/codesourcery/source~1/bin/../lib/gcc/arm-none-eabi/4.5.2/../../../../arm-none-eabi/lib/thumb2\libstdc++.a(eh_globals.o)
                0x00017af0                __cxa_get_globals_fast
 .text.__cxa_get_globals
                0x00017afc        0xc c:/progra~2/codesourcery/source~1/bin/../lib/gcc/arm-none-eabi/4.5.2/../../../../arm-none-eabi/lib/thumb2\libstdc++.a(eh_globals.o)
                0x00017afc                __cxa_get_globals
 .text          0x00017b08        0x0 c:/progra~2/codesourcery/source~1/bin/../lib/gcc/arm-none-eabi/4.5.2/../../../../arm-none-eabi/lib/thumb2\libstdc++.a(eh_catch.o)
 .text.__cxa_get_exception_ptr
                0x00017b08        0x4 c:/progra~2/codesourcery/source~1/bin/../lib/gcc/arm-none-eabi/4.5.2/../../../../arm-none-eabi/lib/thumb2\libstdc++.a(eh_catch.o)
                0x00017b08                __cxa_get_exception_ptr
 .text.__cxa_begin_catch
                0x00017b0c       0x9c c:/progra~2/codesourcery/source~1/bin/../lib/gcc/arm-none-eabi/4.5.2/../../../../arm-none-eabi/lib/thumb2\libstdc++.a(eh_catch.o)
                0x00017b0c                __cxa_begin_catch
 .text.__cxa_end_catch
                0x00017ba8       0x98 c:/progra~2/codesourcery/source~1/bin/../lib/gcc/arm-none-eabi/4.5.2/../../../../arm-none-eabi/lib/thumb2\libstdc++.a(eh_catch.o)
                0x00017ba8                __cxa_end_catch
 .text._ZSt18uncaught_exceptionv
                0x00017c40       0x10 c:/progra~2/codesourcery/source~1/bin/../lib/gcc/arm-none-eabi/4.5.2/../../../../arm-none-eabi/lib/thumb2\libstdc++.a(eh_catch.o)
                0x00017c40                std::uncaught_exception()
 .text          0x00017c50        0x0 c:/progra~2/codesourcery/source~1/bin/../lib/gcc/arm-none-eabi/4.5.2/../../../../arm-none-eabi/lib/thumb2\libstdc++.a(vterminate.o)
 .text._ZN9__gnu_cxx27__verbose_terminate_handlerEv
                0x00017c50      0x148 c:/progra~2/codesourcery/source~1/bin/../lib/gcc/arm-none-eabi/4.5.2/../../../../arm-none-eabi/lib/thumb2\libstdc++.a(vterminate.o)
                0x00017c50                __gnu_cxx::__verbose_terminate_handler()
 .text          0x00017d98        0x0 c:/progra~2/codesourcery/source~1/bin/../lib/gcc/arm-none-eabi/4.5.2/../../../../arm-none-eabi/lib/thumb2\libstdc++.a(eh_exception.o)
 .text._ZNSt9exceptionD2Ev
                0x00017d98        0xc c:/progra~2/codesourcery/source~1/bin/../lib/gcc/arm-none-eabi/4.5.2/../../../../arm-none-eabi/lib/thumb2\libstdc++.a(eh_exception.o)
                0x00017d98                std::exception::~exception()
                0x00017d98                std::exception::~exception()
 .text._ZNSt13bad_exceptionD2Ev
                0x00017da4        0xc c:/progra~2/codesourcery/source~1/bin/../lib/gcc/arm-none-eabi/4.5.2/../../../../arm-none-eabi/lib/thumb2\libstdc++.a(eh_exception.o)
                0x00017da4                std::bad_exception::~bad_exception()
                0x00017da4                std::bad_exception::~bad_exception()
 .text._ZN10__cxxabiv115__forced_unwindD2Ev
                0x00017db0        0xc c:/progra~2/codesourcery/source~1/bin/../lib/gcc/arm-none-eabi/4.5.2/../../../../arm-none-eabi/lib/thumb2\libstdc++.a(eh_exception.o)
                0x00017db0                __cxxabiv1::__forced_unwind::~__forced_unwind()
                0x00017db0                __cxxabiv1::__forced_unwind::~__forced_unwind()
 .text._ZN10__cxxabiv119__foreign_exceptionD2Ev
                0x00017dbc        0xc c:/progra~2/codesourcery/source~1/bin/../lib/gcc/arm-none-eabi/4.5.2/../../../../arm-none-eabi/lib/thumb2\libstdc++.a(eh_exception.o)
                0x00017dbc                __cxxabiv1::__foreign_exception::~__foreign_exception()
                0x00017dbc                __cxxabiv1::__foreign_exception::~__foreign_exception()
 .text._ZNKSt9exception4whatEv
                0x00017dc8        0xc c:/progra~2/codesourcery/source~1/bin/../lib/gcc/arm-none-eabi/4.5.2/../../../../arm-none-eabi/lib/thumb2\libstdc++.a(eh_exception.o)
                0x00017dc8                std::exception::what() const
 .text._ZNKSt13bad_exception4whatEv
                0x00017dd4        0xc c:/progra~2/codesourcery/source~1/bin/../lib/gcc/arm-none-eabi/4.5.2/../../../../arm-none-eabi/lib/thumb2\libstdc++.a(eh_exception.o)
                0x00017dd4                std::bad_exception::what() const
 .text._ZN10__cxxabiv119__foreign_exceptionD0Ev
                0x00017de0       0x14 c:/progra~2/codesourcery/source~1/bin/../lib/gcc/arm-none-eabi/4.5.2/../../../../arm-none-eabi/lib/thumb2\libstdc++.a(eh_exception.o)
                0x00017de0                __cxxabiv1::__foreign_exception::~__foreign_exception()
 .text._ZN10__cxxabiv115__forced_unwindD0Ev
                0x00017df4       0x14 c:/progra~2/codesourcery/source~1/bin/../lib/gcc/arm-none-eabi/4.5.2/../../../../arm-none-eabi/lib/thumb2\libstdc++.a(eh_exception.o)
                0x00017df4                __cxxabiv1::__forced_unwind::~__forced_unwind()
 .text._ZNSt13bad_exceptionD0Ev
                0x00017e08       0x14 c:/progra~2/codesourcery/source~1/bin/../lib/gcc/arm-none-eabi/4.5.2/../../../../arm-none-eabi/lib/thumb2\libstdc++.a(eh_exception.o)
                0x00017e08                std::bad_exception::~bad_exception()
 .text._ZNSt9exceptionD0Ev
                0x00017e1c       0x14 c:/progra~2/codesourcery/source~1/bin/../lib/gcc/arm-none-eabi/4.5.2/../../../../arm-none-eabi/lib/thumb2\libstdc++.a(eh_exception.o)
                0x00017e1c                std::exception::~exception()
 .text          0x00017e30        0x0 c:/progra~2/codesourcery/source~1/bin/../lib/gcc/arm-none-eabi/4.5.2/../../../../arm-none-eabi/lib/thumb2\libstdc++.a(eh_type.o)
 .text.__cxa_current_exception_type
                0x00017e30       0x1c c:/progra~2/codesourcery/source~1/bin/../lib/gcc/arm-none-eabi/4.5.2/../../../../arm-none-eabi/lib/thumb2\libstdc++.a(eh_type.o)
                0x00017e30                __cxa_current_exception_type
 .text          0x00017e4c        0xc c:/progra~2/codesourcery/source~1/bin/../lib/gcc/arm-none-eabi/4.5.2/../../../../arm-none-eabi/lib/thumb2\libstdc++.a(eh_arm.o)
                0x00017e4c                __cxa_end_cleanup
 .text.__cxa_type_match
                0x00017e58       0xd0 c:/progra~2/codesourcery/source~1/bin/../lib/gcc/arm-none-eabi/4.5.2/../../../../arm-none-eabi/lib/thumb2\libstdc++.a(eh_arm.o)
                0x00017e58                __cxa_type_match
 .text.__cxa_begin_cleanup
                0x00017f28       0x70 c:/progra~2/codesourcery/source~1/bin/../lib/gcc/arm-none-eabi/4.5.2/../../../../arm-none-eabi/lib/thumb2\libstdc++.a(eh_arm.o)
                0x00017f28                __cxa_begin_cleanup
 .text.__gnu_end_cleanup
                0x00017f98       0x7c c:/progra~2/codesourcery/source~1/bin/../lib/gcc/arm-none-eabi/4.5.2/../../../../arm-none-eabi/lib/thumb2\libstdc++.a(eh_arm.o)
                0x00017f98                __gnu_end_cleanup
 .text          0x00018014        0x0 c:/progra~2/codesourcery/source~1/bin/../lib/gcc/arm-none-eabi/4.5.2/../../../../arm-none-eabi/lib/thumb2\libstdc++.a(eh_alloc.o)
 .text.__cxa_allocate_exception
                0x00018014       0x7c c:/progra~2/codesourcery/source~1/bin/../lib/gcc/arm-none-eabi/4.5.2/../../../../arm-none-eabi/lib/thumb2\libstdc++.a(eh_alloc.o)
                0x00018014                __cxa_allocate_exception
 .text.__cxa_free_exception
                0x00018090       0x3c c:/progra~2/codesourcery/source~1/bin/../lib/gcc/arm-none-eabi/4.5.2/../../../../arm-none-eabi/lib/thumb2\libstdc++.a(eh_alloc.o)
                0x00018090                __cxa_free_exception
 .text.__cxa_allocate_dependent_exception
                0x000180cc       0x78 c:/progra~2/codesourcery/source~1/bin/../lib/gcc/arm-none-eabi/4.5.2/../../../../arm-none-eabi/lib/thumb2\libstdc++.a(eh_alloc.o)
                0x000180cc                __cxa_allocate_dependent_exception
 .text.__cxa_free_dependent_exception
                0x00018144       0x4c c:/progra~2/codesourcery/source~1/bin/../lib/gcc/arm-none-eabi/4.5.2/../../../../arm-none-eabi/lib/thumb2\libstdc++.a(eh_alloc.o)
                0x00018144                __cxa_free_dependent_exception
 .text._GLOBAL__I___cxa_allocate_exception
                0x00018190        0x4 c:/progra~2/codesourcery/source~1/bin/../lib/gcc/arm-none-eabi/4.5.2/../../../../arm-none-eabi/lib/thumb2\libstdc++.a(eh_alloc.o)
 .text          0x00018194     0x912c c:/progra~2/codesourcery/source~1/bin/../lib/gcc/arm-none-eabi/4.5.2/../../../../arm-none-eabi/lib/thumb2\libstdc++.a(cp-demangle.o)
                0x000211b8                __cxa_demangle
                0x00021294                __gcclibcxx_demangle_callback
 .text          0x000212c0      0x21c c:/progra~2/codesourcery/source~1/bin/../lib/gcc/arm-none-eabi/4.5.2/thumb2\libgcc.a(_arm_addsubsf3.o)
                0x000212c0                __aeabi_frsub
                0x000212c8                __subsf3
                0x000212c8                __aeabi_fsub
                0x000212cc                __aeabi_fadd
                0x000212cc                __addsf3
                0x0002142c                __aeabi_ui2f
                0x0002142c                __floatunsisf
                0x00021434                __aeabi_i2f
                0x00021434                __floatsisf
                0x00021450                __aeabi_ul2f
                0x00021450                __floatundisf
                0x00021460                __aeabi_l2f
                0x00021460                __floatdisf
 .text          0x000214dc      0x2a0 c:/progra~2/codesourcery/source~1/bin/../lib/gcc/arm-none-eabi/4.5.2/thumb2\libgcc.a(_arm_muldivsf3.o)
                0x000214dc                __mulsf3
                0x000214dc                __aeabi_fmul
                0x00021644                __aeabi_fdiv
                0x00021644                __divsf3
 .text          0x0002177c       0x4c c:/progra~2/codesourcery/source~1/bin/../lib/gcc/arm-none-eabi/4.5.2/thumb2\libgcc.a(_arm_fixsfsi.o)
                0x0002177c                __aeabi_f2iz
                0x0002177c                __fixsfsi
 .text          0x000217c8       0x2c c:/progra~2/codesourcery/source~1/bin/../lib/gcc/arm-none-eabi/4.5.2/thumb2\libgcc.a(_aeabi_uldivmod.o)
                0x000217c8                __aeabi_uldivmod
 .text          0x000217f4       0x60 c:/progra~2/codesourcery/source~1/bin/../lib/gcc/arm-none-eabi/4.5.2/thumb2\libgcc.a(bpabi.o)
                0x000217f4                __gnu_ldivmod_helper
                0x00021824                __gnu_uldivmod_helper
 .text          0x00021854      0xc38 c:/progra~2/codesourcery/source~1/bin/../lib/gcc/arm-none-eabi/4.5.2/thumb2\libgcc.a(unwind-arm.o)
                0x00021b30                _Unwind_VRS_Get
                0x00021b7c                _Unwind_VRS_Set
                0x00021f18                __aeabi_unwind_cpp_pr2
                0x00021f1c                __aeabi_unwind_cpp_pr1
                0x00021f20                __aeabi_unwind_cpp_pr0
                0x00021f24                _Unwind_VRS_Pop
                0x0002230c                _Unwind_GetCFA
                0x00022310                __gnu_Unwind_RaiseException
                0x00022380                __gnu_Unwind_ForcedUnwind
                0x00022394                __gnu_Unwind_Resume
                0x000223d0                __gnu_Unwind_Resume_or_Rethrow
                0x000223e8                _Unwind_Complete
                0x000223ec                _Unwind_DeleteException
                0x000223fc                __gnu_Unwind_Backtrace
 .text          0x0002248c      0x1ac c:/progra~2/codesourcery/source~1/bin/../lib/gcc/arm-none-eabi/4.5.2/thumb2\libgcc.a(libunwind.o)
                0x0002248c                __restore_core_regs
                0x0002248c                restore_core_regs
                0x000224a4                __gnu_Unwind_Restore_VFP
                0x000224ac                __gnu_Unwind_Save_VFP
                0x000224b4                __gnu_Unwind_Restore_VFP_D
                0x000224bc                __gnu_Unwind_Save_VFP_D
                0x000224c4                __gnu_Unwind_Restore_VFP_D_16_to_31
                0x000224cc                __gnu_Unwind_Save_VFP_D_16_to_31
                0x000224d4                __gnu_Unwind_Restore_WMMXD
                0x00022518                __gnu_Unwind_Save_WMMXD
                0x0002255c                __gnu_Unwind_Restore_WMMXC
                0x00022570                __gnu_Unwind_Save_WMMXC
                0x00022584                ___Unwind_RaiseException
                0x00022584                _Unwind_RaiseException
                0x000225a8                _Unwind_Resume
                0x000225a8                ___Unwind_Resume
                0x000225cc                _Unwind_Resume_or_Rethrow
                0x000225cc                ___Unwind_Resume_or_Rethrow
                0x000225f0                _Unwind_ForcedUnwind
                0x000225f0                ___Unwind_ForcedUnwind
                0x00022614                ___Unwind_Backtrace
                0x00022614                _Unwind_Backtrace
 .text          0x00022638      0x3c0 c:/progra~2/codesourcery/source~1/bin/../lib/gcc/arm-none-eabi/4.5.2/thumb2\libgcc.a(pr-support.o)
                0x0002268c                __gnu_unwind_execute
                0x0002299c                __gnu_unwind_frame
                0x000229c8                _Unwind_GetRegionStart
                0x000229d4                _Unwind_GetLanguageSpecificData
                0x000229e8                _Unwind_GetDataRelBase
                0x000229f0                _Unwind_GetTextRelBase
 .text          0x000229f8        0x4 c:/progra~2/codesourcery/source~1/bin/../lib/gcc/arm-none-eabi/4.5.2/thumb2\libgcc.a(_dvmd_tls.o)
                0x000229f8                __aeabi_idiv0
                0x000229f8                __aeabi_ldiv0
 .text          0x000229fc      0x360 c:/progra~2/codesourcery/source~1/bin/../lib/gcc/arm-none-eabi/4.5.2/thumb2\libgcc.a(_divdi3.o)
                0x000229fc                __divdi3
 .text          0x00022d5c      0x308 c:/progra~2/codesourcery/source~1/bin/../lib/gcc/arm-none-eabi/4.5.2/thumb2\libgcc.a(_udivdi3.o)
                0x00022d5c                __udivdi3
 *fill*         0x00023064        0x4 00
 .text          0x00023068      0x278 c:/progra~2/codesourcery/source~1/bin/../lib/gcc/arm-none-eabi/4.5.2/thumb2\libgcc.a(_udivsi3.o)
                0x00023068                __aeabi_uidiv
                0x00023068                __udivsi3
                0x000232c4                __aeabi_uidivmod
 .text          0x000232e0       0x10 c:/progra~2/codesourcery/source~1/bin/../lib/gcc/arm-none-eabi/4.5.2/../../../../arm-none-eabi/lib/thumb2\libc.a(lib_a-abort.o)
                0x000232e0                abort
 .text          0x000232f0       0xac c:/progra~2/codesourcery/source~1/bin/../lib/gcc/arm-none-eabi/4.5.2/../../../../arm-none-eabi/lib/thumb2\libc.a(lib_a-fputc.o)
                0x000232f0                _fputc_r
                0x00023344                fputc
 .text          0x0002339c       0x90 c:/progra~2/codesourcery/source~1/bin/../lib/gcc/arm-none-eabi/4.5.2/../../../../arm-none-eabi/lib/thumb2\libc.a(lib_a-fputs.o)
                0x0002339c                _fputs_r
                0x0002341c                fputs
 .text          0x0002342c      0x338 c:/progra~2/codesourcery/source~1/bin/../lib/gcc/arm-none-eabi/4.5.2/../../../../arm-none-eabi/lib/thumb2\libc.a(lib_a-fvwrite.o)
                0x0002342c                __sfvwrite_r
 .text          0x00023764       0xc0 c:/progra~2/codesourcery/source~1/bin/../lib/gcc/arm-none-eabi/4.5.2/../../../../arm-none-eabi/lib/thumb2\libc.a(lib_a-fwrite.o)
                0x00023764                _fwrite_r
                0x00023800                fwrite
 .text          0x00023824        0x0 c:/progra~2/codesourcery/source~1/bin/../lib/gcc/arm-none-eabi/4.5.2/../../../../arm-none-eabi/lib/thumb2\libc.a(lib_a-impure.o)
 .text          0x00023824       0x20 c:/progra~2/codesourcery/source~1/bin/../lib/gcc/arm-none-eabi/4.5.2/../../../../arm-none-eabi/lib/thumb2\libc.a(lib_a-malloc.o)
                0x00023824                malloc
                0x00023834                free
 .text          0x00023844      0x57c c:/progra~2/codesourcery/source~1/bin/../lib/gcc/arm-none-eabi/4.5.2/../../../../arm-none-eabi/lib/thumb2\libc.a(lib_a-mallocr.o)
                0x00023844                _malloc_r
 .text          0x00023dc0       0x8c c:/progra~2/codesourcery/source~1/bin/../lib/gcc/arm-none-eabi/4.5.2/../../../../arm-none-eabi/lib/thumb2\libc.a(lib_a-memchr.o)
                0x00023dc0                memchr
 .text          0x00023e4c       0x64 c:/progra~2/codesourcery/source~1/bin/../lib/gcc/arm-none-eabi/4.5.2/../../../../arm-none-eabi/lib/thumb2\libc.a(lib_a-memcmp.o)
                0x00023e4c                memcmp
 .text          0x00023eb0      0x150 c:/progra~2/codesourcery/source~1/bin/../lib/gcc/arm-none-eabi/4.5.2/../../../../arm-none-eabi/lib/thumb2\libc.a(lib_a-memcpy.o)
                0x00023eb0                memcpy
 .text          0x00024000       0xb4 c:/progra~2/codesourcery/source~1/bin/../lib/gcc/arm-none-eabi/4.5.2/../../../../arm-none-eabi/lib/thumb2\libc.a(lib_a-memmove.o)
                0x00024000                memmove
 .text          0x000240b4       0xb4 c:/progra~2/codesourcery/source~1/bin/../lib/gcc/arm-none-eabi/4.5.2/../../../../arm-none-eabi/lib/thumb2\libc.a(lib_a-memset.o)
                0x000240b4                memset
 .text          0x00024168        0x8 c:/progra~2/codesourcery/source~1/bin/../lib/gcc/arm-none-eabi/4.5.2/../../../../arm-none-eabi/lib/thumb2\libc.a(lib_a-mlock.o)
                0x00024168                __malloc_lock
                0x0002416c                __malloc_unlock
 .text          0x00024170      0x138 c:/progra~2/codesourcery/source~1/bin/../lib/gcc/arm-none-eabi/4.5.2/../../../../arm-none-eabi/lib/thumb2\libc.a(lib_a-putc.o)
                0x00024170                _putc_r
                0x00024200                putc
 .text          0x000242a8      0x100 c:/progra~2/codesourcery/source~1/bin/../lib/gcc/arm-none-eabi/4.5.2/../../../../arm-none-eabi/lib/thumb2\libc.a(lib_a-rand.o)
                0x000242a8                srand
                0x00024304                rand
 .text          0x000243a8       0x14 c:/progra~2/codesourcery/source~1/bin/../lib/gcc/arm-none-eabi/4.5.2/../../../../arm-none-eabi/lib/thumb2\libc.a(lib_a-realloc.o)
                0x000243a8                realloc
 .text          0x000243bc      0x41c c:/progra~2/codesourcery/source~1/bin/../lib/gcc/arm-none-eabi/4.5.2/../../../../arm-none-eabi/lib/thumb2\libc.a(lib_a-reallocr.o)
                0x000243bc                _realloc_r
 .text          0x000247d8      0x118 c:/progra~2/codesourcery/source~1/bin/../lib/gcc/arm-none-eabi/4.5.2/../../../../arm-none-eabi/lib/thumb2\libc.a(lib_a-reent.o)
                0x000247d8                cleanup_glue
                0x000247f4                _reclaim_reent
                0x000248b4                _wrapup_reent
 .text          0x000248f0       0x28 c:/progra~2/codesourcery/source~1/bin/../lib/gcc/arm-none-eabi/4.5.2/../../../../arm-none-eabi/lib/thumb2\libc.a(lib_a-sbrkr.o)
                0x000248f0                _sbrk_r
 .text          0x00024918      0x154 c:/progra~2/codesourcery/source~1/bin/../lib/gcc/arm-none-eabi/4.5.2/../../../../arm-none-eabi/lib/thumb2\libc.a(lib_a-signal.o)
                0x00024918                _init_signal_r
                0x00024948                _signal_r
                0x00024984                _raise_r
                0x000249dc                __sigtramp_r
                0x00024a30                raise
                0x00024a40                signal
                0x00024a50                _init_signal
                0x00024a5c                __sigtramp
 .text          0x00024a6c       0x30 c:/progra~2/codesourcery/source~1/bin/../lib/gcc/arm-none-eabi/4.5.2/../../../../arm-none-eabi/lib/thumb2\libc.a(lib_a-signalr.o)
                0x00024a6c                _kill_r
                0x00024a98                _getpid_r
 .text          0x00024a9c       0x94 c:/progra~2/codesourcery/source~1/bin/../lib/gcc/arm-none-eabi/4.5.2/../../../../arm-none-eabi/lib/thumb2\libc.a(lib_a-sprintf.o)
                0x00024a9c                _sprintf_r
                0x00024ae0                sprintf
 .text          0x00024b30      0x10c c:/progra~2/codesourcery/source~1/bin/../lib/gcc/arm-none-eabi/4.5.2/../../../../arm-none-eabi/lib/thumb2\libc.a(lib_a-strchr.o)
                0x00024b30                strchr
 .text          0x00024c3c      0x1dc c:/progra~2/codesourcery/source~1/bin/../lib/gcc/arm-none-eabi/4.5.2/../../../../arm-none-eabi/lib/thumb2\libc.a(lib_a-strcmp.o)
                0x00024c3c                strcmp
 .text          0x00024e18       0xbc c:/progra~2/codesourcery/source~1/bin/../lib/gcc/arm-none-eabi/4.5.2/../../../../arm-none-eabi/lib/thumb2\libc.a(lib_a-strcpy.o)
                0x00024e18                strcpy
 .text          0x00024ed4       0x60 c:/progra~2/codesourcery/source~1/bin/../lib/gcc/arm-none-eabi/4.5.2/../../../../arm-none-eabi/lib/thumb2\libc.a(lib_a-strlen.o)
                0x00024ed4                strlen
 .text          0x00024f34       0xac c:/progra~2/codesourcery/source~1/bin/../lib/gcc/arm-none-eabi/4.5.2/../../../../arm-none-eabi/lib/thumb2\libc.a(lib_a-strncmp.o)
                0x00024f34                strncmp
 .text          0x00024fe0       0x78 c:/progra~2/codesourcery/source~1/bin/../lib/gcc/arm-none-eabi/4.5.2/../../../../arm-none-eabi/lib/thumb2\libc.a(lib_a-strncpy.o)
                0x00024fe0                strncpy
 .text          0x00025058       0x28 c:/progra~2/codesourcery/source~1/bin/../lib/gcc/arm-none-eabi/4.5.2/../../../../arm-none-eabi/lib/thumb2\libc.a(lib_a-strrchr.o)
                0x00025058                strrchr
 .text          0x00025080     0x1640 c:/progra~2/codesourcery/source~1/bin/../lib/gcc/arm-none-eabi/4.5.2/../../../../arm-none-eabi/lib/thumb2\libc.a(lib_a-svfprintf.o)
                0x00025080                _svfprintf_r
 .text          0x000266c0       0x1c c:/progra~2/codesourcery/source~1/bin/../lib/gcc/arm-none-eabi/4.5.2/../../../../arm-none-eabi/lib/thumb2\libc.a(lib_a-syswrite.o)
                0x000266c0                write
 .text          0x000266dc       0xfc c:/progra~2/codesourcery/source~1/bin/../lib/gcc/arm-none-eabi/4.5.2/../../../../arm-none-eabi/lib/thumb2\libc.a(lib_a-wbuf.o)
                0x000266dc                __swbuf_r
                0x000267c8                __swbuf
 .text          0x000267d8       0x2c c:/progra~2/codesourcery/source~1/bin/../lib/gcc/arm-none-eabi/4.5.2/../../../../arm-none-eabi/lib/thumb2\libc.a(lib_a-writer.o)
                0x000267d8                _write_r
 .text          0x00026804      0x104 c:/progra~2/codesourcery/source~1/bin/../lib/gcc/arm-none-eabi/4.5.2/../../../../arm-none-eabi/lib/thumb2\libc.a(lib_a-wsetup.o)
                0x00026804                __swsetup_r
 .text          0x00026908      0xfe8 c:/progra~2/codesourcery/source~1/bin/../lib/gcc/arm-none-eabi/4.5.2/../../../../arm-none-eabi/lib/thumb2\libc.a(lib_a-dtoa.o)
                0x00026a34                _dtoa_r
 .text          0x000278f0      0x1ec c:/progra~2/codesourcery/source~1/bin/../lib/gcc/arm-none-eabi/4.5.2/../../../../arm-none-eabi/lib/thumb2\libc.a(lib_a-fflush.o)
                0x000278f0                _fflush_r
                0x00027ab4                fflush
 .text          0x00027adc      0x220 c:/progra~2/codesourcery/source~1/bin/../lib/gcc/arm-none-eabi/4.5.2/../../../../arm-none-eabi/lib/thumb2\libc.a(lib_a-findfp.o)
                0x00027ae4                _cleanup_r
                0x00027af0                __sfmoreglue
                0x00027b20                _cleanup
                0x00027b2c                __sinit
                0x00027c34                __sfp
                0x00027cbc                __sfp_lock_acquire
                0x00027cc0                __sfp_lock_release
                0x00027cc4                __sinit_lock_acquire
                0x00027cc8                __sinit_lock_release
                0x00027ccc                __fp_lock_all
                0x00027ce4                __fp_unlock_all
 .text          0x00027cfc      0x240 c:/progra~2/codesourcery/source~1/bin/../lib/gcc/arm-none-eabi/4.5.2/../../../../arm-none-eabi/lib/thumb2\libc.a(lib_a-freer.o)
                0x00027cfc                _malloc_trim_r
                0x00027da4                _free_r
 .text          0x00027f3c       0xac c:/progra~2/codesourcery/source~1/bin/../lib/gcc/arm-none-eabi/4.5.2/../../../../arm-none-eabi/lib/thumb2\libc.a(lib_a-fwalk.o)
                0x00027f3c                _fwalk
                0x00027f90                _fwalk_reent
 .text          0x00027fe8       0xa0 c:/progra~2/codesourcery/source~1/bin/../lib/gcc/arm-none-eabi/4.5.2/../../../../arm-none-eabi/lib/thumb2\libc.a(lib_a-locale.o)
                0x00027fe8                _setlocale_r
                0x00028044                __locale_charset
                0x00028050                __locale_mb_cur_max
                0x0002805c                __locale_msgcharset
                0x00028064                __locale_cjk_lang
                0x00028068                _localeconv_r
                0x00028070                setlocale
                0x00028080                localeconv
 .text          0x00028088       0xec c:/progra~2/codesourcery/source~1/bin/../lib/gcc/arm-none-eabi/4.5.2/../../../../arm-none-eabi/lib/thumb2\libc.a(lib_a-makebuf.o)
                0x00028088                __smakebuf_r
 .text          0x00028174      0x91c c:/progra~2/codesourcery/source~1/bin/../lib/gcc/arm-none-eabi/4.5.2/../../../../arm-none-eabi/lib/thumb2\libc.a(lib_a-mprec.o)
                0x00028174                _Balloc
                0x000281dc                _Bfree
                0x00028214                __multadd
                0x00028298                __s2b
                0x00028330                __hi0bits
                0x00028370                __lo0bits
                0x000283d4                __i2b
                0x000283e8                __multiply
                0x00028510                __pow5mult
                0x000285b4                __lshift
                0x00028660                __mcmp
                0x0002869c                __mdiff
                0x00028794                __ulp
                0x000287dc                __b2d
                0x00028888                __d2b
                0x00028950                __ratio
                0x000289b8                _mprec_log10
                0x000289ec                __copybits
                0x00028a34                __any_on
 .text          0x00028a90       0x90 c:/progra~2/codesourcery/source~1/bin/../lib/gcc/arm-none-eabi/4.5.2/../../../../arm-none-eabi/lib/thumb2\libc.a(lib_a-s_fpclassify.o)
                0x00028a90                __fpclassifyd
 .text          0x00028b20       0x94 c:/progra~2/codesourcery/source~1/bin/../lib/gcc/arm-none-eabi/4.5.2/../../../../arm-none-eabi/lib/thumb2\libc.a(lib_a-stdio.o)
                0x00028b20                __sread
                0x00028b44                __seofread
                0x00028b48                __swrite
                0x00028b84                __sseek
                0x00028bac                __sclose
 .text          0x00028bb4      0xbe8 c:/progra~2/codesourcery/source~1/bin/../lib/gcc/arm-none-eabi/4.5.2/../../../../arm-none-eabi/lib/thumb2\libc.a(lib_a-svfiprintf.o)
                0x00028bb4                __ssprint_r
                0x00028cbc                _svfiprintf_r
 .text          0x0002979c       0x5c c:/progra~2/codesourcery/source~1/bin/../lib/gcc/arm-none-eabi/4.5.2/../../../../arm-none-eabi/lib/thumb2\libc.a(lib_a-callocr.o)
                0x0002979c                _calloc_r
 .text          0x000297f8       0x28 c:/progra~2/codesourcery/source~1/bin/../lib/gcc/arm-none-eabi/4.5.2/../../../../arm-none-eabi/lib/thumb2\libc.a(lib_a-closer.o)
                0x000297f8                _close_r
 .text          0x00029820       0xc4 c:/progra~2/codesourcery/source~1/bin/../lib/gcc/arm-none-eabi/4.5.2/../../../../arm-none-eabi/lib/thumb2\libc.a(lib_a-fclose.o)
                0x00029820                _fclose_r
                0x000298d4                fclose
 .text          0x000298e4       0x2c c:/progra~2/codesourcery/source~1/bin/../lib/gcc/arm-none-eabi/4.5.2/../../../../arm-none-eabi/lib/thumb2\libc.a(lib_a-fstatr.o)
                0x000298e4                _fstat_r
 .text          0x00029910       0x28 c:/progra~2/codesourcery/source~1/bin/../lib/gcc/arm-none-eabi/4.5.2/../../../../arm-none-eabi/lib/thumb2\libc.a(lib_a-isattyr.o)
                0x00029910                _isatty_r
 .text          0x00029938       0x2c c:/progra~2/codesourcery/source~1/bin/../lib/gcc/arm-none-eabi/4.5.2/../../../../arm-none-eabi/lib/thumb2\libc.a(lib_a-lseekr.o)
                0x00029938                _lseek_r
 .text          0x00029964       0x2c c:/progra~2/codesourcery/source~1/bin/../lib/gcc/arm-none-eabi/4.5.2/../../../../arm-none-eabi/lib/thumb2\libc.a(lib_a-readr.o)
                0x00029964                _read_r
 .text          0x00029990      0x370 c:/progra~2/codesourcery/source~1/bin/../lib/gcc/arm-none-eabi/4.5.2/thumb2\libgcc.a(_arm_addsubdf3.o)
                0x00029990                __aeabi_drsub
                0x00029998                __aeabi_dsub
                0x00029998                __subdf3
                0x0002999c                __aeabi_dadd
                0x0002999c                __adddf3
                0x00029c14                __floatunsidf
                0x00029c14                __aeabi_ui2d
                0x00029c34                __floatsidf
                0x00029c34                __aeabi_i2d
                0x00029c58                __aeabi_f2d
                0x00029c58                __extendsfdf2
                0x00029c94                __floatundidf
                0x00029c94                __aeabi_ul2d
                0x00029ca4                __floatdidf
                0x00029ca4                __aeabi_l2d
 .text          0x00029d00      0x424 c:/progra~2/codesourcery/source~1/bin/../lib/gcc/arm-none-eabi/4.5.2/thumb2\libgcc.a(_arm_muldivdf3.o)
                0x00029d00                __aeabi_dmul
                0x00029d00                __muldf3
                0x00029f54                __divdf3
                0x00029f54                __aeabi_ddiv
 .text          0x0002a124      0x110 c:/progra~2/codesourcery/source~1/bin/../lib/gcc/arm-none-eabi/4.5.2/thumb2\libgcc.a(_arm_cmpdf2.o)
                0x0002a124                __gtdf2
                0x0002a124                __gedf2
                0x0002a12c                __ltdf2
                0x0002a12c                __ledf2
                0x0002a134                __nedf2
                0x0002a134                __eqdf2
                0x0002a134                __cmpdf2
                0x0002a1b0                __aeabi_cdrcmple
                0x0002a1c0                __aeabi_cdcmpeq
                0x0002a1c0                __aeabi_cdcmple
                0x0002a1d0                __aeabi_dcmpeq
                0x0002a1e4                __aeabi_dcmplt
                0x0002a1f8                __aeabi_dcmple
                0x0002a20c                __aeabi_dcmpge
                0x0002a220                __aeabi_dcmpgt
 .text          0x0002a234       0x50 c:/progra~2/codesourcery/source~1/bin/../lib/gcc/arm-none-eabi/4.5.2/thumb2\libgcc.a(_arm_fixdfsi.o)
                0x0002a234                __aeabi_d2iz
                0x0002a234                __fixdfsi
 .text          0x0002a284        0x0 c:/progra~2/codesourcery/source~1/bin/../lib/gcc/arm-none-eabi/4.5.2/thumb2/crtend.o
 .text          0x0002a284        0x0 c:/progra~2/codesourcery/source~1/bin/../lib/gcc/arm-none-eabi/4.5.2/thumb2/crtn.o
 *(.plt)
 *(.gnu.warning)
 *(.glue_7t)
 .glue_7t       0x00000000        0x0 linker stubs
 *(.glue_7)
 .glue_7        0x00000000        0x0 linker stubs
 *(.vfp11_veneer)
 .vfp11_veneer  0x00000000        0x0 linker stubs
 *(.rodata .rodata.* .gnu.linkonce.r.*)
 .rodata        0x0002a284        0x8 build\lib\source\debug_frmwrk.o
 .rodata        0x0002a28c       0x20 build\lib\source\lpc17xx_adc.o
 .rodata        0x0002a2ac       0x20 build\lib\source\lpc17xx_i2c.o
 .rodata        0x0002a2cc       0x20 build\lib\source\lpc17xx_spi.o
 .rodata        0x0002a2ec       0x24 build\lib\source\lpc17xx_timer.o
 .rodata        0x0002a310       0x20 build\lib\source\lpc17xx_uart.o
 .rodata        0x0002a330       0x10 build\lib_sd\fat.o
 .rodata        0x0002a340       0x94 build\VCOM_GV\usbSerial.o
 .rodata        0x0002a3d4       0x14 build\EepromMap.o
 .rodata        0x0002a3e8       0x2c build\Host.o
 *fill*         0x0002a414        0x4 00
 .rodata._ZTV6Screen
                0x0002a418       0x18 build\InterfaceBoard.o
                0x0002a418                vtable for Screen
 .rodata._ZTS6Screen
                0x0002a430        0x8 build\InterfaceBoard.o
                0x0002a430                typeinfo name for Screen
 .rodata._ZTI6Screen
                0x0002a438        0x8 build\InterfaceBoard.o
                0x0002a438                typeinfo for Screen
 .rodata        0x0002a440        0x8 build\InterfaceBoard.o
 .rodata._ZTV13LiquidCrystal
                0x0002a448       0x10 build\LiquidCrystal.o
                0x0002a448                vtable for LiquidCrystal
 .rodata._ZTS13LiquidCrystal
                0x0002a458       0x10 build\LiquidCrystal.o
                0x0002a458                typeinfo name for LiquidCrystal
 .rodata._ZTI13LiquidCrystal
                0x0002a468        0x8 build\LiquidCrystal.o
                0x0002a468                typeinfo for LiquidCrystal
 .rodata        0x0002a470       0x10 build\LiquidCrystal.o
 .rodata        0x0002a480       0x24 build\Main.o
 *fill*         0x0002a4a4        0x4 00
 .rodata        0x0002a4a8      0x310 build\Menu.o
                0x0002a4b0                vtable for MainMenu
                0x0002a4d8                vtable for MonitorMode
                0x0002a4f0                vtable for CancelBuildMenu
                0x0002a518                vtable for SDMenu
                0x0002a540                vtable for SnakeMode
                0x0002a558                vtable for JogMode
                0x0002a570                vtable for SplashScreen
                0x0002a588                vtable for Menu
                0x0002a5b0                typeinfo for MainMenu
                0x0002a5bc                typeinfo name for MainMenu
                0x0002a5c8                typeinfo for MonitorMode
                0x0002a5d4                typeinfo name for MonitorMode
                0x0002a5e4                typeinfo for CancelBuildMenu
                0x0002a5f0                typeinfo name for CancelBuildMenu
                0x0002a604                typeinfo for SDMenu
                0x0002a610                typeinfo name for SDMenu
                0x0002a618                typeinfo for SnakeMode
                0x0002a624                typeinfo name for SnakeMode
                0x0002a630                typeinfo for JogMode
                0x0002a63c                typeinfo name for JogMode
                0x0002a648                typeinfo for SplashScreen
                0x0002a654                typeinfo name for SplashScreen
                0x0002a664                typeinfo for Menu
                0x0002a670                typeinfo name for Menu
 .rodata        0x0002a7b8        0x4 build\SDCard.o
 .rodata        0x0002a7bc       0x90 build\Tool.o
 *fill*         0x0002a84c        0x4 00
 .rodata._ZTVN10__cxxabiv120__si_class_type_infoE
                0x0002a850       0x30 c:/progra~2/codesourcery/source~1/bin/../lib/gcc/arm-none-eabi/4.5.2/../../../../arm-none-eabi/lib/thumb2\libstdc++.a(si_class_type_info.o)
                0x0002a850                vtable for __cxxabiv1::__si_class_type_info
 .rodata._ZTIN10__cxxabiv120__si_class_type_infoE
                0x0002a880        0xc c:/progra~2/codesourcery/source~1/bin/../lib/gcc/arm-none-eabi/4.5.2/../../../../arm-none-eabi/lib/thumb2\libstdc++.a(si_class_type_info.o)
                0x0002a880                typeinfo for __cxxabiv1::__si_class_type_info
 .rodata._ZTSN10__cxxabiv120__si_class_type_infoE
                0x0002a88c       0x28 c:/progra~2/codesourcery/source~1/bin/../lib/gcc/arm-none-eabi/4.5.2/../../../../arm-none-eabi/lib/thumb2\libstdc++.a(si_class_type_info.o)
                0x0002a88c                typeinfo name for __cxxabiv1::__si_class_type_info
 .rodata.str1.4
                0x0002a8b4       0x1c c:/progra~2/codesourcery/source~1/bin/../lib/gcc/arm-none-eabi/4.5.2/../../../../arm-none-eabi/lib/thumb2\libstdc++.a(pure.o)
 .rodata._ZTVN10__cxxabiv117__class_type_infoE
                0x0002a8d0       0x30 c:/progra~2/codesourcery/source~1/bin/../lib/gcc/arm-none-eabi/4.5.2/../../../../arm-none-eabi/lib/thumb2\libstdc++.a(class_type_info.o)
                0x0002a8d0                vtable for __cxxabiv1::__class_type_info
 .rodata._ZTIN10__cxxabiv117__class_type_infoE
                0x0002a900        0xc c:/progra~2/codesourcery/source~1/bin/../lib/gcc/arm-none-eabi/4.5.2/../../../../arm-none-eabi/lib/thumb2\libstdc++.a(class_type_info.o)
                0x0002a900                typeinfo for __cxxabiv1::__class_type_info
 .rodata._ZTSN10__cxxabiv117__class_type_infoE
                0x0002a90c       0x24 c:/progra~2/codesourcery/source~1/bin/../lib/gcc/arm-none-eabi/4.5.2/../../../../arm-none-eabi/lib/thumb2\libstdc++.a(class_type_info.o)
                0x0002a90c                typeinfo name for __cxxabiv1::__class_type_info
 .rodata._ZTISt9type_info
                0x0002a930        0x8 c:/progra~2/codesourcery/source~1/bin/../lib/gcc/arm-none-eabi/4.5.2/../../../../arm-none-eabi/lib/thumb2\libstdc++.a(tinfo.o)
                0x0002a930                typeinfo for std::type_info
 .rodata._ZTSSt9type_info
                0x0002a938       0x10 c:/progra~2/codesourcery/source~1/bin/../lib/gcc/arm-none-eabi/4.5.2/../../../../arm-none-eabi/lib/thumb2\libstdc++.a(tinfo.o)
                0x0002a938                typeinfo name for std::type_info
 .rodata._ZTVSt9type_info
                0x0002a948       0x20 c:/progra~2/codesourcery/source~1/bin/../lib/gcc/arm-none-eabi/4.5.2/../../../../arm-none-eabi/lib/thumb2\libstdc++.a(tinfo.o)
                0x0002a948                vtable for std::type_info
 .rodata.str1.4
                0x0002a968       0x94 c:/progra~2/codesourcery/source~1/bin/../lib/gcc/arm-none-eabi/4.5.2/../../../../arm-none-eabi/lib/thumb2\libstdc++.a(vterminate.o)
 *fill*         0x0002a9fc        0x4 00
 .rodata._ZTVN10__cxxabiv115__forced_unwindE
                0x0002aa00       0x18 c:/progra~2/codesourcery/source~1/bin/../lib/gcc/arm-none-eabi/4.5.2/../../../../arm-none-eabi/lib/thumb2\libstdc++.a(eh_exception.o)
                0x0002aa00                vtable for __cxxabiv1::__forced_unwind
 .rodata._ZTISt9exception
                0x0002aa18        0x8 c:/progra~2/codesourcery/source~1/bin/../lib/gcc/arm-none-eabi/4.5.2/../../../../arm-none-eabi/lib/thumb2\libstdc++.a(eh_exception.o)
                0x0002aa18                typeinfo for std::exception
 .rodata._ZTVSt9exception
                0x0002aa20       0x18 c:/progra~2/codesourcery/source~1/bin/../lib/gcc/arm-none-eabi/4.5.2/../../../../arm-none-eabi/lib/thumb2\libstdc++.a(eh_exception.o)
                0x0002aa20                vtable for std::exception
 .rodata._ZTIN10__cxxabiv115__forced_unwindE
                0x0002aa38        0x8 c:/progra~2/codesourcery/source~1/bin/../lib/gcc/arm-none-eabi/4.5.2/../../../../arm-none-eabi/lib/thumb2\libstdc++.a(eh_exception.o)
                0x0002aa38                typeinfo for __cxxabiv1::__forced_unwind
 .rodata._ZTSSt13bad_exception
                0x0002aa40       0x14 c:/progra~2/codesourcery/source~1/bin/../lib/gcc/arm-none-eabi/4.5.2/../../../../arm-none-eabi/lib/thumb2\libstdc++.a(eh_exception.o)
                0x0002aa40                typeinfo name for std::bad_exception
 .rodata._ZTSN10__cxxabiv119__foreign_exceptionE
                0x0002aa54       0x24 c:/progra~2/codesourcery/source~1/bin/../lib/gcc/arm-none-eabi/4.5.2/../../../../arm-none-eabi/lib/thumb2\libstdc++.a(eh_exception.o)
                0x0002aa54                typeinfo name for __cxxabiv1::__foreign_exception
 .rodata.str1.4
                0x0002aa78       0x23 c:/progra~2/codesourcery/source~1/bin/../lib/gcc/arm-none-eabi/4.5.2/../../../../arm-none-eabi/lib/thumb2\libstdc++.a(eh_exception.o)
                                 0x24 (size before relaxing)
 *fill*         0x0002aa9b        0x1 00
 .rodata._ZTIN10__cxxabiv119__foreign_exceptionE
                0x0002aa9c        0x8 c:/progra~2/codesourcery/source~1/bin/../lib/gcc/arm-none-eabi/4.5.2/../../../../arm-none-eabi/lib/thumb2\libstdc++.a(eh_exception.o)
                0x0002aa9c                typeinfo for __cxxabiv1::__foreign_exception
 *fill*         0x0002aaa4        0x4 00
 .rodata._ZTVSt13bad_exception
                0x0002aaa8       0x18 c:/progra~2/codesourcery/source~1/bin/../lib/gcc/arm-none-eabi/4.5.2/../../../../arm-none-eabi/lib/thumb2\libstdc++.a(eh_exception.o)
                0x0002aaa8                vtable for std::bad_exception
 .rodata._ZTSSt9exception
                0x0002aac0       0x10 c:/progra~2/codesourcery/source~1/bin/../lib/gcc/arm-none-eabi/4.5.2/../../../../arm-none-eabi/lib/thumb2\libstdc++.a(eh_exception.o)
                0x0002aac0                typeinfo name for std::exception
 .rodata._ZTVN10__cxxabiv119__foreign_exceptionE
                0x0002aad0       0x18 c:/progra~2/codesourcery/source~1/bin/../lib/gcc/arm-none-eabi/4.5.2/../../../../arm-none-eabi/lib/thumb2\libstdc++.a(eh_exception.o)
                0x0002aad0                vtable for __cxxabiv1::__foreign_exception
 .rodata._ZTSN10__cxxabiv115__forced_unwindE
                0x0002aae8       0x20 c:/progra~2/codesourcery/source~1/bin/../lib/gcc/arm-none-eabi/4.5.2/../../../../arm-none-eabi/lib/thumb2\libstdc++.a(eh_exception.o)
                0x0002aae8                typeinfo name for __cxxabiv1::__forced_unwind
 .rodata._ZTISt13bad_exception
                0x0002ab08        0xc c:/progra~2/codesourcery/source~1/bin/../lib/gcc/arm-none-eabi/4.5.2/../../../../arm-none-eabi/lib/thumb2\libstdc++.a(eh_exception.o)
                0x0002ab08                typeinfo for std::bad_exception
 .rodata        0x0002ab14      0x694 c:/progra~2/codesourcery/source~1/bin/../lib/gcc/arm-none-eabi/4.5.2/../../../../arm-none-eabi/lib/thumb2\libstdc++.a(cp-demangle.o)
 .rodata.str1.4
                0x0002b1a8      0x5a7 c:/progra~2/codesourcery/source~1/bin/../lib/gcc/arm-none-eabi/4.5.2/../../../../arm-none-eabi/lib/thumb2\libstdc++.a(cp-demangle.o)
                                0x5b8 (size before relaxing)
 *fill*         0x0002b74f        0x1 00
 .rodata        0x0002b750        0x4 c:/progra~2/codesourcery/source~1/bin/../lib/gcc/arm-none-eabi/4.5.2/../../../../arm-none-eabi/lib/thumb2\libc.a(lib_a-impure.o)
                0x0002b750                _global_impure_ptr
 .rodata.str1.4
                0x0002b754        0x2 c:/progra~2/codesourcery/source~1/bin/../lib/gcc/arm-none-eabi/4.5.2/../../../../arm-none-eabi/lib/thumb2\libc.a(lib_a-impure.o)
                                  0x4 (size before relaxing)
 *fill*         0x0002b756        0x2 00
 .rodata        0x0002b758       0x20 c:/progra~2/codesourcery/source~1/bin/../lib/gcc/arm-none-eabi/4.5.2/../../../../arm-none-eabi/lib/thumb2\libc.a(lib_a-svfprintf.o)
 .rodata.str1.4
                0x0002b778       0x42 c:/progra~2/codesourcery/source~1/bin/../lib/gcc/arm-none-eabi/4.5.2/../../../../arm-none-eabi/lib/thumb2\libc.a(lib_a-svfprintf.o)
                                 0x44 (size before relaxing)
 *fill*         0x0002b7ba        0x2 00
 .rodata.str1.4
                0x0002b7bc       0x10 c:/progra~2/codesourcery/source~1/bin/../lib/gcc/arm-none-eabi/4.5.2/../../../../arm-none-eabi/lib/thumb2\libc.a(lib_a-dtoa.o)
                                 0x14 (size before relaxing)
 .rodata        0x0002b7cc       0x60 c:/progra~2/codesourcery/source~1/bin/../lib/gcc/arm-none-eabi/4.5.2/../../../../arm-none-eabi/lib/thumb2\libc.a(lib_a-findfp.o)
                0x0002b7cc                __sf_fake_stdin
                0x0002b7ec                __sf_fake_stdout
                0x0002b80c                __sf_fake_stderr
 .rodata.str1.4
                0x0002b82c        0x8 c:/progra~2/codesourcery/source~1/bin/../lib/gcc/arm-none-eabi/4.5.2/../../../../arm-none-eabi/lib/thumb2\libc.a(lib_a-locale.o)
                                 0x14 (size before relaxing)
 *fill*         0x0002b834        0x4 00
 .rodata        0x0002b838      0x128 c:/progra~2/codesourcery/source~1/bin/../lib/gcc/arm-none-eabi/4.5.2/../../../../arm-none-eabi/lib/thumb2\libc.a(lib_a-mprec.o)
                0x0002b848                __mprec_tens
                0x0002b910                __mprec_bigtens
                0x0002b938                __mprec_tinytens
 .rodata        0x0002b960       0x20 c:/progra~2/codesourcery/source~1/bin/../lib/gcc/arm-none-eabi/4.5.2/../../../../arm-none-eabi/lib/thumb2\libc.a(lib_a-svfiprintf.o)
 .rodata.str1.4
                0x00000000       0x30 c:/progra~2/codesourcery/source~1/bin/../lib/gcc/arm-none-eabi/4.5.2/../../../../arm-none-eabi/lib/thumb2\libc.a(lib_a-svfiprintf.o)
 *(.ARM.extab* .gnu.linkonce.armextab.*)
 .ARM.extab     0x0002b980        0x0 build\system\mini_cpp.o
 .ARM.extab.cs3.reset
                0x0002b980        0x0 build\system\startup_LPC17xx.o
 .ARM.extab     0x0002b980       0x54 build\IAP_internal_flash_write\IAP.o
 .ARM.extab     0x0002b9d4        0x0 src\shared\PID.o
 .ARM.extab.text._ZN6Packet5errorEh
                0x0002b9d4        0x0 src\shared\Packet.o
 .ARM.extab     0x0002b9d4        0x0 src\shared\Packet.o
 .ARM.extab.text._ZN6PacketC2Ev
                0x0002b9d4        0x0 src\shared\Packet.o
 .ARM.extab.text._ZN5PointC2Elllll
                0x0002b9d4        0x0 build\Command.o
 .ARM.extab.text._ZN5PointC2Elll
                0x0002b9d4        0x0 build\Command.o
 .ARM.extab.text._ZNK5PointixEj
                0x0002b9d4        0x0 build\Command.o
 .ARM.extab.text._ZN5PointixEj
                0x0002b9d4        0x0 build\Command.o
 .ARM.extab.text._ZNK6Packet8hasErrorEv
                0x0002b9d4        0x0 build\Command.o
 .ARM.extab     0x0002b9d4       0x30 build\Command.o
 .ARM.extab.text._ZN19CircularBufferTemplIhEC2EtPh
                0x0002ba04        0x0 build\Command.o
 .ARM.extab.text._ZNK19CircularBufferTemplIhE20getRemainingCapacityEv
                0x0002ba04        0x0 build\Command.o
 .ARM.extab.text._ZNK19CircularBufferTemplIhE7isEmptyEv
                0x0002ba04        0x0 build\Command.o
 .ARM.extab.text._ZN19CircularBufferTemplIhE4pushEh
                0x0002ba04        0x0 build\Command.o
 .ARM.extab.text._ZN19CircularBufferTemplIhE3popEv
                0x0002ba04        0x0 build\Command.o
 .ARM.extab.text._ZN19CircularBufferTemplIhE5resetEv
                0x0002ba04        0x0 build\Command.o
 .ARM.extab.text._ZNK19CircularBufferTemplIhE9getLengthEv
                0x0002ba04        0x0 build\Command.o
 .ARM.extab.text._ZN19CircularBufferTemplIhEixEt
                0x0002ba04        0x0 build\Command.o
 .ARM.extab.text._ZNK6Packet9getLengthEv
                0x0002ba04        0x0 build\DebugPacketProcessor.o
 .ARM.extab.text._ZN11Motherboard8getBoardEv
                0x0002ba04        0x0 build\DebugPacketProcessor.o
 .ARM.extab     0x0002ba04        0xc build\DebugPacketProcessor.o
 .ARM.extab     0x0002ba10        0x0 build\Delay.o
 .ARM.extab.text._ZN3IAPC2Ev
                0x0002ba10        0x0 build\EepromMap.o
 .ARM.extab     0x0002ba10       0x78 build\EepromMap.o
 .ARM.extab.text._ZNK6Packet12getErrorCodeEv
                0x0002ba88        0x0 build\Host.o
 .ARM.extab.text._ZNK6Packet7getDataEv
                0x0002ba88        0x0 build\Host.o
 .ARM.extab.text._ZNK8InPacket10isFinishedEv
                0x0002ba88        0x0 build\Host.o
 .ARM.extab.text._ZNK8InPacket9isStartedEv
                0x0002ba88        0x0 build\Host.o
 .ARM.extab.text._ZN8InPacket7timeoutEv
                0x0002ba88        0xc build\Host.o
 .ARM.extab.text._ZNK9OutPacket9isSendingEv
                0x0002ba94        0x0 build\Host.o
 .ARM.extab.text._ZN4UART11getHostUARTEv
                0x0002ba94        0x0 build\Host.o
 .ARM.extab.text._ZNK7Timeout8isActiveEv
                0x0002ba94        0x0 build\Host.o
 .ARM.extab.text._ZN11Motherboard19getStepperInterfaceEi
                0x0002ba94        0x0 build\Host.o
 .ARM.extab     0x0002ba94       0x48 build\Host.o
 .ARM.extab.text._ZN4host13handleVersionERK8InPacketR9OutPacket
                0x0002badc        0xc build\Host.o
 .ARM.extab.text._ZN4host18handleGetBuildNameERK8InPacketR9OutPacket
                0x0002bae8        0xc build\Host.o
 .ARM.extab.text._ZN4host19handleGetBufferSizeERK8InPacketR9OutPacket
                0x0002baf4        0xc build\Host.o
 .ARM.extab.text._ZN4host17handleGetPositionERK8InPacketR9OutPacket
                0x0002bb00        0xc build\Host.o
 .ARM.extab.text._ZN4host20handleGetPositionExtERK8InPacketR9OutPacket
                0x0002bb0c        0xc build\Host.o
 .ARM.extab.text._ZN4host19handleCaptureToFileERK8InPacketR9OutPacket
                0x0002bb18        0xc build\Host.o
 .ARM.extab.text._ZN4host16handleEndCaptureERK8InPacketR9OutPacket
                0x0002bb24        0xc build\Host.o
 .ARM.extab.text._ZN4host14handlePlaybackERK8InPacketR9OutPacket
                0x0002bb30        0xc build\Host.o
 .ARM.extab.text._ZN4host18handleNextFilenameERK8InPacketR9OutPacket
                0x0002bb3c        0xc build\Host.o
 .ARM.extab.text._ZN4host15handleToolQueryERK8InPacketR9OutPacket
                0x0002bb48        0xc build\Host.o
 .ARM.extab.text._ZN4host11handlePauseERK8InPacketR9OutPacket
                0x0002bb54        0xc build\Host.o
 .ARM.extab.text._ZN4host16handleIsFinishedERK8InPacketR9OutPacket
                0x0002bb60        0xc build\Host.o
 .ARM.extab.text._ZN4host16handleReadEepromERK8InPacketR9OutPacket
                0x0002bb6c        0xc build\Host.o
 .ARM.extab.text._ZN4host17handleWriteEepromERK8InPacketR9OutPacket
                0x0002bb78        0xc build\Host.o
 .ARM.extab.text._ZN4host18handleExtendedStopERK8InPacketR9OutPacket
                0x0002bb84        0xc build\Host.o
 .ARM.extab.text._ZN4host27handleGetCommunicationStatsERK8InPacketR9OutPacket
                0x0002bb90        0xc build\Host.o
 .ARM.extab     0x0002bb9c        0xc build\Interface.o
 .ARM.extab.text._ZN4Port15setPinDirectionEhb
                0x0002bba8        0xc build\InterfaceBoard.o
 .ARM.extab.text._ZN4Port6setPinEhb
                0x0002bbb4        0xc build\InterfaceBoard.o
 .ARM.extab.text._ZN3PinC2ER4Porth
                0x0002bbc0        0x0 build\InterfaceBoard.o
 .ARM.extab.text._ZN3Pin12setDirectionEb
                0x0002bbc0        0xc build\InterfaceBoard.o
 .ARM.extab.text._ZN3Pin8setValueEb
                0x0002bbcc        0xc build\InterfaceBoard.o
 .ARM.extab     0x0002bbd8       0x3c build\InterfaceBoard.o
 .ARM.extab.text._ZN6ScreenC2Ev
                0x0002bc14        0x0 build\InterfaceBoard.o
 .ARM.extab.text._ZN12SplashScreenC2Ev
                0x0002bc14        0x0 build\InterfaceBoard.o
 .ARM.extab.text._ZN11MonitorModeC2Ev
                0x0002bc14        0xc build\InterfaceBoard.o
 .ARM.extab.text._ZN4PortC2Eh
                0x0002bc20        0x0 build\LPCPort.o
 .ARM.extab     0x0002bc20        0x0 build\LPCPort.o
 .ARM.extab.text._ZN4PortC2Ev
                0x0002bc20        0x0 build\LiquidCrystal.o
 .ARM.extab.text._ZN4Port6isNullEv
                0x0002bc20        0x0 build\LiquidCrystal.o
 .ARM.extab.text._ZN3PinC2Ev
                0x0002bc20        0x0 build\LiquidCrystal.o
 .ARM.extab.text._ZN3Pin6isNullEv
                0x0002bc20        0x0 build\LiquidCrystal.o
 .ARM.extab     0x0002bc20      0x15c build\LiquidCrystal.o
 .ARM.extab.text._ZN13LiquidCrystal7commandEh
                0x0002bd7c        0xc build\LiquidCrystal.o
 .ARM.extab.text._ZN13LiquidCrystal5writeEh
                0x0002bd88        0xc build\LiquidCrystal.o
 .ARM.extab     0x0002bd94       0x78 build\Main.o
 .ARM.extab.text._ZN4Menu13getUpdateRateEv
                0x0002be0c        0x0 build\Menu.o
 .ARM.extab.text._ZN12SplashScreen13getUpdateRateEv
                0x0002be0c        0x0 build\Menu.o
 .ARM.extab.text._ZN7JogMode13getUpdateRateEv
                0x0002be0c        0x0 build\Menu.o
 .ARM.extab.text._ZN9SnakeMode13getUpdateRateEv
                0x0002be0c        0x0 build\Menu.o
 .ARM.extab.text._ZN11MonitorMode13getUpdateRateEv
                0x0002be0c        0x0 build\Menu.o
 .ARM.extab.text._ZN7JogModeC2Ev
                0x0002be0c        0x0 build\Menu.o
 .ARM.extab.text._ZN9SnakeModeC2Ev
                0x0002be0c        0x0 build\Menu.o
 .ARM.extab     0x0002be0c      0x12c build\Menu.o
 .ARM.extab.text._ZN4MenuC2Ev
                0x0002bf38        0x0 build\Menu.o
 .ARM.extab     0x0002bf38        0xc build\Microsteps.o
 .ARM.extab     0x0002bf44       0xa8 build\Motherboard.o
 .ARM.extab.text._ZN4UART12getSlaveUARTEv
                0x0002bfec        0x0 build\Motherboard.o
 .ARM.extab.text._ZN16StepperInterfaceC2Ev
                0x0002bfec        0x0 build\Motherboard.o
 .ARM.extab.text._ZN16StepperInterfaceC2ERK3PinS2_S2_S2_S2_
                0x0002bfec        0x0 build\Motherboard.o
 .ARM.extab     0x0002bfec        0x0 build\PID.o
 .ARM.extab     0x0002bfec        0x0 build\Packet.o
 .ARM.extab     0x0002bfec       0x9c build\SDCard.o
 .ARM.extab.text._ZN4Port6getPinEh
                0x0002c088        0xc build\StepperInterface.o
 .ARM.extab.text._ZN3Pin8getValueEv
                0x0002c094        0xc build\StepperInterface.o
 .ARM.extab     0x0002c0a0       0x48 build\StepperInterface.o
 .ARM.extab.text._ZN8steppers4AxisC2Ev
                0x0002c0e8        0x0 build\Steppers.o
 .ARM.extab.text._ZN8steppers4AxisC2ER16StepperInterface
                0x0002c0e8        0x0 build\Steppers.o
 .ARM.extab.text._ZN8steppers4Axis9setTargetElb
                0x0002c0e8        0xc build\Steppers.o
 .ARM.extab.text._ZN8steppers4Axis9setHomingEb
                0x0002c0f4        0xc build\Steppers.o
 .ARM.extab.text._ZN8steppers4Axis14definePositionEl
                0x0002c100        0x0 build\Steppers.o
 .ARM.extab.text._ZN8steppers4Axis13enableStepperEb
                0x0002c100        0xc build\Steppers.o
 .ARM.extab.text._ZN8steppers4Axis5resetEv
                0x0002c10c        0x0 build\Steppers.o
 .ARM.extab.text._ZN8steppers4Axis11doInterruptEl
                0x0002c10c        0xc build\Steppers.o
 .ARM.extab.text._ZN8steppers4Axis8doHomingEl
                0x0002c118        0xc build\Steppers.o
 .ARM.extab     0x0002c124       0x3c build\Steppers.o
 .ARM.extab     0x0002c160       0x24 build\Timeout.o
 .ARM.extab     0x0002c184       0x9c build\Tool.o
 .ARM.extab.text._Z6listenv
                0x0002c220        0xc build\UART.o
 .ARM.extab.text._Z5speakv
                0x0002c22c        0xc build\UART.o
 .ARM.extab     0x0002c238       0x3c build\UART.o
 .ARM.extab.text._ZNK10__cxxabiv120__si_class_type_info11__do_upcastEPKNS_17__class_type_infoEPKvRNS1_15__upcast_resultE
                0x0002c274        0x0 c:/progra~2/codesourcery/source~1/bin/../lib/gcc/arm-none-eabi/4.5.2/../../../../arm-none-eabi/lib/thumb2\libstdc++.a(si_class_type_info.o)
 .ARM.extab.text._ZNK10__cxxabiv120__si_class_type_info12__do_dyncastEiNS_17__class_type_info10__sub_kindEPKS1_PKvS4_S6_RNS1_16__dyncast_resultE
                0x0002c274        0x0 c:/progra~2/codesourcery/source~1/bin/../lib/gcc/arm-none-eabi/4.5.2/../../../../arm-none-eabi/lib/thumb2\libstdc++.a(si_class_type_info.o)
 .ARM.extab.text._ZNK10__cxxabiv120__si_class_type_info20__do_find_public_srcEiPKvPKNS_17__class_type_infoES2_
                0x0002c274        0x0 c:/progra~2/codesourcery/source~1/bin/../lib/gcc/arm-none-eabi/4.5.2/../../../../arm-none-eabi/lib/thumb2\libstdc++.a(si_class_type_info.o)
 .ARM.extab.text._ZN10__cxxabiv120__si_class_type_infoD2Ev
                0x0002c274        0x0 c:/progra~2/codesourcery/source~1/bin/../lib/gcc/arm-none-eabi/4.5.2/../../../../arm-none-eabi/lib/thumb2\libstdc++.a(si_class_type_info.o)
 .ARM.extab.text._ZN10__cxxabiv120__si_class_type_infoD0Ev
                0x0002c274        0x0 c:/progra~2/codesourcery/source~1/bin/../lib/gcc/arm-none-eabi/4.5.2/../../../../arm-none-eabi/lib/thumb2\libstdc++.a(si_class_type_info.o)
 .ARM.extab.text.__cxa_pure_virtual
                0x0002c274        0xc c:/progra~2/codesourcery/source~1/bin/../lib/gcc/arm-none-eabi/4.5.2/../../../../arm-none-eabi/lib/thumb2\libstdc++.a(pure.o)
 .ARM.extab.text._ZNK10__cxxabiv117__class_type_info11__do_upcastEPKS0_PPv
                0x0002c280        0x0 c:/progra~2/codesourcery/source~1/bin/../lib/gcc/arm-none-eabi/4.5.2/../../../../arm-none-eabi/lib/thumb2\libstdc++.a(class_type_info.o)
 .ARM.extab.text._ZNK10__cxxabiv117__class_type_info20__do_find_public_srcEiPKvPKS0_S2_
                0x0002c280        0x0 c:/progra~2/codesourcery/source~1/bin/../lib/gcc/arm-none-eabi/4.5.2/../../../../arm-none-eabi/lib/thumb2\libstdc++.a(class_type_info.o)
 .ARM.extab.text._ZNK10__cxxabiv117__class_type_info11__do_upcastEPKS0_PKvRNS0_15__upcast_resultE
                0x0002c280        0x0 c:/progra~2/codesourcery/source~1/bin/../lib/gcc/arm-none-eabi/4.5.2/../../../../arm-none-eabi/lib/thumb2\libstdc++.a(class_type_info.o)
 .ARM.extab.text._ZNK10__cxxabiv117__class_type_info12__do_dyncastEiNS0_10__sub_kindEPKS0_PKvS3_S5_RNS0_16__dyncast_resultE
                0x0002c280        0x0 c:/progra~2/codesourcery/source~1/bin/../lib/gcc/arm-none-eabi/4.5.2/../../../../arm-none-eabi/lib/thumb2\libstdc++.a(class_type_info.o)
 .ARM.extab.text._ZNK10__cxxabiv117__class_type_info10__do_catchEPKSt9type_infoPPvj
                0x0002c280        0x0 c:/progra~2/codesourcery/source~1/bin/../lib/gcc/arm-none-eabi/4.5.2/../../../../arm-none-eabi/lib/thumb2\libstdc++.a(class_type_info.o)
 .ARM.extab.text._ZN10__cxxabiv117__class_type_infoD2Ev
                0x0002c280        0x0 c:/progra~2/codesourcery/source~1/bin/../lib/gcc/arm-none-eabi/4.5.2/../../../../arm-none-eabi/lib/thumb2\libstdc++.a(class_type_info.o)
 .ARM.extab.text._ZN10__cxxabiv117__class_type_infoD0Ev
                0x0002c280        0x0 c:/progra~2/codesourcery/source~1/bin/../lib/gcc/arm-none-eabi/4.5.2/../../../../arm-none-eabi/lib/thumb2\libstdc++.a(class_type_info.o)
 .ARM.extab.text._ZNSt9type_infoD2Ev
                0x0002c280        0x0 c:/progra~2/codesourcery/source~1/bin/../lib/gcc/arm-none-eabi/4.5.2/../../../../arm-none-eabi/lib/thumb2\libstdc++.a(tinfo.o)
 .ARM.extab.text._ZNKSt9type_info14__is_pointer_pEv
                0x0002c280        0x0 c:/progra~2/codesourcery/source~1/bin/../lib/gcc/arm-none-eabi/4.5.2/../../../../arm-none-eabi/lib/thumb2\libstdc++.a(tinfo.o)
 .ARM.extab.text._ZNKSt9type_info15__is_function_pEv
                0x0002c280        0x0 c:/progra~2/codesourcery/source~1/bin/../lib/gcc/arm-none-eabi/4.5.2/../../../../arm-none-eabi/lib/thumb2\libstdc++.a(tinfo.o)
 .ARM.extab.text._ZNKSt9type_info11__do_upcastEPKN10__cxxabiv117__class_type_infoEPPv
                0x0002c280        0x0 c:/progra~2/codesourcery/source~1/bin/../lib/gcc/arm-none-eabi/4.5.2/../../../../arm-none-eabi/lib/thumb2\libstdc++.a(tinfo.o)
 .ARM.extab.text._ZNSt9type_infoD0Ev
                0x0002c280        0x0 c:/progra~2/codesourcery/source~1/bin/../lib/gcc/arm-none-eabi/4.5.2/../../../../arm-none-eabi/lib/thumb2\libstdc++.a(tinfo.o)
 .ARM.extab.text._ZNKSt9type_infoeqERKS_
                0x0002c280        0x0 c:/progra~2/codesourcery/source~1/bin/../lib/gcc/arm-none-eabi/4.5.2/../../../../arm-none-eabi/lib/thumb2\libstdc++.a(tinfo.o)
 .ARM.extab.text._ZNKSt9type_info10__do_catchEPKS_PPvj
                0x0002c280        0x0 c:/progra~2/codesourcery/source~1/bin/../lib/gcc/arm-none-eabi/4.5.2/../../../../arm-none-eabi/lib/thumb2\libstdc++.a(tinfo.o)
 .ARM.extab.text._ZN10__cxxabiv111__terminateEPFvvE
                0x0002c280       0x2c c:/progra~2/codesourcery/source~1/bin/../lib/gcc/arm-none-eabi/4.5.2/../../../../arm-none-eabi/lib/thumb2\libstdc++.a(eh_terminate.o)
 .ARM.extab.text._ZSt9terminatev
                0x0002c2ac        0x0 c:/progra~2/codesourcery/source~1/bin/../lib/gcc/arm-none-eabi/4.5.2/../../../../arm-none-eabi/lib/thumb2\libstdc++.a(eh_terminate.o)
 .ARM.extab.text._ZN10__cxxabiv112__unexpectedEPFvvE
                0x0002c2ac        0xc c:/progra~2/codesourcery/source~1/bin/../lib/gcc/arm-none-eabi/4.5.2/../../../../arm-none-eabi/lib/thumb2\libstdc++.a(eh_terminate.o)
 .ARM.extab.text._ZSt10unexpectedv
                0x0002c2b8        0xc c:/progra~2/codesourcery/source~1/bin/../lib/gcc/arm-none-eabi/4.5.2/../../../../arm-none-eabi/lib/thumb2\libstdc++.a(eh_terminate.o)
 .ARM.extab.text._ZSt13set_terminatePFvvE
                0x0002c2c4        0x0 c:/progra~2/codesourcery/source~1/bin/../lib/gcc/arm-none-eabi/4.5.2/../../../../arm-none-eabi/lib/thumb2\libstdc++.a(eh_terminate.o)
 .ARM.extab.text._ZSt14set_unexpectedPFvvE
                0x0002c2c4        0x0 c:/progra~2/codesourcery/source~1/bin/../lib/gcc/arm-none-eabi/4.5.2/../../../../arm-none-eabi/lib/thumb2\libstdc++.a(eh_terminate.o)
 .ARM.extab.text.__cxa_call_terminate
                0x0002c2c4        0x0 c:/progra~2/codesourcery/source~1/bin/../lib/gcc/arm-none-eabi/4.5.2/../../../../arm-none-eabi/lib/thumb2\libstdc++.a(eh_call.o)
 .ARM.extab.text.__cxa_call_unexpected
                0x0002c2c4       0x28 c:/progra~2/codesourcery/source~1/bin/../lib/gcc/arm-none-eabi/4.5.2/../../../../arm-none-eabi/lib/thumb2\libstdc++.a(eh_call.o)
 .ARM.extab.text._ZL12read_sleb128PKhPl
                0x0002c2ec        0x0 c:/progra~2/codesourcery/source~1/bin/../lib/gcc/arm-none-eabi/4.5.2/../../../../arm-none-eabi/lib/thumb2\libstdc++.a(eh_personality.o)
 .ARM.extab.text._ZL28read_encoded_value_with_basehjPKhPj
                0x0002c2ec        0x0 c:/progra~2/codesourcery/source~1/bin/../lib/gcc/arm-none-eabi/4.5.2/../../../../arm-none-eabi/lib/thumb2\libstdc++.a(eh_personality.o)
 .ARM.extab.text._ZL21base_of_encoded_valuehP15_Unwind_Context
                0x0002c2ec        0x0 c:/progra~2/codesourcery/source~1/bin/../lib/gcc/arm-none-eabi/4.5.2/../../../../arm-none-eabi/lib/thumb2\libstdc++.a(eh_personality.o)
 .ARM.extab.text._ZL17parse_lsda_headerP15_Unwind_ContextPKhP16lsda_header_info
                0x0002c2ec        0x0 c:/progra~2/codesourcery/source~1/bin/../lib/gcc/arm-none-eabi/4.5.2/../../../../arm-none-eabi/lib/thumb2\libstdc++.a(eh_personality.o)
 .ARM.extab.text.__gxx_personality_v0
                0x0002c2ec       0x24 c:/progra~2/codesourcery/source~1/bin/../lib/gcc/arm-none-eabi/4.5.2/../../../../arm-none-eabi/lib/thumb2\libstdc++.a(eh_personality.o)
 .ARM.extab.text._ZL23__gxx_exception_cleanup19_Unwind_Reason_CodeP21_Unwind_Control_Block
                0x0002c310        0x0 c:/progra~2/codesourcery/source~1/bin/../lib/gcc/arm-none-eabi/4.5.2/../../../../arm-none-eabi/lib/thumb2\libstdc++.a(eh_throw.o)
 .ARM.extab.text.__cxa_throw
                0x0002c310        0x0 c:/progra~2/codesourcery/source~1/bin/../lib/gcc/arm-none-eabi/4.5.2/../../../../arm-none-eabi/lib/thumb2\libstdc++.a(eh_throw.o)
 .ARM.extab.text.__cxa_rethrow
                0x0002c310        0x0 c:/progra~2/codesourcery/source~1/bin/../lib/gcc/arm-none-eabi/4.5.2/../../../../arm-none-eabi/lib/thumb2\libstdc++.a(eh_throw.o)
 .ARM.extab.text.__cxa_get_globals_fast
                0x0002c310        0x0 c:/progra~2/codesourcery/source~1/bin/../lib/gcc/arm-none-eabi/4.5.2/../../../../arm-none-eabi/lib/thumb2\libstdc++.a(eh_globals.o)
 .ARM.extab.text.__cxa_get_globals
                0x0002c310        0x0 c:/progra~2/codesourcery/source~1/bin/../lib/gcc/arm-none-eabi/4.5.2/../../../../arm-none-eabi/lib/thumb2\libstdc++.a(eh_globals.o)
 .ARM.extab.text.__cxa_get_exception_ptr
                0x0002c310        0x0 c:/progra~2/codesourcery/source~1/bin/../lib/gcc/arm-none-eabi/4.5.2/../../../../arm-none-eabi/lib/thumb2\libstdc++.a(eh_catch.o)
 .ARM.extab.text.__cxa_begin_catch
                0x0002c310       0x20 c:/progra~2/codesourcery/source~1/bin/../lib/gcc/arm-none-eabi/4.5.2/../../../../arm-none-eabi/lib/thumb2\libstdc++.a(eh_catch.o)
 .ARM.extab.text.__cxa_end_catch
                0x0002c330        0x0 c:/progra~2/codesourcery/source~1/bin/../lib/gcc/arm-none-eabi/4.5.2/../../../../arm-none-eabi/lib/thumb2\libstdc++.a(eh_catch.o)
 .ARM.extab.text._ZSt18uncaught_exceptionv
                0x0002c330        0x0 c:/progra~2/codesourcery/source~1/bin/../lib/gcc/arm-none-eabi/4.5.2/../../../../arm-none-eabi/lib/thumb2\libstdc++.a(eh_catch.o)
 .ARM.extab.text._ZN9__gnu_cxx27__verbose_terminate_handlerEv
                0x0002c330       0x40 c:/progra~2/codesourcery/source~1/bin/../lib/gcc/arm-none-eabi/4.5.2/../../../../arm-none-eabi/lib/thumb2\libstdc++.a(vterminate.o)
 .ARM.extab.text._ZNSt9exceptionD2Ev
                0x0002c370        0x0 c:/progra~2/codesourcery/source~1/bin/../lib/gcc/arm-none-eabi/4.5.2/../../../../arm-none-eabi/lib/thumb2\libstdc++.a(eh_exception.o)
 .ARM.extab.text._ZNSt13bad_exceptionD2Ev
                0x0002c370        0x0 c:/progra~2/codesourcery/source~1/bin/../lib/gcc/arm-none-eabi/4.5.2/../../../../arm-none-eabi/lib/thumb2\libstdc++.a(eh_exception.o)
 .ARM.extab.text._ZN10__cxxabiv115__forced_unwindD2Ev
                0x0002c370        0x0 c:/progra~2/codesourcery/source~1/bin/../lib/gcc/arm-none-eabi/4.5.2/../../../../arm-none-eabi/lib/thumb2\libstdc++.a(eh_exception.o)
 .ARM.extab.text._ZN10__cxxabiv119__foreign_exceptionD2Ev
                0x0002c370        0x0 c:/progra~2/codesourcery/source~1/bin/../lib/gcc/arm-none-eabi/4.5.2/../../../../arm-none-eabi/lib/thumb2\libstdc++.a(eh_exception.o)
 .ARM.extab.text._ZNKSt9exception4whatEv
                0x0002c370        0x0 c:/progra~2/codesourcery/source~1/bin/../lib/gcc/arm-none-eabi/4.5.2/../../../../arm-none-eabi/lib/thumb2\libstdc++.a(eh_exception.o)
 .ARM.extab.text._ZNKSt13bad_exception4whatEv
                0x0002c370        0x0 c:/progra~2/codesourcery/source~1/bin/../lib/gcc/arm-none-eabi/4.5.2/../../../../arm-none-eabi/lib/thumb2\libstdc++.a(eh_exception.o)
 .ARM.extab.text._ZN10__cxxabiv119__foreign_exceptionD0Ev
                0x0002c370        0x0 c:/progra~2/codesourcery/source~1/bin/../lib/gcc/arm-none-eabi/4.5.2/../../../../arm-none-eabi/lib/thumb2\libstdc++.a(eh_exception.o)
 .ARM.extab.text._ZN10__cxxabiv115__forced_unwindD0Ev
                0x0002c370        0x0 c:/progra~2/codesourcery/source~1/bin/../lib/gcc/arm-none-eabi/4.5.2/../../../../arm-none-eabi/lib/thumb2\libstdc++.a(eh_exception.o)
 .ARM.extab.text._ZNSt13bad_exceptionD0Ev
                0x0002c370        0x0 c:/progra~2/codesourcery/source~1/bin/../lib/gcc/arm-none-eabi/4.5.2/../../../../arm-none-eabi/lib/thumb2\libstdc++.a(eh_exception.o)
 .ARM.extab.text._ZNSt9exceptionD0Ev
                0x0002c370        0x0 c:/progra~2/codesourcery/source~1/bin/../lib/gcc/arm-none-eabi/4.5.2/../../../../arm-none-eabi/lib/thumb2\libstdc++.a(eh_exception.o)
 .ARM.extab.text.__cxa_current_exception_type
                0x0002c370        0x0 c:/progra~2/codesourcery/source~1/bin/../lib/gcc/arm-none-eabi/4.5.2/../../../../arm-none-eabi/lib/thumb2\libstdc++.a(eh_type.o)
 .ARM.extab.text.__cxa_type_match
                0x0002c370        0x0 c:/progra~2/codesourcery/source~1/bin/../lib/gcc/arm-none-eabi/4.5.2/../../../../arm-none-eabi/lib/thumb2\libstdc++.a(eh_arm.o)
 .ARM.extab.text.__cxa_begin_cleanup
                0x0002c370        0x0 c:/progra~2/codesourcery/source~1/bin/../lib/gcc/arm-none-eabi/4.5.2/../../../../arm-none-eabi/lib/thumb2\libstdc++.a(eh_arm.o)
 .ARM.extab.text.__gnu_end_cleanup
                0x0002c370        0x0 c:/progra~2/codesourcery/source~1/bin/../lib/gcc/arm-none-eabi/4.5.2/../../../../arm-none-eabi/lib/thumb2\libstdc++.a(eh_arm.o)
 .ARM.extab.text.__cxa_allocate_exception
                0x0002c370        0x0 c:/progra~2/codesourcery/source~1/bin/../lib/gcc/arm-none-eabi/4.5.2/../../../../arm-none-eabi/lib/thumb2\libstdc++.a(eh_alloc.o)
 .ARM.extab.text.__cxa_free_exception
                0x0002c370        0x0 c:/progra~2/codesourcery/source~1/bin/../lib/gcc/arm-none-eabi/4.5.2/../../../../arm-none-eabi/lib/thumb2\libstdc++.a(eh_alloc.o)
 .ARM.extab.text.__cxa_allocate_dependent_exception
                0x0002c370        0x0 c:/progra~2/codesourcery/source~1/bin/../lib/gcc/arm-none-eabi/4.5.2/../../../../arm-none-eabi/lib/thumb2\libstdc++.a(eh_alloc.o)
 .ARM.extab.text.__cxa_free_dependent_exception
                0x0002c370        0x0 c:/progra~2/codesourcery/source~1/bin/../lib/gcc/arm-none-eabi/4.5.2/../../../../arm-none-eabi/lib/thumb2\libstdc++.a(eh_alloc.o)
 .ARM.extab.text._GLOBAL__I___cxa_allocate_exception
                0x0002c370        0x0 c:/progra~2/codesourcery/source~1/bin/../lib/gcc/arm-none-eabi/4.5.2/../../../../arm-none-eabi/lib/thumb2\libstdc++.a(eh_alloc.o)
 .ARM.extab     0x0002c370       0x18 c:/progra~2/codesourcery/source~1/bin/../lib/gcc/arm-none-eabi/4.5.2/thumb2\libgcc.a(unwind-arm.o)
 .ARM.extab     0x0002c388       0x18 c:/progra~2/codesourcery/source~1/bin/../lib/gcc/arm-none-eabi/4.5.2/thumb2\libgcc.a(pr-support.o)
 .ARM.extab     0x0002c3a0        0x0 c:/progra~2/codesourcery/source~1/bin/../lib/gcc/arm-none-eabi/4.5.2/thumb2\libgcc.a(_divdi3.o)
 .ARM.extab     0x0002c3a0        0x0 c:/progra~2/codesourcery/source~1/bin/../lib/gcc/arm-none-eabi/4.5.2/thumb2\libgcc.a(_udivdi3.o)
 *(.gcc_except_table)
 *(.eh_frame_hdr)
 *(.eh_frame)
                0x0002c3a0                . = ALIGN (0x4)
 *(.init)
 .init          0x0002c3a0        0x4 c:/progra~2/codesourcery/source~1/bin/../lib/gcc/arm-none-eabi/4.5.2/thumb2/crti.o
                0x0002c3a0                _init
 .init          0x0002c3a4        0x8 c:/progra~2/codesourcery/source~1/bin/../lib/gcc/arm-none-eabi/4.5.2/thumb2/crtn.o
                0x0002c3ac                . = ALIGN (0x4)
                0x0002c3ac                __preinit_array_start = .
 *(.preinit_array)
                0x0002c3ac                __preinit_array_end = .
                0x0002c3ac                . = ALIGN (0x4)
                0x0002c3ac                __init_array_start = .
 *(SORT(.init_array.*))
 *(.init_array)
 .init_array    0x0002c3ac        0x4 c:/progra~2/codesourcery/source~1/bin/../lib/gcc/arm-none-eabi/4.5.2/thumb2/crtbegin.o
 .init_array    0x0002c3b0        0x4 build\Command.o
 .init_array    0x0002c3b4        0x4 build\DebugPacketProcessor.o
 .init_array    0x0002c3b8        0x4 build\EepromMap.o
 .init_array    0x0002c3bc        0x4 build\Host.o
 .init_array    0x0002c3c0        0x4 build\Interface.o
 .init_array    0x0002c3c4        0x4 build\LPCPort.o
 .init_array    0x0002c3c8        0x4 build\Main.o
 .init_array    0x0002c3cc        0x4 build\Menu.o
 .init_array    0x0002c3d0        0x4 build\Microsteps.o
 .init_array    0x0002c3d4        0x4 build\Motherboard.o
 .init_array    0x0002c3d8        0x4 build\StepperInterface.o
 .init_array    0x0002c3dc        0x4 build\Steppers.o
 .init_array    0x0002c3e0        0x4 build\Tool.o
 .init_array    0x0002c3e4        0x4 build\UART.o
 .init_array    0x0002c3e8        0x4 c:/progra~2/codesourcery/source~1/bin/../lib/gcc/arm-none-eabi/4.5.2/../../../../arm-none-eabi/lib/thumb2\libstdc++.a(eh_alloc.o)
                0x0002c3ec                __init_array_end = .
                0x0002c3ec                . = ALIGN (0x4)
 *crtbegin.o(.ctors)
 *(EXCLUDE_FILE(*crtend.o) .ctors)
 *(SORT(.ctors.*))
 *crtend.o(.ctors)
                0x0002c3ec                . = ALIGN (0x4)
 *(.fini)
 .fini          0x0002c3ec        0x4 c:/progra~2/codesourcery/source~1/bin/../lib/gcc/arm-none-eabi/4.5.2/thumb2/crti.o
                0x0002c3ec                _fini
 .fini          0x0002c3f0        0x8 c:/progra~2/codesourcery/source~1/bin/../lib/gcc/arm-none-eabi/4.5.2/thumb2/crtn.o
                0x0002c3f8                . = ALIGN (0x4)
                0x0002c3f8                __fini_array_start = .
 *(.fini_array)
 .fini_array    0x0002c3f8        0x4 c:/progra~2/codesourcery/source~1/bin/../lib/gcc/arm-none-eabi/4.5.2/thumb2/crtbegin.o
 *(SORT(.fini_array.*))
                0x0002c3fc                __fini_array_end = .
 *crtbegin.o(.dtors)
 *(EXCLUDE_FILE(*crtend.o) .dtors)
 *(SORT(.dtors.*))
 *crtend.o(.dtors)
                0x0002c3fc                . = ALIGN (0x4)
                0x0002c3fc                __cs3_regions = .
                0x0002c3fc        0x4 LONG 0x0
                0x0002c400        0x4 LONG 0x2cd90 __cs3_region_init_ram
                0x0002c404        0x4 LONG 0x10001000 __cs3_region_start_ram
                0x0002c408        0x4 LONG 0x7d8 __cs3_region_init_size_ram
                0x0002c40c        0x4 LONG 0x17f8 __cs3_region_zero_size_ram
                0x0002c410                __exidx_start = .

.v4_bx          0x0002c410        0x0
 .v4_bx         0x00000000        0x0 linker stubs

.ARM.exidx      0x0002c410      0x980
 *(.ARM.exidx* .gnu.linkonce.armexidx.*)
 .ARM.exidx     0x0002c418        0x0 build\system\mini_cpp.o
                                 0x20 (size before relaxing)
 .ARM.exidx.cs3.reset
                0x0002c410        0x8 build\system\startup_LPC17xx.o
 .ARM.exidx     0x0002c418       0x40 build\IAP_internal_flash_write\IAP.o
                                 0x48 (size before relaxing)
 .ARM.exidx     0x0002c458        0x0 src\shared\PID.o
                                 0x38 (size before relaxing)
 .ARM.exidx.text._ZN6Packet5errorEh
                0x0002c458        0x0 src\shared\Packet.o
                                  0x8 (size before relaxing)
 .ARM.exidx     0x0002c458        0x0 src\shared\Packet.o
                                 0x80 (size before relaxing)
 .ARM.exidx.text._ZN6PacketC2Ev
                0x0002c458        0x0 src\shared\Packet.o
                                  0x8 (size before relaxing)
 .ARM.exidx.text._ZN5PointC2Elllll
                0x0002c490        0x0 build\Command.o
                                  0x8 (size before relaxing)
 .ARM.exidx.text._ZN5PointC2Elll
                0x0002c490        0x0 build\Command.o
                                  0x8 (size before relaxing)
 .ARM.exidx.text._ZNK5PointixEj
                0x0002c490        0x0 build\Command.o
                                  0x8 (size before relaxing)
 .ARM.exidx.text._ZN5PointixEj
                0x0002c490        0x0 build\Command.o
                                  0x8 (size before relaxing)
 .ARM.exidx.text._ZNK6Packet8hasErrorEv
                0x0002c490        0x0 build\Command.o
                                  0x8 (size before relaxing)
 .ARM.exidx     0x0002c458       0x38 build\Command.o
                                 0x60 (size before relaxing)
 .ARM.exidx.text._ZN19CircularBufferTemplIhEC2EtPh
                0x0002c490        0x0 build\Command.o
                                  0x8 (size before relaxing)
 .ARM.exidx.text._ZNK19CircularBufferTemplIhE20getRemainingCapacityEv
                0x0002c490        0x0 build\Command.o
                                  0x8 (size before relaxing)
 .ARM.exidx.text._ZNK19CircularBufferTemplIhE7isEmptyEv
                0x0002c490        0x0 build\Command.o
                                  0x8 (size before relaxing)
 .ARM.exidx.text._ZN19CircularBufferTemplIhE4pushEh
                0x0002c490        0x0 build\Command.o
                                  0x8 (size before relaxing)
 .ARM.exidx.text._ZN19CircularBufferTemplIhE3popEv
                0x0002c490        0x0 build\Command.o
                                  0x8 (size before relaxing)
 .ARM.exidx.text._ZN19CircularBufferTemplIhE5resetEv
                0x0002c490        0x0 build\Command.o
                                  0x8 (size before relaxing)
 .ARM.exidx.text._ZNK19CircularBufferTemplIhE9getLengthEv
                0x0002c490        0x0 build\Command.o
                                  0x8 (size before relaxing)
 .ARM.exidx.text._ZN19CircularBufferTemplIhEixEt
                0x0002c490        0x0 build\Command.o
                                  0x8 (size before relaxing)
 .ARM.exidx.text._ZNK6Packet9getLengthEv
                0x0002c4a0        0x0 build\DebugPacketProcessor.o
                                  0x8 (size before relaxing)
 .ARM.exidx.text._ZN11Motherboard8getBoardEv
                0x0002c4a0        0x0 build\DebugPacketProcessor.o
                                  0x8 (size before relaxing)
 .ARM.exidx     0x0002c490       0x10 build\DebugPacketProcessor.o
                                 0x18 (size before relaxing)
 .ARM.exidx     0x0002c4a0        0x0 build\Delay.o
                                 0x20 (size before relaxing)
 .ARM.exidx.text._ZN3IAPC2Ev
                0x0002c510        0x0 build\EepromMap.o
                                  0x8 (size before relaxing)
 .ARM.exidx     0x0002c4a0       0x70 build\EepromMap.o
                                 0x88 (size before relaxing)
 .ARM.exidx.text._ZNK6Packet12getErrorCodeEv
                0x0002c550        0x0 build\Host.o
                                  0x8 (size before relaxing)
 .ARM.exidx.text._ZNK6Packet7getDataEv
                0x0002c550        0x0 build\Host.o
                                  0x8 (size before relaxing)
 .ARM.exidx.text._ZNK8InPacket10isFinishedEv
                0x0002c550        0x0 build\Host.o
                                  0x8 (size before relaxing)
 .ARM.exidx.text._ZNK8InPacket9isStartedEv
                0x0002c550        0x0 build\Host.o
                                  0x8 (size before relaxing)
 .ARM.exidx.text._ZN8InPacket7timeoutEv
                0x0002c550        0x8 build\Host.o
 .ARM.exidx.text._ZNK9OutPacket9isSendingEv
                0x0002c558        0x8 build\Host.o
 .ARM.exidx.text._ZN4UART11getHostUARTEv
                0x0002c560        0x0 build\Host.o
                                  0x8 (size before relaxing)
 .ARM.exidx.text._ZNK7Timeout8isActiveEv
                0x0002c560        0x0 build\Host.o
                                  0x8 (size before relaxing)
 .ARM.exidx.text._ZN11Motherboard19getStepperInterfaceEi
                0x0002c560        0x0 build\Host.o
                                  0x8 (size before relaxing)
 .ARM.exidx     0x0002c510       0x40 build\Host.o
                                 0x58 (size before relaxing)
 .ARM.exidx.text._ZN4host13handleVersionERK8InPacketR9OutPacket
                0x0002c560        0x8 build\Host.o
 .ARM.exidx.text._ZN4host18handleGetBuildNameERK8InPacketR9OutPacket
                0x0002c568        0x8 build\Host.o
 .ARM.exidx.text._ZN4host19handleGetBufferSizeERK8InPacketR9OutPacket
                0x0002c570        0x8 build\Host.o
 .ARM.exidx.text._ZN4host17handleGetPositionERK8InPacketR9OutPacket
                0x0002c578        0x8 build\Host.o
 .ARM.exidx.text._ZN4host20handleGetPositionExtERK8InPacketR9OutPacket
                0x0002c580        0x8 build\Host.o
 .ARM.exidx.text._ZN4host19handleCaptureToFileERK8InPacketR9OutPacket
                0x0002c588        0x8 build\Host.o
 .ARM.exidx.text._ZN4host16handleEndCaptureERK8InPacketR9OutPacket
                0x0002c590        0x8 build\Host.o
 .ARM.exidx.text._ZN4host14handlePlaybackERK8InPacketR9OutPacket
                0x0002c598        0x8 build\Host.o
 .ARM.exidx.text._ZN4host18handleNextFilenameERK8InPacketR9OutPacket
                0x0002c5a0        0x8 build\Host.o
 .ARM.exidx.text._ZN4host15handleToolQueryERK8InPacketR9OutPacket
                0x0002c5a8        0x8 build\Host.o
 .ARM.exidx.text._ZN4host11handlePauseERK8InPacketR9OutPacket
                0x0002c5b0        0x8 build\Host.o
 .ARM.exidx.text._ZN4host16handleIsFinishedERK8InPacketR9OutPacket
                0x0002c5b8        0x8 build\Host.o
 .ARM.exidx.text._ZN4host16handleReadEepromERK8InPacketR9OutPacket
                0x0002c5c0        0x8 build\Host.o
 .ARM.exidx.text._ZN4host17handleWriteEepromERK8InPacketR9OutPacket
                0x0002c5c8        0x8 build\Host.o
 .ARM.exidx.text._ZN4host18handleExtendedStopERK8InPacketR9OutPacket
                0x0002c5d0        0x8 build\Host.o
 .ARM.exidx.text._ZN4host27handleGetCommunicationStatsERK8InPacketR9OutPacket
                0x0002c5d8        0x8 build\Host.o
 .ARM.exidx     0x0002c5e0       0x28 build\Interface.o
                                 0x48 (size before relaxing)
 .ARM.exidx.text._ZN4Port15setPinDirectionEhb
                0x0002c638        0x8 build\InterfaceBoard.o
 .ARM.exidx.text._ZN4Port6setPinEhb
                0x0002c640        0x8 build\InterfaceBoard.o
 .ARM.exidx.text._ZN3PinC2ER4Porth
                0x0002c648        0x8 build\InterfaceBoard.o
 .ARM.exidx.text._ZN3Pin12setDirectionEb
                0x0002c650        0x8 build\InterfaceBoard.o
 .ARM.exidx.text._ZN3Pin8setValueEb
                0x0002c658        0x8 build\InterfaceBoard.o
 .ARM.exidx     0x0002c608       0x30 build\InterfaceBoard.o
                                 0x50 (size before relaxing)
 .ARM.exidx.text._ZN6ScreenC2Ev
                0x0002c660        0x8 build\InterfaceBoard.o
 .ARM.exidx.text._ZN12SplashScreenC2Ev
                0x0002c668        0x0 build\InterfaceBoard.o
                                  0x8 (size before relaxing)
 .ARM.exidx.text._ZN11MonitorModeC2Ev
                0x0002c668        0x8 build\InterfaceBoard.o
 .ARM.exidx.text._ZN4PortC2Eh
                0x0002c678        0x0 build\LPCPort.o
                                  0x8 (size before relaxing)
 .ARM.exidx     0x0002c670        0x8 build\LPCPort.o
                                 0x10 (size before relaxing)
 .ARM.exidx.text._ZN4PortC2Ev
                0x0002c760        0x8 build\LiquidCrystal.o
 .ARM.exidx.text._ZN4Port6isNullEv
                0x0002c768        0x0 build\LiquidCrystal.o
                                  0x8 (size before relaxing)
 .ARM.exidx.text._ZN3PinC2Ev
                0x0002c768        0x0 build\LiquidCrystal.o
                                  0x8 (size before relaxing)
 .ARM.exidx.text._ZN3Pin6isNullEv
                0x0002c768        0x0 build\LiquidCrystal.o
                                  0x8 (size before relaxing)
 .ARM.exidx     0x0002c678       0xe8 build\LiquidCrystal.o
 .ARM.exidx.text._ZN13LiquidCrystal7commandEh
                0x0002c768        0x8 build\LiquidCrystal.o
 .ARM.exidx.text._ZN13LiquidCrystal5writeEh
                0x0002c770        0x8 build\LiquidCrystal.o
 .ARM.exidx     0x0002c778       0x68 build\Main.o
                                 0x70 (size before relaxing)
 .ARM.exidx.text._ZN4Menu13getUpdateRateEv
                0x0002c8d8        0x0 build\Menu.o
                                  0x8 (size before relaxing)
 .ARM.exidx.text._ZN12SplashScreen13getUpdateRateEv
                0x0002c8d8        0x0 build\Menu.o
                                  0x8 (size before relaxing)
 .ARM.exidx.text._ZN7JogMode13getUpdateRateEv
                0x0002c8d8        0x0 build\Menu.o
                                  0x8 (size before relaxing)
 .ARM.exidx.text._ZN9SnakeMode13getUpdateRateEv
                0x0002c8d8        0x0 build\Menu.o
                                  0x8 (size before relaxing)
 .ARM.exidx.text._ZN11MonitorMode13getUpdateRateEv
                0x0002c8d8        0x0 build\Menu.o
                                  0x8 (size before relaxing)
 .ARM.exidx.text._ZN7JogModeC2Ev
                0x0002c8d8        0x0 build\Menu.o
                                  0x8 (size before relaxing)
 .ARM.exidx.text._ZN9SnakeModeC2Ev
                0x0002c8d8        0x0 build\Menu.o
                                  0x8 (size before relaxing)
 .ARM.exidx     0x0002c7e0       0xf8 build\Menu.o
                                0x118 (size before relaxing)
 .ARM.exidx.text._ZN4MenuC2Ev
                0x0002c8d8        0x0 build\Menu.o
                                  0x8 (size before relaxing)
 .ARM.exidx     0x0002c8d8       0x10 build\Microsteps.o
                                 0x18 (size before relaxing)
 .ARM.exidx     0x0002c8e8       0x98 build\Motherboard.o
                                 0xb0 (size before relaxing)
 .ARM.exidx.text._ZN4UART12getSlaveUARTEv
                0x0002c980        0x0 build\Motherboard.o
                                  0x8 (size before relaxing)
 .ARM.exidx.text._ZN16StepperInterfaceC2Ev
                0x0002c980        0x0 build\Motherboard.o
                                  0x8 (size before relaxing)
 .ARM.exidx.text._ZN16StepperInterfaceC2ERK3PinS2_S2_S2_S2_
                0x0002c980        0x0 build\Motherboard.o
                                  0x8 (size before relaxing)
 .ARM.exidx     0x0002c980        0x0 build\PID.o
                                 0x38 (size before relaxing)
 .ARM.exidx     0x0002c980        0x0 build\Packet.o
                                 0x80 (size before relaxing)
 .ARM.exidx     0x0002c980       0x98 build\SDCard.o
                                 0xb0 (size before relaxing)
 .ARM.exidx.text._ZN4Port6getPinEh
                0x0002ca50        0x8 build\StepperInterface.o
 .ARM.exidx.text._ZN3Pin8getValueEv
                0x0002ca58        0x8 build\StepperInterface.o
 .ARM.exidx     0x0002ca18       0x38 build\StepperInterface.o
                                 0x40 (size before relaxing)
 .ARM.exidx.text._ZN8steppers4AxisC2Ev
                0x0002ca98        0x0 build\Steppers.o
                                  0x8 (size before relaxing)
 .ARM.exidx.text._ZN8steppers4AxisC2ER16StepperInterface
                0x0002ca98        0x0 build\Steppers.o
                                  0x8 (size before relaxing)
 .ARM.exidx.text._ZN8steppers4Axis9setTargetElb
                0x0002ca98        0x8 build\Steppers.o
 .ARM.exidx.text._ZN8steppers4Axis9setHomingEb
                0x0002caa0        0x8 build\Steppers.o
 .ARM.exidx.text._ZN8steppers4Axis14definePositionEl
                0x0002caa8        0x8 build\Steppers.o
 .ARM.exidx.text._ZN8steppers4Axis13enableStepperEb
                0x0002cab0        0x8 build\Steppers.o
 .ARM.exidx.text._ZN8steppers4Axis5resetEv
                0x0002cab8        0x8 build\Steppers.o
 .ARM.exidx.text._ZN8steppers4Axis11doInterruptEl
                0x0002cac0        0x8 build\Steppers.o
 .ARM.exidx.text._ZN8steppers4Axis8doHomingEl
                0x0002cac8        0x8 build\Steppers.o
 .ARM.exidx     0x0002ca60       0x38 build\Steppers.o
                                 0x68 (size before relaxing)
 .ARM.exidx     0x0002cad0       0x28 build\Timeout.o
 .ARM.exidx     0x0002caf8       0x90 build\Tool.o
                                 0xc8 (size before relaxing)
 .ARM.exidx.text._Z6listenv
                0x0002cbc0        0x8 build\UART.o
 .ARM.exidx.text._Z5speakv
                0x0002cbc8        0x8 build\UART.o
 .ARM.exidx     0x0002cb88       0x38 build\UART.o
                                 0x40 (size before relaxing)
 .ARM.exidx.text._ZNK10__cxxabiv120__si_class_type_info11__do_upcastEPKNS_17__class_type_infoEPKvRNS1_15__upcast_resultE
                0x0002cbd0        0x8 c:/progra~2/codesourcery/source~1/bin/../lib/gcc/arm-none-eabi/4.5.2/../../../../arm-none-eabi/lib/thumb2\libstdc++.a(si_class_type_info.o)
 .ARM.exidx.text._ZNK10__cxxabiv120__si_class_type_info12__do_dyncastEiNS_17__class_type_info10__sub_kindEPKS1_PKvS4_S6_RNS1_16__dyncast_resultE
                0x0002cbd8        0x8 c:/progra~2/codesourcery/source~1/bin/../lib/gcc/arm-none-eabi/4.5.2/../../../../arm-none-eabi/lib/thumb2\libstdc++.a(si_class_type_info.o)
 .ARM.exidx.text._ZNK10__cxxabiv120__si_class_type_info20__do_find_public_srcEiPKvPKNS_17__class_type_infoES2_
                0x0002cbe0        0x8 c:/progra~2/codesourcery/source~1/bin/../lib/gcc/arm-none-eabi/4.5.2/../../../../arm-none-eabi/lib/thumb2\libstdc++.a(si_class_type_info.o)
 .ARM.exidx.text._ZN10__cxxabiv120__si_class_type_infoD2Ev
                0x0002cbe8        0x8 c:/progra~2/codesourcery/source~1/bin/../lib/gcc/arm-none-eabi/4.5.2/../../../../arm-none-eabi/lib/thumb2\libstdc++.a(si_class_type_info.o)
 .ARM.exidx.text._ZN10__cxxabiv120__si_class_type_infoD0Ev
                0x0002cbf0        0x0 c:/progra~2/codesourcery/source~1/bin/../lib/gcc/arm-none-eabi/4.5.2/../../../../arm-none-eabi/lib/thumb2\libstdc++.a(si_class_type_info.o)
                                  0x8 (size before relaxing)
 .ARM.exidx.text.__cxa_pure_virtual
                0x0002cbf0        0x8 c:/progra~2/codesourcery/source~1/bin/../lib/gcc/arm-none-eabi/4.5.2/../../../../arm-none-eabi/lib/thumb2\libstdc++.a(pure.o)
 .ARM.exidx.text._ZNK10__cxxabiv117__class_type_info11__do_upcastEPKS0_PPv
                0x0002cbf8        0x8 c:/progra~2/codesourcery/source~1/bin/../lib/gcc/arm-none-eabi/4.5.2/../../../../arm-none-eabi/lib/thumb2\libstdc++.a(class_type_info.o)
 .ARM.exidx.text._ZNK10__cxxabiv117__class_type_info20__do_find_public_srcEiPKvPKS0_S2_
                0x0002cc00        0x8 c:/progra~2/codesourcery/source~1/bin/../lib/gcc/arm-none-eabi/4.5.2/../../../../arm-none-eabi/lib/thumb2\libstdc++.a(class_type_info.o)
 .ARM.exidx.text._ZNK10__cxxabiv117__class_type_info11__do_upcastEPKS0_PKvRNS0_15__upcast_resultE
                0x0002cc08        0x8 c:/progra~2/codesourcery/source~1/bin/../lib/gcc/arm-none-eabi/4.5.2/../../../../arm-none-eabi/lib/thumb2\libstdc++.a(class_type_info.o)
 .ARM.exidx.text._ZNK10__cxxabiv117__class_type_info12__do_dyncastEiNS0_10__sub_kindEPKS0_PKvS3_S5_RNS0_16__dyncast_resultE
                0x0002cc10        0x8 c:/progra~2/codesourcery/source~1/bin/../lib/gcc/arm-none-eabi/4.5.2/../../../../arm-none-eabi/lib/thumb2\libstdc++.a(class_type_info.o)
 .ARM.exidx.text._ZNK10__cxxabiv117__class_type_info10__do_catchEPKSt9type_infoPPvj
                0x0002cc18        0x8 c:/progra~2/codesourcery/source~1/bin/../lib/gcc/arm-none-eabi/4.5.2/../../../../arm-none-eabi/lib/thumb2\libstdc++.a(class_type_info.o)
 .ARM.exidx.text._ZN10__cxxabiv117__class_type_infoD2Ev
                0x0002cc20        0x8 c:/progra~2/codesourcery/source~1/bin/../lib/gcc/arm-none-eabi/4.5.2/../../../../arm-none-eabi/lib/thumb2\libstdc++.a(class_type_info.o)
 .ARM.exidx.text._ZN10__cxxabiv117__class_type_infoD0Ev
                0x0002cc28        0x0 c:/progra~2/codesourcery/source~1/bin/../lib/gcc/arm-none-eabi/4.5.2/../../../../arm-none-eabi/lib/thumb2\libstdc++.a(class_type_info.o)
                                  0x8 (size before relaxing)
 .ARM.exidx.text._ZNSt9type_infoD2Ev
                0x0002cc28        0x8 c:/progra~2/codesourcery/source~1/bin/../lib/gcc/arm-none-eabi/4.5.2/../../../../arm-none-eabi/lib/thumb2\libstdc++.a(tinfo.o)
 .ARM.exidx.text._ZNKSt9type_info14__is_pointer_pEv
                0x0002cc30        0x0 c:/progra~2/codesourcery/source~1/bin/../lib/gcc/arm-none-eabi/4.5.2/../../../../arm-none-eabi/lib/thumb2\libstdc++.a(tinfo.o)
                                  0x8 (size before relaxing)
 .ARM.exidx.text._ZNKSt9type_info15__is_function_pEv
                0x0002cc30        0x0 c:/progra~2/codesourcery/source~1/bin/../lib/gcc/arm-none-eabi/4.5.2/../../../../arm-none-eabi/lib/thumb2\libstdc++.a(tinfo.o)
                                  0x8 (size before relaxing)
 .ARM.exidx.text._ZNKSt9type_info11__do_upcastEPKN10__cxxabiv117__class_type_infoEPPv
                0x0002cc30        0x0 c:/progra~2/codesourcery/source~1/bin/../lib/gcc/arm-none-eabi/4.5.2/../../../../arm-none-eabi/lib/thumb2\libstdc++.a(tinfo.o)
                                  0x8 (size before relaxing)
 .ARM.exidx.text._ZNSt9type_infoD0Ev
                0x0002cc30        0x0 c:/progra~2/codesourcery/source~1/bin/../lib/gcc/arm-none-eabi/4.5.2/../../../../arm-none-eabi/lib/thumb2\libstdc++.a(tinfo.o)
                                  0x8 (size before relaxing)
 .ARM.exidx.text._ZNKSt9type_infoeqERKS_
                0x0002cc30        0x0 c:/progra~2/codesourcery/source~1/bin/../lib/gcc/arm-none-eabi/4.5.2/../../../../arm-none-eabi/lib/thumb2\libstdc++.a(tinfo.o)
                                  0x8 (size before relaxing)
 .ARM.exidx.text._ZNKSt9type_info10__do_catchEPKS_PPvj
                0x0002cc30        0x0 c:/progra~2/codesourcery/source~1/bin/../lib/gcc/arm-none-eabi/4.5.2/../../../../arm-none-eabi/lib/thumb2\libstdc++.a(tinfo.o)
                                  0x8 (size before relaxing)
 .ARM.exidx.text._ZN10__cxxabiv111__terminateEPFvvE
                0x0002cc30        0x8 c:/progra~2/codesourcery/source~1/bin/../lib/gcc/arm-none-eabi/4.5.2/../../../../arm-none-eabi/lib/thumb2\libstdc++.a(eh_terminate.o)
 .ARM.exidx.text._ZSt9terminatev
                0x0002cc38        0x8 c:/progra~2/codesourcery/source~1/bin/../lib/gcc/arm-none-eabi/4.5.2/../../../../arm-none-eabi/lib/thumb2\libstdc++.a(eh_terminate.o)
 .ARM.exidx.text._ZN10__cxxabiv112__unexpectedEPFvvE
                0x0002cc40        0x8 c:/progra~2/codesourcery/source~1/bin/../lib/gcc/arm-none-eabi/4.5.2/../../../../arm-none-eabi/lib/thumb2\libstdc++.a(eh_terminate.o)
 .ARM.exidx.text._ZSt10unexpectedv
                0x0002cc48        0x8 c:/progra~2/codesourcery/source~1/bin/../lib/gcc/arm-none-eabi/4.5.2/../../../../arm-none-eabi/lib/thumb2\libstdc++.a(eh_terminate.o)
 .ARM.exidx.text._ZSt13set_terminatePFvvE
                0x0002cc50        0x8 c:/progra~2/codesourcery/source~1/bin/../lib/gcc/arm-none-eabi/4.5.2/../../../../arm-none-eabi/lib/thumb2\libstdc++.a(eh_terminate.o)
 .ARM.exidx.text._ZSt14set_unexpectedPFvvE
                0x0002cc58        0x0 c:/progra~2/codesourcery/source~1/bin/../lib/gcc/arm-none-eabi/4.5.2/../../../../arm-none-eabi/lib/thumb2\libstdc++.a(eh_terminate.o)
                                  0x8 (size before relaxing)
 .ARM.exidx.text.__cxa_call_terminate
                0x0002cc58        0x0 c:/progra~2/codesourcery/source~1/bin/../lib/gcc/arm-none-eabi/4.5.2/../../../../arm-none-eabi/lib/thumb2\libstdc++.a(eh_call.o)
                                  0x8 (size before relaxing)
 .ARM.exidx.text.__cxa_call_unexpected
                0x0002cc58        0x8 c:/progra~2/codesourcery/source~1/bin/../lib/gcc/arm-none-eabi/4.5.2/../../../../arm-none-eabi/lib/thumb2\libstdc++.a(eh_call.o)
 .ARM.exidx.text._ZL12read_sleb128PKhPl
                0x0002cc60        0x8 c:/progra~2/codesourcery/source~1/bin/../lib/gcc/arm-none-eabi/4.5.2/../../../../arm-none-eabi/lib/thumb2\libstdc++.a(eh_personality.o)
 .ARM.exidx.text._ZL28read_encoded_value_with_basehjPKhPj
                0x0002cc68        0x8 c:/progra~2/codesourcery/source~1/bin/../lib/gcc/arm-none-eabi/4.5.2/../../../../arm-none-eabi/lib/thumb2\libstdc++.a(eh_personality.o)
 .ARM.exidx.text._ZL21base_of_encoded_valuehP15_Unwind_Context
                0x0002cc70        0x8 c:/progra~2/codesourcery/source~1/bin/../lib/gcc/arm-none-eabi/4.5.2/../../../../arm-none-eabi/lib/thumb2\libstdc++.a(eh_personality.o)
 .ARM.exidx.text._ZL17parse_lsda_headerP15_Unwind_ContextPKhP16lsda_header_info
                0x0002cc78        0x8 c:/progra~2/codesourcery/source~1/bin/../lib/gcc/arm-none-eabi/4.5.2/../../../../arm-none-eabi/lib/thumb2\libstdc++.a(eh_personality.o)
 .ARM.exidx.text.__gxx_personality_v0
                0x0002cc80        0x8 c:/progra~2/codesourcery/source~1/bin/../lib/gcc/arm-none-eabi/4.5.2/../../../../arm-none-eabi/lib/thumb2\libstdc++.a(eh_personality.o)
 .ARM.exidx.text._ZL23__gxx_exception_cleanup19_Unwind_Reason_CodeP21_Unwind_Control_Block
                0x0002cc88        0x8 c:/progra~2/codesourcery/source~1/bin/../lib/gcc/arm-none-eabi/4.5.2/../../../../arm-none-eabi/lib/thumb2\libstdc++.a(eh_throw.o)
 .ARM.exidx.text.__cxa_throw
                0x0002cc90        0x8 c:/progra~2/codesourcery/source~1/bin/../lib/gcc/arm-none-eabi/4.5.2/../../../../arm-none-eabi/lib/thumb2\libstdc++.a(eh_throw.o)
 .ARM.exidx.text.__cxa_rethrow
                0x0002cc98        0x8 c:/progra~2/codesourcery/source~1/bin/../lib/gcc/arm-none-eabi/4.5.2/../../../../arm-none-eabi/lib/thumb2\libstdc++.a(eh_throw.o)
 .ARM.exidx.text.__cxa_get_globals_fast
                0x0002cca0        0x8 c:/progra~2/codesourcery/source~1/bin/../lib/gcc/arm-none-eabi/4.5.2/../../../../arm-none-eabi/lib/thumb2\libstdc++.a(eh_globals.o)
 .ARM.exidx.text.__cxa_get_globals
                0x0002cca8        0x0 c:/progra~2/codesourcery/source~1/bin/../lib/gcc/arm-none-eabi/4.5.2/../../../../arm-none-eabi/lib/thumb2\libstdc++.a(eh_globals.o)
                                  0x8 (size before relaxing)
 .ARM.exidx.text.__cxa_get_exception_ptr
                0x0002cca8        0x0 c:/progra~2/codesourcery/source~1/bin/../lib/gcc/arm-none-eabi/4.5.2/../../../../arm-none-eabi/lib/thumb2\libstdc++.a(eh_catch.o)
                                  0x8 (size before relaxing)
 .ARM.exidx.text.__cxa_begin_catch
                0x0002cca8        0x8 c:/progra~2/codesourcery/source~1/bin/../lib/gcc/arm-none-eabi/4.5.2/../../../../arm-none-eabi/lib/thumb2\libstdc++.a(eh_catch.o)
 .ARM.exidx.text.__cxa_end_catch
                0x0002ccb0        0x8 c:/progra~2/codesourcery/source~1/bin/../lib/gcc/arm-none-eabi/4.5.2/../../../../arm-none-eabi/lib/thumb2\libstdc++.a(eh_catch.o)
 .ARM.exidx.text._ZSt18uncaught_exceptionv
                0x0002ccb8        0x0 c:/progra~2/codesourcery/source~1/bin/../lib/gcc/arm-none-eabi/4.5.2/../../../../arm-none-eabi/lib/thumb2\libstdc++.a(eh_catch.o)
                                  0x8 (size before relaxing)
 .ARM.exidx.text._ZN9__gnu_cxx27__verbose_terminate_handlerEv
                0x0002ccb8        0x8 c:/progra~2/codesourcery/source~1/bin/../lib/gcc/arm-none-eabi/4.5.2/../../../../arm-none-eabi/lib/thumb2\libstdc++.a(vterminate.o)
 .ARM.exidx.text._ZNSt9exceptionD2Ev
                0x0002ccc0        0x8 c:/progra~2/codesourcery/source~1/bin/../lib/gcc/arm-none-eabi/4.5.2/../../../../arm-none-eabi/lib/thumb2\libstdc++.a(eh_exception.o)
 .ARM.exidx.text._ZNSt13bad_exceptionD2Ev
                0x0002ccc8        0x0 c:/progra~2/codesourcery/source~1/bin/../lib/gcc/arm-none-eabi/4.5.2/../../../../arm-none-eabi/lib/thumb2\libstdc++.a(eh_exception.o)
                                  0x8 (size before relaxing)
 .ARM.exidx.text._ZN10__cxxabiv115__forced_unwindD2Ev
                0x0002ccc8        0x0 c:/progra~2/codesourcery/source~1/bin/../lib/gcc/arm-none-eabi/4.5.2/../../../../arm-none-eabi/lib/thumb2\libstdc++.a(eh_exception.o)
                                  0x8 (size before relaxing)
 .ARM.exidx.text._ZN10__cxxabiv119__foreign_exceptionD2Ev
                0x0002ccc8        0x0 c:/progra~2/codesourcery/source~1/bin/../lib/gcc/arm-none-eabi/4.5.2/../../../../arm-none-eabi/lib/thumb2\libstdc++.a(eh_exception.o)
                                  0x8 (size before relaxing)
 .ARM.exidx.text._ZNKSt9exception4whatEv
                0x0002ccc8        0x0 c:/progra~2/codesourcery/source~1/bin/../lib/gcc/arm-none-eabi/4.5.2/../../../../arm-none-eabi/lib/thumb2\libstdc++.a(eh_exception.o)
                                  0x8 (size before relaxing)
 .ARM.exidx.text._ZNKSt13bad_exception4whatEv
                0x0002ccc8        0x0 c:/progra~2/codesourcery/source~1/bin/../lib/gcc/arm-none-eabi/4.5.2/../../../../arm-none-eabi/lib/thumb2\libstdc++.a(eh_exception.o)
                                  0x8 (size before relaxing)
 .ARM.exidx.text._ZN10__cxxabiv119__foreign_exceptionD0Ev
                0x0002ccc8        0x0 c:/progra~2/codesourcery/source~1/bin/../lib/gcc/arm-none-eabi/4.5.2/../../../../arm-none-eabi/lib/thumb2\libstdc++.a(eh_exception.o)
                                  0x8 (size before relaxing)
 .ARM.exidx.text._ZN10__cxxabiv115__forced_unwindD0Ev
                0x0002ccc8        0x0 c:/progra~2/codesourcery/source~1/bin/../lib/gcc/arm-none-eabi/4.5.2/../../../../arm-none-eabi/lib/thumb2\libstdc++.a(eh_exception.o)
                                  0x8 (size before relaxing)
 .ARM.exidx.text._ZNSt13bad_exceptionD0Ev
                0x0002ccc8        0x0 c:/progra~2/codesourcery/source~1/bin/../lib/gcc/arm-none-eabi/4.5.2/../../../../arm-none-eabi/lib/thumb2\libstdc++.a(eh_exception.o)
                                  0x8 (size before relaxing)
 .ARM.exidx.text._ZNSt9exceptionD0Ev
                0x0002ccc8        0x0 c:/progra~2/codesourcery/source~1/bin/../lib/gcc/arm-none-eabi/4.5.2/../../../../arm-none-eabi/lib/thumb2\libstdc++.a(eh_exception.o)
                                  0x8 (size before relaxing)
 .ARM.exidx.text.__cxa_current_exception_type
                0x0002ccc8        0x0 c:/progra~2/codesourcery/source~1/bin/../lib/gcc/arm-none-eabi/4.5.2/../../../../arm-none-eabi/lib/thumb2\libstdc++.a(eh_type.o)
                                  0x8 (size before relaxing)
 .ARM.exidx.text.__cxa_type_match
                0x0002ccc8        0x8 c:/progra~2/codesourcery/source~1/bin/../lib/gcc/arm-none-eabi/4.5.2/../../../../arm-none-eabi/lib/thumb2\libstdc++.a(eh_arm.o)
 .ARM.exidx.text.__cxa_begin_cleanup
                0x0002ccd0        0x8 c:/progra~2/codesourcery/source~1/bin/../lib/gcc/arm-none-eabi/4.5.2/../../../../arm-none-eabi/lib/thumb2\libstdc++.a(eh_arm.o)
 .ARM.exidx.text.__gnu_end_cleanup
                0x0002ccd8        0x0 c:/progra~2/codesourcery/source~1/bin/../lib/gcc/arm-none-eabi/4.5.2/../../../../arm-none-eabi/lib/thumb2\libstdc++.a(eh_arm.o)
                                  0x8 (size before relaxing)
 .ARM.exidx.text.__cxa_allocate_exception
                0x0002ccd8        0x0 c:/progra~2/codesourcery/source~1/bin/../lib/gcc/arm-none-eabi/4.5.2/../../../../arm-none-eabi/lib/thumb2\libstdc++.a(eh_alloc.o)
                                  0x8 (size before relaxing)
 .ARM.exidx.text.__cxa_free_exception
                0x0002ccd8        0x0 c:/progra~2/codesourcery/source~1/bin/../lib/gcc/arm-none-eabi/4.5.2/../../../../arm-none-eabi/lib/thumb2\libstdc++.a(eh_alloc.o)
                                  0x8 (size before relaxing)
 .ARM.exidx.text.__cxa_allocate_dependent_exception
                0x0002ccd8        0x0 c:/progra~2/codesourcery/source~1/bin/../lib/gcc/arm-none-eabi/4.5.2/../../../../arm-none-eabi/lib/thumb2\libstdc++.a(eh_alloc.o)
                                  0x8 (size before relaxing)
 .ARM.exidx.text.__cxa_free_dependent_exception
                0x0002ccd8        0x0 c:/progra~2/codesourcery/source~1/bin/../lib/gcc/arm-none-eabi/4.5.2/../../../../arm-none-eabi/lib/thumb2\libstdc++.a(eh_alloc.o)
                                  0x8 (size before relaxing)
 .ARM.exidx.text._GLOBAL__I___cxa_allocate_exception
                0x0002ccd8        0x0 c:/progra~2/codesourcery/source~1/bin/../lib/gcc/arm-none-eabi/4.5.2/../../../../arm-none-eabi/lib/thumb2\libstdc++.a(eh_alloc.o)
                                  0x8 (size before relaxing)
 .ARM.exidx     0x0002ccd8       0x80 c:/progra~2/codesourcery/source~1/bin/../lib/gcc/arm-none-eabi/4.5.2/thumb2\libgcc.a(unwind-arm.o)
                                 0xc0 (size before relaxing)
 .ARM.exidx     0x0002cd58       0x38 c:/progra~2/codesourcery/source~1/bin/../lib/gcc/arm-none-eabi/4.5.2/thumb2\libgcc.a(pr-support.o)
                                 0x48 (size before relaxing)
 .ARM.exidx     0x0002cd90        0x0 c:/progra~2/codesourcery/source~1/bin/../lib/gcc/arm-none-eabi/4.5.2/thumb2\libgcc.a(_divdi3.o)
                                  0x8 (size before relaxing)
 .ARM.exidx     0x0002cd90        0x0 c:/progra~2/codesourcery/source~1/bin/../lib/gcc/arm-none-eabi/4.5.2/thumb2\libgcc.a(_udivdi3.o)
                                  0x8 (size before relaxing)
                0x0002cd90                __exidx_end = .

.text.align     0x0002cd90        0x0
                0x0002cd90                . = ALIGN (0x8)
                0x0002cd90                _etext = .
                0x0007d000                __cs3_region_size_rom = 0x7d000
                0x00000001                __cs3_region_num = 0x1

.data           0x10001000      0x7d8 load address 0x0002cd90
                0x10001000                __cs3_region_start_ram = .
 *(.cs3.region-head.ram)
 *(.jcr)
 .jcr           0x10001000        0x0 c:/progra~2/codesourcery/source~1/bin/../lib/gcc/arm-none-eabi/4.5.2/thumb2/crtbegin.o
 .jcr           0x10001000        0x4 c:/progra~2/codesourcery/source~1/bin/../lib/gcc/arm-none-eabi/4.5.2/thumb2/crtend.o
 *(.got.plt)
 *(.got)
 *(.shdata)
 *(.data .data.* .gnu.linkonce.d.*)
 .data          0x10001004        0x0 c:/progra~2/codesourcery/source~1/bin/../lib/gcc/arm-none-eabi/4.5.2/thumb2/crti.o
 .data          0x10001004        0x4 c:/progra~2/codesourcery/source~1/bin/../lib/gcc/arm-none-eabi/4.5.2/thumb2/crtbegin.o
                0x10001004                __dso_handle
 .data          0x10001008        0x0 build\system\core_cm3.o
 .data          0x10001008        0x0 build\system\syscalls.o
 .data          0x10001008        0x4 build\system\system_LPC17xx.o
                0x10001008                SystemCoreClock
 .data          0x1000100c        0x0 build\system\mini_cpp.o
 .data          0x1000100c        0x0 build\system\startup_LPC17xx.o
 .data          0x1000100c        0x0 build\lib\source\Uart32.o
 .data          0x1000100c        0x0 build\lib\source\debug_frmwrk.o
 .data          0x1000100c        0x0 build\lib\source\lpc17xx_adc.o
 .data          0x1000100c        0x0 build\lib\source\lpc17xx_clkpwr.o
 .data          0x1000100c        0x0 build\lib\source\lpc17xx_gpio.o
 .data          0x1000100c        0x0 build\lib\source\lpc17xx_i2c.o
 .data          0x1000100c        0x0 build\lib\source\lpc17xx_libcfg_default.o
 .data          0x1000100c        0x0 build\lib\source\lpc17xx_nvic.o
 .data          0x1000100c        0x0 build\lib\source\lpc17xx_pinsel.o
 .data          0x1000100c        0x0 build\lib\source\lpc17xx_spi.o
 .data          0x1000100c        0x0 build\lib\source\lpc17xx_timer.o
 .data          0x1000100c        0x0 build\lib\source\lpc17xx_uart.o
 .data          0x1000100c        0x0 build\lib_sd\byteordering.o
 .data          0x1000100c        0x0 build\lib_sd\fat.o
 .data          0x1000100c        0x0 build\lib_sd\partition.o
 .data          0x1000100c        0x0 build\lib_sd\sd_raw.o
 .data          0x1000100c        0x0 build\IAP_internal_flash_write\IAP.o
 .data          0x1000100c        0x0 build\VCOM_GV\intenable.o
 .data          0x1000100c        0x0 build\VCOM_GV\serial_fifo.o
 .data          0x1000100c        0x8 build\VCOM_GV\usbSerial.o
 .data          0x10001014        0x0 build\VCOM_GV\usbcontrol.o
 .data          0x10001014        0x0 build\VCOM_GV\usbhw_lpc.o
 .data          0x10001014        0x0 build\VCOM_GV\usbinit.o
 .data          0x10001014        0x0 build\VCOM_GV\usbstdreq.o
 .data          0x10001014        0x0 src\shared\PID.o
 .data          0x10001014        0x0 src\shared\Packet.o
 .data          0x10001014       0x40 build\Command.o
                0x10001014                X_MS1
                0x10001015                X_MS2
                0x10001016                X_MS3
                0x10001017                Y_MS1
                0x10001018                Y_MS2
                0x10001019                Y_MS3
                0x1000101a                Z_MS1
                0x1000101b                Z_MS2
                0x1000101c                Z_MS3
                0x1000101d                A_MS1
                0x1000101e                A_MS2
                0x1000101f                A_MS3
                0x10001020                B_MS1
                0x10001021                B_MS2
                0x10001022                B_MS3
                0x10001024                microstep_port_array
 .data          0x10001054        0x0 build\DebugPacketProcessor.o
 .data          0x10001054        0x0 build\Delay.o
 .data          0x10001054       0x6c build\EepromMap.o
                0x10001094                menu1
                0x100010a0                menu2
                0x100010b4                menu3
 .data          0x100010c0       0x40 build\Host.o
                0x100010fd                host::do_host_reset
 .data          0x10001100        0x0 build\Interface.o
 .data          0x10001100        0x0 build\InterfaceBoard.o
 .data          0x10001100        0x0 build\LPCPort.o
 .data          0x10001100        0x0 build\LiquidCrystal.o
 .data          0x10001100       0x6c build\Main.o
 .data          0x1000116c        0x0 build\Menu.o
 .data          0x1000116c       0x44 build\Microsteps.o
                0x100011ac                microsteps::I2CDEV_S_ADDR
 .data          0x100011b0       0x2c build\Motherboard.o
 .data          0x100011dc        0x0 build\PID.o
 .data          0x100011dc        0x0 build\Packet.o
 .data          0x100011dc        0x0 build\SDCard.o
 .data          0x100011dc       0x40 build\StepperInterface.o
 .data          0x1000121c        0x0 build\Steppers.o
 .data          0x1000121c        0x0 build\Timeout.o
 .data          0x1000121c       0x30 build\Tool.o
                0x10001248                tool::retries
 .data          0x1000124c        0x0 build\UART.o
 .data          0x1000124c        0x0 c:/progra~2/codesourcery/source~1/bin/../lib/gcc/arm-none-eabi/4.5.2/../../../../arm-none-eabi/lib/thumb2\libstdc++.a(si_class_type_info.o)
 .data          0x1000124c        0x0 c:/progra~2/codesourcery/source~1/bin/../lib/gcc/arm-none-eabi/4.5.2/../../../../arm-none-eabi/lib/thumb2\libstdc++.a(pure.o)
 .data          0x1000124c        0x0 c:/progra~2/codesourcery/source~1/bin/../lib/gcc/arm-none-eabi/4.5.2/../../../../arm-none-eabi/lib/thumb2\libstdc++.a(class_type_info.o)
 .data          0x1000124c        0x0 c:/progra~2/codesourcery/source~1/bin/../lib/gcc/arm-none-eabi/4.5.2/../../../../arm-none-eabi/lib/thumb2\libstdc++.a(tinfo.o)
 .data          0x1000124c        0x0 c:/progra~2/codesourcery/source~1/bin/../lib/gcc/arm-none-eabi/4.5.2/../../../../arm-none-eabi/lib/thumb2\libstdc++.a(eh_terminate.o)
 .data          0x1000124c        0x0 c:/progra~2/codesourcery/source~1/bin/../lib/gcc/arm-none-eabi/4.5.2/../../../../arm-none-eabi/lib/thumb2\libstdc++.a(eh_call.o)
 .data          0x1000124c        0x0 c:/progra~2/codesourcery/source~1/bin/../lib/gcc/arm-none-eabi/4.5.2/../../../../arm-none-eabi/lib/thumb2\libstdc++.a(eh_term_handler.o)
 .data._ZN10__cxxabiv119__terminate_handlerE
                0x1000124c        0x4 c:/progra~2/codesourcery/source~1/bin/../lib/gcc/arm-none-eabi/4.5.2/../../../../arm-none-eabi/lib/thumb2\libstdc++.a(eh_term_handler.o)
                0x1000124c                __cxxabiv1::__terminate_handler
 .data          0x10001250        0x0 c:/progra~2/codesourcery/source~1/bin/../lib/gcc/arm-none-eabi/4.5.2/../../../../arm-none-eabi/lib/thumb2\libstdc++.a(eh_personality.o)
 .data          0x10001250        0x0 c:/progra~2/codesourcery/source~1/bin/../lib/gcc/arm-none-eabi/4.5.2/../../../../arm-none-eabi/lib/thumb2\libstdc++.a(eh_throw.o)
 .data          0x10001250        0x0 c:/progra~2/codesourcery/source~1/bin/../lib/gcc/arm-none-eabi/4.5.2/../../../../arm-none-eabi/lib/thumb2\libstdc++.a(eh_unex_handler.o)
 .data._ZN10__cxxabiv120__unexpected_handlerE
                0x10001250        0x4 c:/progra~2/codesourcery/source~1/bin/../lib/gcc/arm-none-eabi/4.5.2/../../../../arm-none-eabi/lib/thumb2\libstdc++.a(eh_unex_handler.o)
                0x10001250                __cxxabiv1::__unexpected_handler
 .data          0x10001254        0x0 c:/progra~2/codesourcery/source~1/bin/../lib/gcc/arm-none-eabi/4.5.2/../../../../arm-none-eabi/lib/thumb2\libstdc++.a(eh_globals.o)
 .data          0x10001254        0x0 c:/progra~2/codesourcery/source~1/bin/../lib/gcc/arm-none-eabi/4.5.2/../../../../arm-none-eabi/lib/thumb2\libstdc++.a(eh_catch.o)
 .data          0x10001254        0x0 c:/progra~2/codesourcery/source~1/bin/../lib/gcc/arm-none-eabi/4.5.2/../../../../arm-none-eabi/lib/thumb2\libstdc++.a(vterminate.o)
 .data          0x10001254        0x0 c:/progra~2/codesourcery/source~1/bin/../lib/gcc/arm-none-eabi/4.5.2/../../../../arm-none-eabi/lib/thumb2\libstdc++.a(eh_exception.o)
 .data          0x10001254        0x0 c:/progra~2/codesourcery/source~1/bin/../lib/gcc/arm-none-eabi/4.5.2/../../../../arm-none-eabi/lib/thumb2\libstdc++.a(eh_type.o)
 .data          0x10001254        0x0 c:/progra~2/codesourcery/source~1/bin/../lib/gcc/arm-none-eabi/4.5.2/../../../../arm-none-eabi/lib/thumb2\libstdc++.a(eh_arm.o)
 .data          0x10001254        0x0 c:/progra~2/codesourcery/source~1/bin/../lib/gcc/arm-none-eabi/4.5.2/../../../../arm-none-eabi/lib/thumb2\libstdc++.a(eh_alloc.o)
 .data          0x10001254        0x0 c:/progra~2/codesourcery/source~1/bin/../lib/gcc/arm-none-eabi/4.5.2/../../../../arm-none-eabi/lib/thumb2\libstdc++.a(cp-demangle.o)
 .data          0x10001254        0x0 c:/progra~2/codesourcery/source~1/bin/../lib/gcc/arm-none-eabi/4.5.2/thumb2\libgcc.a(_arm_addsubsf3.o)
 .data          0x10001254        0x0 c:/progra~2/codesourcery/source~1/bin/../lib/gcc/arm-none-eabi/4.5.2/thumb2\libgcc.a(_arm_muldivsf3.o)
 .data          0x10001254        0x0 c:/progra~2/codesourcery/source~1/bin/../lib/gcc/arm-none-eabi/4.5.2/thumb2\libgcc.a(_arm_fixsfsi.o)
 .data          0x10001254        0x0 c:/progra~2/codesourcery/source~1/bin/../lib/gcc/arm-none-eabi/4.5.2/thumb2\libgcc.a(_aeabi_uldivmod.o)
 .data          0x10001254        0x0 c:/progra~2/codesourcery/source~1/bin/../lib/gcc/arm-none-eabi/4.5.2/thumb2\libgcc.a(bpabi.o)
 .data          0x10001254        0x0 c:/progra~2/codesourcery/source~1/bin/../lib/gcc/arm-none-eabi/4.5.2/thumb2\libgcc.a(unwind-arm.o)
 .data          0x10001254        0x0 c:/progra~2/codesourcery/source~1/bin/../lib/gcc/arm-none-eabi/4.5.2/thumb2\libgcc.a(libunwind.o)
 .data          0x10001254        0x0 c:/progra~2/codesourcery/source~1/bin/../lib/gcc/arm-none-eabi/4.5.2/thumb2\libgcc.a(pr-support.o)
 .data          0x10001254        0x0 c:/progra~2/codesourcery/source~1/bin/../lib/gcc/arm-none-eabi/4.5.2/thumb2\libgcc.a(_dvmd_tls.o)
 .data          0x10001254        0x0 c:/progra~2/codesourcery/source~1/bin/../lib/gcc/arm-none-eabi/4.5.2/thumb2\libgcc.a(_divdi3.o)
 .data          0x10001254        0x0 c:/progra~2/codesourcery/source~1/bin/../lib/gcc/arm-none-eabi/4.5.2/thumb2\libgcc.a(_udivdi3.o)
 .data          0x10001254        0x0 c:/progra~2/codesourcery/source~1/bin/../lib/gcc/arm-none-eabi/4.5.2/thumb2\libgcc.a(_udivsi3.o)
 .data          0x10001254        0x0 c:/progra~2/codesourcery/source~1/bin/../lib/gcc/arm-none-eabi/4.5.2/../../../../arm-none-eabi/lib/thumb2\libc.a(lib_a-abort.o)
 .data          0x10001254        0x0 c:/progra~2/codesourcery/source~1/bin/../lib/gcc/arm-none-eabi/4.5.2/../../../../arm-none-eabi/lib/thumb2\libc.a(lib_a-fputc.o)
 .data          0x10001254        0x0 c:/progra~2/codesourcery/source~1/bin/../lib/gcc/arm-none-eabi/4.5.2/../../../../arm-none-eabi/lib/thumb2\libc.a(lib_a-fputs.o)
 .data          0x10001254        0x0 c:/progra~2/codesourcery/source~1/bin/../lib/gcc/arm-none-eabi/4.5.2/../../../../arm-none-eabi/lib/thumb2\libc.a(lib_a-fvwrite.o)
 .data          0x10001254        0x0 c:/progra~2/codesourcery/source~1/bin/../lib/gcc/arm-none-eabi/4.5.2/../../../../arm-none-eabi/lib/thumb2\libc.a(lib_a-fwrite.o)
 .data          0x10001254       0xf4 c:/progra~2/codesourcery/source~1/bin/../lib/gcc/arm-none-eabi/4.5.2/../../../../arm-none-eabi/lib/thumb2\libc.a(lib_a-impure.o)
                0x10001254                _impure_ptr
 .data          0x10001348        0x0 c:/progra~2/codesourcery/source~1/bin/../lib/gcc/arm-none-eabi/4.5.2/../../../../arm-none-eabi/lib/thumb2\libc.a(lib_a-malloc.o)
 .data          0x10001348      0x410 c:/progra~2/codesourcery/source~1/bin/../lib/gcc/arm-none-eabi/4.5.2/../../../../arm-none-eabi/lib/thumb2\libc.a(lib_a-mallocr.o)
                0x10001348                __malloc_av_
                0x10001750                __malloc_sbrk_base
                0x10001754                __malloc_trim_threshold
 .data          0x10001758        0x0 c:/progra~2/codesourcery/source~1/bin/../lib/gcc/arm-none-eabi/4.5.2/../../../../arm-none-eabi/lib/thumb2\libc.a(lib_a-memchr.o)
 .data          0x10001758        0x0 c:/progra~2/codesourcery/source~1/bin/../lib/gcc/arm-none-eabi/4.5.2/../../../../arm-none-eabi/lib/thumb2\libc.a(lib_a-memcmp.o)
 .data          0x10001758        0x0 c:/progra~2/codesourcery/source~1/bin/../lib/gcc/arm-none-eabi/4.5.2/../../../../arm-none-eabi/lib/thumb2\libc.a(lib_a-memcpy.o)
 .data          0x10001758        0x0 c:/progra~2/codesourcery/source~1/bin/../lib/gcc/arm-none-eabi/4.5.2/../../../../arm-none-eabi/lib/thumb2\libc.a(lib_a-memmove.o)
 .data          0x10001758        0x0 c:/progra~2/codesourcery/source~1/bin/../lib/gcc/arm-none-eabi/4.5.2/../../../../arm-none-eabi/lib/thumb2\libc.a(lib_a-memset.o)
 .data          0x10001758        0x0 c:/progra~2/codesourcery/source~1/bin/../lib/gcc/arm-none-eabi/4.5.2/../../../../arm-none-eabi/lib/thumb2\libc.a(lib_a-mlock.o)
 .data          0x10001758        0x0 c:/progra~2/codesourcery/source~1/bin/../lib/gcc/arm-none-eabi/4.5.2/../../../../arm-none-eabi/lib/thumb2\libc.a(lib_a-putc.o)
 .data          0x10001758        0x0 c:/progra~2/codesourcery/source~1/bin/../lib/gcc/arm-none-eabi/4.5.2/../../../../arm-none-eabi/lib/thumb2\libc.a(lib_a-rand.o)
 .data          0x10001758        0x0 c:/progra~2/codesourcery/source~1/bin/../lib/gcc/arm-none-eabi/4.5.2/../../../../arm-none-eabi/lib/thumb2\libc.a(lib_a-realloc.o)
 .data          0x10001758        0x0 c:/progra~2/codesourcery/source~1/bin/../lib/gcc/arm-none-eabi/4.5.2/../../../../arm-none-eabi/lib/thumb2\libc.a(lib_a-reallocr.o)
 .data          0x10001758        0x0 c:/progra~2/codesourcery/source~1/bin/../lib/gcc/arm-none-eabi/4.5.2/../../../../arm-none-eabi/lib/thumb2\libc.a(lib_a-reent.o)
 .data          0x10001758        0x0 c:/progra~2/codesourcery/source~1/bin/../lib/gcc/arm-none-eabi/4.5.2/../../../../arm-none-eabi/lib/thumb2\libc.a(lib_a-sbrkr.o)
 .data          0x10001758        0x0 c:/progra~2/codesourcery/source~1/bin/../lib/gcc/arm-none-eabi/4.5.2/../../../../arm-none-eabi/lib/thumb2\libc.a(lib_a-signal.o)
 .data          0x10001758        0x0 c:/progra~2/codesourcery/source~1/bin/../lib/gcc/arm-none-eabi/4.5.2/../../../../arm-none-eabi/lib/thumb2\libc.a(lib_a-signalr.o)
 .data          0x10001758        0x0 c:/progra~2/codesourcery/source~1/bin/../lib/gcc/arm-none-eabi/4.5.2/../../../../arm-none-eabi/lib/thumb2\libc.a(lib_a-sprintf.o)
 .data          0x10001758        0x0 c:/progra~2/codesourcery/source~1/bin/../lib/gcc/arm-none-eabi/4.5.2/../../../../arm-none-eabi/lib/thumb2\libc.a(lib_a-strchr.o)
 .data          0x10001758        0x0 c:/progra~2/codesourcery/source~1/bin/../lib/gcc/arm-none-eabi/4.5.2/../../../../arm-none-eabi/lib/thumb2\libc.a(lib_a-strcmp.o)
 .data          0x10001758        0x0 c:/progra~2/codesourcery/source~1/bin/../lib/gcc/arm-none-eabi/4.5.2/../../../../arm-none-eabi/lib/thumb2\libc.a(lib_a-strcpy.o)
 .data          0x10001758        0x0 c:/progra~2/codesourcery/source~1/bin/../lib/gcc/arm-none-eabi/4.5.2/../../../../arm-none-eabi/lib/thumb2\libc.a(lib_a-strlen.o)
 .data          0x10001758        0x0 c:/progra~2/codesourcery/source~1/bin/../lib/gcc/arm-none-eabi/4.5.2/../../../../arm-none-eabi/lib/thumb2\libc.a(lib_a-strncmp.o)
 .data          0x10001758        0x0 c:/progra~2/codesourcery/source~1/bin/../lib/gcc/arm-none-eabi/4.5.2/../../../../arm-none-eabi/lib/thumb2\libc.a(lib_a-strncpy.o)
 .data          0x10001758        0x0 c:/progra~2/codesourcery/source~1/bin/../lib/gcc/arm-none-eabi/4.5.2/../../../../arm-none-eabi/lib/thumb2\libc.a(lib_a-strrchr.o)
 .data          0x10001758        0x0 c:/progra~2/codesourcery/source~1/bin/../lib/gcc/arm-none-eabi/4.5.2/../../../../arm-none-eabi/lib/thumb2\libc.a(lib_a-svfprintf.o)
 .data          0x10001758        0x0 c:/progra~2/codesourcery/source~1/bin/../lib/gcc/arm-none-eabi/4.5.2/../../../../arm-none-eabi/lib/thumb2\libc.a(lib_a-syswrite.o)
 .data          0x10001758        0x0 c:/progra~2/codesourcery/source~1/bin/../lib/gcc/arm-none-eabi/4.5.2/../../../../arm-none-eabi/lib/thumb2\libc.a(lib_a-wbuf.o)
 .data          0x10001758        0x0 c:/progra~2/codesourcery/source~1/bin/../lib/gcc/arm-none-eabi/4.5.2/../../../../arm-none-eabi/lib/thumb2\libc.a(lib_a-writer.o)
 .data          0x10001758        0x0 c:/progra~2/codesourcery/source~1/bin/../lib/gcc/arm-none-eabi/4.5.2/../../../../arm-none-eabi/lib/thumb2\libc.a(lib_a-wsetup.o)
 .data          0x10001758        0x0 c:/progra~2/codesourcery/source~1/bin/../lib/gcc/arm-none-eabi/4.5.2/../../../../arm-none-eabi/lib/thumb2\libc.a(lib_a-dtoa.o)
 .data          0x10001758        0x0 c:/progra~2/codesourcery/source~1/bin/../lib/gcc/arm-none-eabi/4.5.2/../../../../arm-none-eabi/lib/thumb2\libc.a(lib_a-fflush.o)
 .data          0x10001758        0x0 c:/progra~2/codesourcery/source~1/bin/../lib/gcc/arm-none-eabi/4.5.2/../../../../arm-none-eabi/lib/thumb2\libc.a(lib_a-findfp.o)
 .data          0x10001758        0x0 c:/progra~2/codesourcery/source~1/bin/../lib/gcc/arm-none-eabi/4.5.2/../../../../arm-none-eabi/lib/thumb2\libc.a(lib_a-freer.o)
 .data          0x10001758        0x0 c:/progra~2/codesourcery/source~1/bin/../lib/gcc/arm-none-eabi/4.5.2/../../../../arm-none-eabi/lib/thumb2\libc.a(lib_a-fwalk.o)
 .data          0x10001758       0x7c c:/progra~2/codesourcery/source~1/bin/../lib/gcc/arm-none-eabi/4.5.2/../../../../arm-none-eabi/lib/thumb2\libc.a(lib_a-locale.o)
                0x10001778                __mb_cur_max
 .data          0x100017d4        0x0 c:/progra~2/codesourcery/source~1/bin/../lib/gcc/arm-none-eabi/4.5.2/../../../../arm-none-eabi/lib/thumb2\libc.a(lib_a-makebuf.o)
 .data          0x100017d4        0x0 c:/progra~2/codesourcery/source~1/bin/../lib/gcc/arm-none-eabi/4.5.2/../../../../arm-none-eabi/lib/thumb2\libc.a(lib_a-mprec.o)
 .data          0x100017d4        0x0 c:/progra~2/codesourcery/source~1/bin/../lib/gcc/arm-none-eabi/4.5.2/../../../../arm-none-eabi/lib/thumb2\libc.a(lib_a-s_fpclassify.o)
 .data          0x100017d4        0x0 c:/progra~2/codesourcery/source~1/bin/../lib/gcc/arm-none-eabi/4.5.2/../../../../arm-none-eabi/lib/thumb2\libc.a(lib_a-stdio.o)
 .data          0x100017d4        0x0 c:/progra~2/codesourcery/source~1/bin/../lib/gcc/arm-none-eabi/4.5.2/../../../../arm-none-eabi/lib/thumb2\libc.a(lib_a-svfiprintf.o)
 .data          0x100017d4        0x0 c:/progra~2/codesourcery/source~1/bin/../lib/gcc/arm-none-eabi/4.5.2/../../../../arm-none-eabi/lib/thumb2\libc.a(lib_a-callocr.o)
 .data          0x100017d4        0x0 c:/progra~2/codesourcery/source~1/bin/../lib/gcc/arm-none-eabi/4.5.2/../../../../arm-none-eabi/lib/thumb2\libc.a(lib_a-closer.o)
 .data          0x100017d4        0x0 c:/progra~2/codesourcery/source~1/bin/../lib/gcc/arm-none-eabi/4.5.2/../../../../arm-none-eabi/lib/thumb2\libc.a(lib_a-fclose.o)
 .data          0x100017d4        0x0 c:/progra~2/codesourcery/source~1/bin/../lib/gcc/arm-none-eabi/4.5.2/../../../../arm-none-eabi/lib/thumb2\libc.a(lib_a-fstatr.o)
 .data          0x100017d4        0x0 c:/progra~2/codesourcery/source~1/bin/../lib/gcc/arm-none-eabi/4.5.2/../../../../arm-none-eabi/lib/thumb2\libc.a(lib_a-isattyr.o)
 .data          0x100017d4        0x0 c:/progra~2/codesourcery/source~1/bin/../lib/gcc/arm-none-eabi/4.5.2/../../../../arm-none-eabi/lib/thumb2\libc.a(lib_a-lseekr.o)
 .data          0x100017d4        0x0 c:/progra~2/codesourcery/source~1/bin/../lib/gcc/arm-none-eabi/4.5.2/../../../../arm-none-eabi/lib/thumb2\libc.a(lib_a-readr.o)
 .data          0x100017d4        0x0 c:/progra~2/codesourcery/source~1/bin/../lib/gcc/arm-none-eabi/4.5.2/thumb2\libgcc.a(_arm_addsubdf3.o)
 .data          0x100017d4        0x0 c:/progra~2/codesourcery/source~1/bin/../lib/gcc/arm-none-eabi/4.5.2/thumb2\libgcc.a(_arm_muldivdf3.o)
 .data          0x100017d4        0x0 c:/progra~2/codesourcery/source~1/bin/../lib/gcc/arm-none-eabi/4.5.2/thumb2\libgcc.a(_arm_cmpdf2.o)
 .data          0x100017d4        0x0 c:/progra~2/codesourcery/source~1/bin/../lib/gcc/arm-none-eabi/4.5.2/thumb2\libgcc.a(_arm_fixdfsi.o)
 .data          0x100017d4        0x0 c:/progra~2/codesourcery/source~1/bin/../lib/gcc/arm-none-eabi/4.5.2/thumb2/crtend.o
 .data          0x100017d4        0x0 c:/progra~2/codesourcery/source~1/bin/../lib/gcc/arm-none-eabi/4.5.2/thumb2/crtn.o
 *(.ram)
                0x100017d8                . = ALIGN (0x8)
 *fill*         0x100017d4        0x4 00
                0x100017d8                _edata = .

.bss            0x100017d8     0x17f8 load address 0x0002d568
 *(.shbss)
 *(.bss .bss.* .gnu.linkonce.b.*)
 .bss           0x100017d8        0x0 c:/progra~2/codesourcery/source~1/bin/../lib/gcc/arm-none-eabi/4.5.2/thumb2/crti.o
 .bss           0x100017d8        0x1 c:/progra~2/codesourcery/source~1/bin/../lib/gcc/arm-none-eabi/4.5.2/thumb2/crtbegin.o
 .bss           0x100017d9        0x0 build\system\core_cm3.o
 *fill*         0x100017d9        0x3 00
 .bss           0x100017dc        0x4 build\system\syscalls.o
 .bss           0x100017e0        0x0 build\system\system_LPC17xx.o
 .bss           0x100017e0        0x0 build\system\mini_cpp.o
 .bss           0x100017e0        0x0 build\system\startup_LPC17xx.o
 .bss           0x100017e0        0x0 build\lib\source\Uart32.o
 .bss           0x100017e0       0x28 build\lib\source\debug_frmwrk.o
                0x100017e0                _db_msg
                0x100017e4                _db_msg_
                0x100017e8                _db_char
                0x100017ec                _db_dec
                0x100017f0                _db_dec_16
                0x100017f4                _db_dec_32
                0x100017f8                _db_hex
                0x100017fc                _db_hex_16
                0x10001800                _db_hex_32
                0x10001804                _db_get_char
 .bss           0x10001808        0x0 build\lib\source\lpc17xx_adc.o
 .bss           0x10001808        0x0 build\lib\source\lpc17xx_clkpwr.o
 .bss           0x10001808        0x0 build\lib\source\lpc17xx_gpio.o
 .bss           0x10001808       0x34 build\lib\source\lpc17xx_i2c.o
 .bss           0x1000183c        0x0 build\lib\source\lpc17xx_libcfg_default.o
 .bss           0x1000183c        0x0 build\lib\source\lpc17xx_nvic.o
 .bss           0x1000183c        0x0 build\lib\source\lpc17xx_pinsel.o
 .bss           0x1000183c        0x0 build\lib\source\lpc17xx_spi.o
 .bss           0x1000183c        0x0 build\lib\source\lpc17xx_timer.o
 .bss           0x1000183c        0x0 build\lib\source\lpc17xx_uart.o
 .bss           0x1000183c        0x0 build\lib_sd\byteordering.o
 .bss           0x1000183c       0xc0 build\lib_sd\fat.o
 .bss           0x100018fc       0x1c build\lib_sd\partition.o
 .bss           0x10001918      0x208 build\lib_sd\sd_raw.o
 .bss           0x10001b20        0x0 build\IAP_internal_flash_write\IAP.o
 .bss           0x10001b20        0x0 build\VCOM_GV\intenable.o
 .bss           0x10001b20        0x0 build\VCOM_GV\serial_fifo.o
 .bss           0x10001b20      0x460 build\VCOM_GV\usbSerial.o
 .bss           0x10001f80       0x34 build\VCOM_GV\usbcontrol.o
 .bss           0x10001fb4       0x48 build\VCOM_GV\usbhw_lpc.o
 .bss           0x10001ffc        0x8 build\VCOM_GV\usbinit.o
 .bss           0x10002004        0xc build\VCOM_GV\usbstdreq.o
 .bss           0x10002010        0x0 src\shared\PID.o
 .bss           0x10002010        0x0 src\shared\Packet.o
 .bss           0x10002010      0x244 build\Command.o
                0x10002010                command::buffer_data
                0x10002210                command::command_buffer
                0x10002220                command::outstanding_tool_command
                0x10002221                command::paused
                0x10002222                command::mode
                0x10002223                command::mode_temp
                0x10002224                command::delay_timeout
                0x10002234                command::homing_timeout
                0x10002244                command::tool_wait_timeout
 .bss           0x10002254       0x28 build\DebugPacketProcessor.o
                0x10002254                debugSlaveOut
 .bss           0x1000227c        0x0 build\Delay.o
 .bss           0x1000227c        0x0 build\EepromMap.o
 .bss           0x1000227c       0x58 build\Host.o
                0x1000227c                host::packet_in_timeout
                0x1000228c                host::machineName
                0x100022ac                host::buildName
                0x100022cc                host::buildSteps
                0x100022d0                host::currentState
 .bss           0x100022d4       0x54 build\Interface.o
                0x100022d4                interfaceboard::board
 .bss           0x10002328        0x1 build\InterfaceBoard.o
 *fill*         0x10002329        0x3 00
 .bss           0x1000232c       0x10 build\LPCPort.o
                0x1000232c                Port1
                0x10002330                Port2
                0x10002334                Port3
                0x10002338                Port4
 .bss           0x1000233c        0x0 build\LiquidCrystal.o
 .bss           0x1000233c        0x0 build\Main.o
 .bss           0x1000233c       0x58 build\Menu.o
                0x1000233c                monitorMode
                0x10002348                sdMenu
                0x10002350                jogger
                0x10002358                snake
 .bss           0x10002394        0x2 build\Microsteps.o
                0x10002394                microsteps::Port0_I2C
                0x10002395                microsteps::Port1_I2C
 *fill*         0x10002396        0x2 00
 .bss           0x10002398       0x60 build\Motherboard.o
                0x10002398                blink_count
                0x10002399                blink_state
                0x1000239c                blink_ovfs_remaining
                0x100023a0                blinked_so_far
                0x100023a4                Motherboard::motherboard
 .bss           0x100023f8        0x0 build\PID.o
 .bss           0x100023f8        0x0 build\Packet.o
 .bss           0x100023f8       0x1c build\SDCard.o
                0x100023f8                sdcard::partition
                0x100023fc                sdcard::fs
                0x10002400                sdcard::dd
                0x10002404                sdcard::file
                0x10002408                sdcard::capturing
                0x10002409                sdcard::playing
                0x1000240c                sdcard::capturedBytes
                0x10002410                sdcard::next_byte
                0x10002411                sdcard::has_more
 .bss           0x10002414        0x0 build\StepperInterface.o
 .bss           0x10002414       0xb0 build\Steppers.o
                0x10002414                steppers::is_running
                0x10002418                steppers::intervals
                0x1000241c                steppers::intervals_remaining
                0x10002420                steppers::axes
                0x100024c0                steppers::is_homing
                0x100024c1                steppers::holdZ
 .bss           0x100024c4        0x0 build\Timeout.o
 .bss           0x100024c4       0x28 build\Tool.o
                0x100024c4                tool::transaction_active
                0x100024c5                tool::locked
                0x100024c8                tool::timeout
                0x100024d8                tool::tool_index
                0x100024dc                tool::sent_packet_count
                0x100024e0                tool::packet_failure_count
                0x100024e4                tool::packet_retry_count
                0x100024e8                tool::noise_byte_count
 .bss           0x100024ec       0xa0 build\UART.o
                0x100024ec                loopback_bytes
                0x100024f0                UART::uart
                0x10002588                byte_in
 .bss           0x1000258c        0x0 c:/progra~2/codesourcery/source~1/bin/../lib/gcc/arm-none-eabi/4.5.2/../../../../arm-none-eabi/lib/thumb2\libstdc++.a(si_class_type_info.o)
 .bss           0x1000258c        0x0 c:/progra~2/codesourcery/source~1/bin/../lib/gcc/arm-none-eabi/4.5.2/../../../../arm-none-eabi/lib/thumb2\libstdc++.a(pure.o)
 .bss           0x1000258c        0x0 c:/progra~2/codesourcery/source~1/bin/../lib/gcc/arm-none-eabi/4.5.2/../../../../arm-none-eabi/lib/thumb2\libstdc++.a(class_type_info.o)
 .bss           0x1000258c        0x0 c:/progra~2/codesourcery/source~1/bin/../lib/gcc/arm-none-eabi/4.5.2/../../../../arm-none-eabi/lib/thumb2\libstdc++.a(tinfo.o)
 .bss           0x1000258c        0x0 c:/progra~2/codesourcery/source~1/bin/../lib/gcc/arm-none-eabi/4.5.2/../../../../arm-none-eabi/lib/thumb2\libstdc++.a(eh_terminate.o)
 .bss           0x1000258c        0x0 c:/progra~2/codesourcery/source~1/bin/../lib/gcc/arm-none-eabi/4.5.2/../../../../arm-none-eabi/lib/thumb2\libstdc++.a(eh_call.o)
 .bss           0x1000258c        0x0 c:/progra~2/codesourcery/source~1/bin/../lib/gcc/arm-none-eabi/4.5.2/../../../../arm-none-eabi/lib/thumb2\libstdc++.a(eh_term_handler.o)
 .bss           0x1000258c        0x0 c:/progra~2/codesourcery/source~1/bin/../lib/gcc/arm-none-eabi/4.5.2/../../../../arm-none-eabi/lib/thumb2\libstdc++.a(eh_personality.o)
 .bss           0x1000258c        0x0 c:/progra~2/codesourcery/source~1/bin/../lib/gcc/arm-none-eabi/4.5.2/../../../../arm-none-eabi/lib/thumb2\libstdc++.a(eh_throw.o)
 .bss           0x1000258c        0x0 c:/progra~2/codesourcery/source~1/bin/../lib/gcc/arm-none-eabi/4.5.2/../../../../arm-none-eabi/lib/thumb2\libstdc++.a(eh_unex_handler.o)
 .bss           0x1000258c        0x0 c:/progra~2/codesourcery/source~1/bin/../lib/gcc/arm-none-eabi/4.5.2/../../../../arm-none-eabi/lib/thumb2\libstdc++.a(eh_globals.o)
 .bss._ZL10eh_globals
                0x1000258c        0xc c:/progra~2/codesourcery/source~1/bin/../lib/gcc/arm-none-eabi/4.5.2/../../../../arm-none-eabi/lib/thumb2\libstdc++.a(eh_globals.o)
 .bss           0x10002598        0x0 c:/progra~2/codesourcery/source~1/bin/../lib/gcc/arm-none-eabi/4.5.2/../../../../arm-none-eabi/lib/thumb2\libstdc++.a(eh_catch.o)
 .bss           0x10002598        0x0 c:/progra~2/codesourcery/source~1/bin/../lib/gcc/arm-none-eabi/4.5.2/../../../../arm-none-eabi/lib/thumb2\libstdc++.a(vterminate.o)
 .bss._ZZN9__gnu_cxx27__verbose_terminate_handlerEvE11terminating
                0x10002598        0x1 c:/progra~2/codesourcery/source~1/bin/../lib/gcc/arm-none-eabi/4.5.2/../../../../arm-none-eabi/lib/thumb2\libstdc++.a(vterminate.o)
 .bss           0x10002599        0x0 c:/progra~2/codesourcery/source~1/bin/../lib/gcc/arm-none-eabi/4.5.2/../../../../arm-none-eabi/lib/thumb2\libstdc++.a(eh_exception.o)
 .bss           0x10002599        0x0 c:/progra~2/codesourcery/source~1/bin/../lib/gcc/arm-none-eabi/4.5.2/../../../../arm-none-eabi/lib/thumb2\libstdc++.a(eh_type.o)
 .bss           0x10002599        0x0 c:/progra~2/codesourcery/source~1/bin/../lib/gcc/arm-none-eabi/4.5.2/../../../../arm-none-eabi/lib/thumb2\libstdc++.a(eh_arm.o)
 .bss           0x10002599        0x0 c:/progra~2/codesourcery/source~1/bin/../lib/gcc/arm-none-eabi/4.5.2/../../../../arm-none-eabi/lib/thumb2\libstdc++.a(eh_alloc.o)
 *fill*         0x10002599        0x3 00
 .bss._ZL15dependents_used
                0x1000259c        0x4 c:/progra~2/codesourcery/source~1/bin/../lib/gcc/arm-none-eabi/4.5.2/../../../../arm-none-eabi/lib/thumb2\libstdc++.a(eh_alloc.o)
 .bss._ZL17dependents_buffer
                0x100025a0      0x1e0 c:/progra~2/codesourcery/source~1/bin/../lib/gcc/arm-none-eabi/4.5.2/../../../../arm-none-eabi/lib/thumb2\libstdc++.a(eh_alloc.o)
 .bss._ZL14emergency_used
                0x10002780        0x4 c:/progra~2/codesourcery/source~1/bin/../lib/gcc/arm-none-eabi/4.5.2/../../../../arm-none-eabi/lib/thumb2\libstdc++.a(eh_alloc.o)
 *fill*         0x10002784        0x4 00
 .bss._ZL16emergency_buffer
                0x10002788      0x800 c:/progra~2/codesourcery/source~1/bin/../lib/gcc/arm-none-eabi/4.5.2/../../../../arm-none-eabi/lib/thumb2\libstdc++.a(eh_alloc.o)
 .bss           0x10002f88        0x0 c:/progra~2/codesourcery/source~1/bin/../lib/gcc/arm-none-eabi/4.5.2/../../../../arm-none-eabi/lib/thumb2\libstdc++.a(cp-demangle.o)
 .bss           0x10002f88        0x0 c:/progra~2/codesourcery/source~1/bin/../lib/gcc/arm-none-eabi/4.5.2/thumb2\libgcc.a(_arm_addsubsf3.o)
 .bss           0x10002f88        0x0 c:/progra~2/codesourcery/source~1/bin/../lib/gcc/arm-none-eabi/4.5.2/thumb2\libgcc.a(_arm_muldivsf3.o)
 .bss           0x10002f88        0x0 c:/progra~2/codesourcery/source~1/bin/../lib/gcc/arm-none-eabi/4.5.2/thumb2\libgcc.a(_arm_fixsfsi.o)
 .bss           0x10002f88        0x0 c:/progra~2/codesourcery/source~1/bin/../lib/gcc/arm-none-eabi/4.5.2/thumb2\libgcc.a(_aeabi_uldivmod.o)
 .bss           0x10002f88        0x0 c:/progra~2/codesourcery/source~1/bin/../lib/gcc/arm-none-eabi/4.5.2/thumb2\libgcc.a(bpabi.o)
 .bss           0x10002f88        0x0 c:/progra~2/codesourcery/source~1/bin/../lib/gcc/arm-none-eabi/4.5.2/thumb2\libgcc.a(unwind-arm.o)
 .bss           0x10002f88        0x0 c:/progra~2/codesourcery/source~1/bin/../lib/gcc/arm-none-eabi/4.5.2/thumb2\libgcc.a(libunwind.o)
 .bss           0x10002f88        0x0 c:/progra~2/codesourcery/source~1/bin/../lib/gcc/arm-none-eabi/4.5.2/thumb2\libgcc.a(pr-support.o)
 .bss           0x10002f88        0x0 c:/progra~2/codesourcery/source~1/bin/../lib/gcc/arm-none-eabi/4.5.2/thumb2\libgcc.a(_dvmd_tls.o)
 .bss           0x10002f88        0x0 c:/progra~2/codesourcery/source~1/bin/../lib/gcc/arm-none-eabi/4.5.2/thumb2\libgcc.a(_divdi3.o)
 .bss           0x10002f88        0x0 c:/progra~2/codesourcery/source~1/bin/../lib/gcc/arm-none-eabi/4.5.2/thumb2\libgcc.a(_udivdi3.o)
 .bss           0x10002f88        0x0 c:/progra~2/codesourcery/source~1/bin/../lib/gcc/arm-none-eabi/4.5.2/thumb2\libgcc.a(_udivsi3.o)
 .bss           0x10002f88        0x0 c:/progra~2/codesourcery/source~1/bin/../lib/gcc/arm-none-eabi/4.5.2/../../../../arm-none-eabi/lib/thumb2\libc.a(lib_a-abort.o)
 .bss           0x10002f88        0x0 c:/progra~2/codesourcery/source~1/bin/../lib/gcc/arm-none-eabi/4.5.2/../../../../arm-none-eabi/lib/thumb2\libc.a(lib_a-fputc.o)
 .bss           0x10002f88        0x0 c:/progra~2/codesourcery/source~1/bin/../lib/gcc/arm-none-eabi/4.5.2/../../../../arm-none-eabi/lib/thumb2\libc.a(lib_a-fputs.o)
 .bss           0x10002f88        0x0 c:/progra~2/codesourcery/source~1/bin/../lib/gcc/arm-none-eabi/4.5.2/../../../../arm-none-eabi/lib/thumb2\libc.a(lib_a-fvwrite.o)
 .bss           0x10002f88        0x0 c:/progra~2/codesourcery/source~1/bin/../lib/gcc/arm-none-eabi/4.5.2/../../../../arm-none-eabi/lib/thumb2\libc.a(lib_a-fwrite.o)
 .bss           0x10002f88        0x0 c:/progra~2/codesourcery/source~1/bin/../lib/gcc/arm-none-eabi/4.5.2/../../../../arm-none-eabi/lib/thumb2\libc.a(lib_a-impure.o)
 .bss           0x10002f88        0x0 c:/progra~2/codesourcery/source~1/bin/../lib/gcc/arm-none-eabi/4.5.2/../../../../arm-none-eabi/lib/thumb2\libc.a(lib_a-malloc.o)
 .bss           0x10002f88       0x34 c:/progra~2/codesourcery/source~1/bin/../lib/gcc/arm-none-eabi/4.5.2/../../../../arm-none-eabi/lib/thumb2\libc.a(lib_a-mallocr.o)
                0x10002f88                __malloc_top_pad
                0x10002f8c                __malloc_current_mallinfo
                0x10002fb4                __malloc_max_sbrked_mem
                0x10002fb8                __malloc_max_total_mem
 .bss           0x10002fbc        0x0 c:/progra~2/codesourcery/source~1/bin/../lib/gcc/arm-none-eabi/4.5.2/../../../../arm-none-eabi/lib/thumb2\libc.a(lib_a-memchr.o)
 .bss           0x10002fbc        0x0 c:/progra~2/codesourcery/source~1/bin/../lib/gcc/arm-none-eabi/4.5.2/../../../../arm-none-eabi/lib/thumb2\libc.a(lib_a-memcmp.o)
 .bss           0x10002fbc        0x0 c:/progra~2/codesourcery/source~1/bin/../lib/gcc/arm-none-eabi/4.5.2/../../../../arm-none-eabi/lib/thumb2\libc.a(lib_a-memcpy.o)
 .bss           0x10002fbc        0x0 c:/progra~2/codesourcery/source~1/bin/../lib/gcc/arm-none-eabi/4.5.2/../../../../arm-none-eabi/lib/thumb2\libc.a(lib_a-memmove.o)
 .bss           0x10002fbc        0x0 c:/progra~2/codesourcery/source~1/bin/../lib/gcc/arm-none-eabi/4.5.2/../../../../arm-none-eabi/lib/thumb2\libc.a(lib_a-memset.o)
 .bss           0x10002fbc        0x0 c:/progra~2/codesourcery/source~1/bin/../lib/gcc/arm-none-eabi/4.5.2/../../../../arm-none-eabi/lib/thumb2\libc.a(lib_a-mlock.o)
 .bss           0x10002fbc        0x0 c:/progra~2/codesourcery/source~1/bin/../lib/gcc/arm-none-eabi/4.5.2/../../../../arm-none-eabi/lib/thumb2\libc.a(lib_a-putc.o)
 .bss           0x10002fbc        0x0 c:/progra~2/codesourcery/source~1/bin/../lib/gcc/arm-none-eabi/4.5.2/../../../../arm-none-eabi/lib/thumb2\libc.a(lib_a-rand.o)
 .bss           0x10002fbc        0x0 c:/progra~2/codesourcery/source~1/bin/../lib/gcc/arm-none-eabi/4.5.2/../../../../arm-none-eabi/lib/thumb2\libc.a(lib_a-realloc.o)
 .bss           0x10002fbc        0x0 c:/progra~2/codesourcery/source~1/bin/../lib/gcc/arm-none-eabi/4.5.2/../../../../arm-none-eabi/lib/thumb2\libc.a(lib_a-reallocr.o)
 .bss           0x10002fbc        0x0 c:/progra~2/codesourcery/source~1/bin/../lib/gcc/arm-none-eabi/4.5.2/../../../../arm-none-eabi/lib/thumb2\libc.a(lib_a-reent.o)
 .bss           0x10002fbc        0x0 c:/progra~2/codesourcery/source~1/bin/../lib/gcc/arm-none-eabi/4.5.2/../../../../arm-none-eabi/lib/thumb2\libc.a(lib_a-sbrkr.o)
 .bss           0x10002fbc        0x0 c:/progra~2/codesourcery/source~1/bin/../lib/gcc/arm-none-eabi/4.5.2/../../../../arm-none-eabi/lib/thumb2\libc.a(lib_a-signal.o)
 .bss           0x10002fbc        0x0 c:/progra~2/codesourcery/source~1/bin/../lib/gcc/arm-none-eabi/4.5.2/../../../../arm-none-eabi/lib/thumb2\libc.a(lib_a-signalr.o)
 .bss           0x10002fbc        0x0 c:/progra~2/codesourcery/source~1/bin/../lib/gcc/arm-none-eabi/4.5.2/../../../../arm-none-eabi/lib/thumb2\libc.a(lib_a-sprintf.o)
 .bss           0x10002fbc        0x0 c:/progra~2/codesourcery/source~1/bin/../lib/gcc/arm-none-eabi/4.5.2/../../../../arm-none-eabi/lib/thumb2\libc.a(lib_a-strchr.o)
 .bss           0x10002fbc        0x0 c:/progra~2/codesourcery/source~1/bin/../lib/gcc/arm-none-eabi/4.5.2/../../../../arm-none-eabi/lib/thumb2\libc.a(lib_a-strcmp.o)
 .bss           0x10002fbc        0x0 c:/progra~2/codesourcery/source~1/bin/../lib/gcc/arm-none-eabi/4.5.2/../../../../arm-none-eabi/lib/thumb2\libc.a(lib_a-strcpy.o)
 .bss           0x10002fbc        0x0 c:/progra~2/codesourcery/source~1/bin/../lib/gcc/arm-none-eabi/4.5.2/../../../../arm-none-eabi/lib/thumb2\libc.a(lib_a-strlen.o)
 .bss           0x10002fbc        0x0 c:/progra~2/codesourcery/source~1/bin/../lib/gcc/arm-none-eabi/4.5.2/../../../../arm-none-eabi/lib/thumb2\libc.a(lib_a-strncmp.o)
 .bss           0x10002fbc        0x0 c:/progra~2/codesourcery/source~1/bin/../lib/gcc/arm-none-eabi/4.5.2/../../../../arm-none-eabi/lib/thumb2\libc.a(lib_a-strncpy.o)
 .bss           0x10002fbc        0x0 c:/progra~2/codesourcery/source~1/bin/../lib/gcc/arm-none-eabi/4.5.2/../../../../arm-none-eabi/lib/thumb2\libc.a(lib_a-strrchr.o)
 .bss           0x10002fbc        0x0 c:/progra~2/codesourcery/source~1/bin/../lib/gcc/arm-none-eabi/4.5.2/../../../../arm-none-eabi/lib/thumb2\libc.a(lib_a-svfprintf.o)
 .bss           0x10002fbc        0x0 c:/progra~2/codesourcery/source~1/bin/../lib/gcc/arm-none-eabi/4.5.2/../../../../arm-none-eabi/lib/thumb2\libc.a(lib_a-syswrite.o)
 .bss           0x10002fbc        0x0 c:/progra~2/codesourcery/source~1/bin/../lib/gcc/arm-none-eabi/4.5.2/../../../../arm-none-eabi/lib/thumb2\libc.a(lib_a-wbuf.o)
 .bss           0x10002fbc        0x0 c:/progra~2/codesourcery/source~1/bin/../lib/gcc/arm-none-eabi/4.5.2/../../../../arm-none-eabi/lib/thumb2\libc.a(lib_a-writer.o)
 .bss           0x10002fbc        0x0 c:/progra~2/codesourcery/source~1/bin/../lib/gcc/arm-none-eabi/4.5.2/../../../../arm-none-eabi/lib/thumb2\libc.a(lib_a-wsetup.o)
 .bss           0x10002fbc        0x0 c:/progra~2/codesourcery/source~1/bin/../lib/gcc/arm-none-eabi/4.5.2/../../../../arm-none-eabi/lib/thumb2\libc.a(lib_a-dtoa.o)
 .bss           0x10002fbc        0x0 c:/progra~2/codesourcery/source~1/bin/../lib/gcc/arm-none-eabi/4.5.2/../../../../arm-none-eabi/lib/thumb2\libc.a(lib_a-fflush.o)
 .bss           0x10002fbc        0x0 c:/progra~2/codesourcery/source~1/bin/../lib/gcc/arm-none-eabi/4.5.2/../../../../arm-none-eabi/lib/thumb2\libc.a(lib_a-findfp.o)
 .bss           0x10002fbc        0x0 c:/progra~2/codesourcery/source~1/bin/../lib/gcc/arm-none-eabi/4.5.2/../../../../arm-none-eabi/lib/thumb2\libc.a(lib_a-freer.o)
 .bss           0x10002fbc        0x0 c:/progra~2/codesourcery/source~1/bin/../lib/gcc/arm-none-eabi/4.5.2/../../../../arm-none-eabi/lib/thumb2\libc.a(lib_a-fwalk.o)
 .bss           0x10002fbc        0xc c:/progra~2/codesourcery/source~1/bin/../lib/gcc/arm-none-eabi/4.5.2/../../../../arm-none-eabi/lib/thumb2\libc.a(lib_a-locale.o)
                0x10002fbc                __nlocale_changed
                0x10002fc0                __mlocale_changed
                0x10002fc4                _PathLocale
 .bss           0x10002fc8        0x0 c:/progra~2/codesourcery/source~1/bin/../lib/gcc/arm-none-eabi/4.5.2/../../../../arm-none-eabi/lib/thumb2\libc.a(lib_a-makebuf.o)
 .bss           0x10002fc8        0x0 c:/progra~2/codesourcery/source~1/bin/../lib/gcc/arm-none-eabi/4.5.2/../../../../arm-none-eabi/lib/thumb2\libc.a(lib_a-mprec.o)
 .bss           0x10002fc8        0x0 c:/progra~2/codesourcery/source~1/bin/../lib/gcc/arm-none-eabi/4.5.2/../../../../arm-none-eabi/lib/thumb2\libc.a(lib_a-s_fpclassify.o)
 .bss           0x10002fc8        0x0 c:/progra~2/codesourcery/source~1/bin/../lib/gcc/arm-none-eabi/4.5.2/../../../../arm-none-eabi/lib/thumb2\libc.a(lib_a-stdio.o)
 .bss           0x10002fc8        0x0 c:/progra~2/codesourcery/source~1/bin/../lib/gcc/arm-none-eabi/4.5.2/../../../../arm-none-eabi/lib/thumb2\libc.a(lib_a-svfiprintf.o)
 .bss           0x10002fc8        0x0 c:/progra~2/codesourcery/source~1/bin/../lib/gcc/arm-none-eabi/4.5.2/../../../../arm-none-eabi/lib/thumb2\libc.a(lib_a-callocr.o)
 .bss           0x10002fc8        0x0 c:/progra~2/codesourcery/source~1/bin/../lib/gcc/arm-none-eabi/4.5.2/../../../../arm-none-eabi/lib/thumb2\libc.a(lib_a-closer.o)
 .bss           0x10002fc8        0x0 c:/progra~2/codesourcery/source~1/bin/../lib/gcc/arm-none-eabi/4.5.2/../../../../arm-none-eabi/lib/thumb2\libc.a(lib_a-fclose.o)
 .bss           0x10002fc8        0x0 c:/progra~2/codesourcery/source~1/bin/../lib/gcc/arm-none-eabi/4.5.2/../../../../arm-none-eabi/lib/thumb2\libc.a(lib_a-fstatr.o)
 .bss           0x10002fc8        0x0 c:/progra~2/codesourcery/source~1/bin/../lib/gcc/arm-none-eabi/4.5.2/../../../../arm-none-eabi/lib/thumb2\libc.a(lib_a-isattyr.o)
 .bss           0x10002fc8        0x0 c:/progra~2/codesourcery/source~1/bin/../lib/gcc/arm-none-eabi/4.5.2/../../../../arm-none-eabi/lib/thumb2\libc.a(lib_a-lseekr.o)
 .bss           0x10002fc8        0x0 c:/progra~2/codesourcery/source~1/bin/../lib/gcc/arm-none-eabi/4.5.2/../../../../arm-none-eabi/lib/thumb2\libc.a(lib_a-readr.o)
 .bss           0x10002fc8        0x0 c:/progra~2/codesourcery/source~1/bin/../lib/gcc/arm-none-eabi/4.5.2/thumb2\libgcc.a(_arm_addsubdf3.o)
 .bss           0x10002fc8        0x0 c:/progra~2/codesourcery/source~1/bin/../lib/gcc/arm-none-eabi/4.5.2/thumb2\libgcc.a(_arm_muldivdf3.o)
 .bss           0x10002fc8        0x0 c:/progra~2/codesourcery/source~1/bin/../lib/gcc/arm-none-eabi/4.5.2/thumb2\libgcc.a(_arm_cmpdf2.o)
 .bss           0x10002fc8        0x0 c:/progra~2/codesourcery/source~1/bin/../lib/gcc/arm-none-eabi/4.5.2/thumb2\libgcc.a(_arm_fixdfsi.o)
 .bss           0x10002fc8        0x0 c:/progra~2/codesourcery/source~1/bin/../lib/gcc/arm-none-eabi/4.5.2/thumb2/crtend.o
 .bss           0x10002fc8        0x0 c:/progra~2/codesourcery/source~1/bin/../lib/gcc/arm-none-eabi/4.5.2/thumb2/crtn.o
 *(COMMON)
 COMMON         0x10002fc8        0x4 c:/progra~2/codesourcery/source~1/bin/../lib/gcc/arm-none-eabi/4.5.2/../../../../arm-none-eabi/lib/thumb2\libc.a(lib_a-reent.o)
                0x10002fc8                errno
 *(.ram.b)
                0x10002fd0                . = ALIGN (0x8)
 *fill*         0x10002fcc        0x4 00
                0x10002fd0                _end = .
                0x10002fd0                __end = .

.usb_ram
 *.o(USB_RAM)

.heap           0x10002fd0     0x1000
 *(.heap)
 .heap          0x10002fd0     0x1000 build\system\startup_LPC17xx.o
                0x10002fd0                __cs3_heap_start
                0x10003fd0                __cs3_heap_end

.stack          0x10007f00      0x100
 *(.stack)
 .stack         0x10007f00      0x100 build\system\startup_LPC17xx.o
                0x10007f00                __cs3_stack_mem
                0x10008000                _estack = .
                0x10008000                PROVIDE (estack, .)
                0x0002cd90                __cs3_region_init_ram = LOADADDR (.data)
                0x000007d8                __cs3_region_init_size_ram = (_edata - __cs3_region_start_ram)
                0x000017f8                __cs3_region_zero_size_ram = (_end - _edata)
                0x00007000                __cs3_region_size_ram = 0x7000
                0x00000001                __cs3_region_num = 0x1

.stab
 *(.stab)

.stabstr
 *(.stabstr)

.debug
 *(.debug)

.line
 *(.line)

.debug_srcinfo
 *(.debug_srcinfo)

.debug_sfnames
 *(.debug_sfnames)

.debug_aranges
 *(.debug_aranges)

.debug_pubnames
 *(.debug_pubnames)

.debug_info
 *(.debug_info .gnu.linkonce.wi.*)

.debug_abbrev
 *(.debug_abbrev)

.debug_line
 *(.debug_line)

.comment        0x00000000       0x2a
 .comment       0x00000000       0x2a build\system\core_cm3.o
                                 0x2b (size before relaxing)
 .comment       0x00000000       0x2b build\system\syscalls.o
 .comment       0x00000000       0x2b build\system\system_LPC17xx.o
 .comment       0x00000000       0x2b build\system\mini_cpp.o
 .comment       0x00000000       0x2b build\lib\source\Uart32.o
 .comment       0x00000000       0x2b build\lib\source\debug_frmwrk.o
 .comment       0x00000000       0x2b build\lib\source\lpc17xx_adc.o
 .comment       0x00000000       0x2b build\lib\source\lpc17xx_clkpwr.o
 .comment       0x00000000       0x2b build\lib\source\lpc17xx_gpio.o
 .comment       0x00000000       0x2b build\lib\source\lpc17xx_i2c.o
 .comment       0x00000000       0x2b build\lib\source\lpc17xx_libcfg_default.o
 .comment       0x00000000       0x2b build\lib\source\lpc17xx_nvic.o
 .comment       0x00000000       0x2b build\lib\source\lpc17xx_pinsel.o
 .comment       0x00000000       0x2b build\lib\source\lpc17xx_spi.o
 .comment       0x00000000       0x2b build\lib\source\lpc17xx_timer.o
 .comment       0x00000000       0x2b build\lib\source\lpc17xx_uart.o
 .comment       0x00000000       0x2b build\lib_sd\byteordering.o
 .comment       0x00000000       0x2b build\lib_sd\fat.o
 .comment       0x00000000       0x2b build\lib_sd\partition.o
 .comment       0x00000000       0x2b build\lib_sd\sd_raw.o
 .comment       0x00000000       0x2b build\IAP_internal_flash_write\IAP.o
 .comment       0x00000000       0x2b build\VCOM_GV\intenable.o
 .comment       0x00000000       0x2b build\VCOM_GV\serial_fifo.o
 .comment       0x00000000       0x2b build\VCOM_GV\usbSerial.o
 .comment       0x00000000       0x2b build\VCOM_GV\usbcontrol.o
 .comment       0x00000000       0x2b build\VCOM_GV\usbhw_lpc.o
 .comment       0x00000000       0x2b build\VCOM_GV\usbinit.o
 .comment       0x00000000       0x2b build\VCOM_GV\usbstdreq.o
 .comment       0x00000000       0x2b src\shared\PID.o
 .comment       0x00000000       0x2b src\shared\Packet.o
 .comment       0x00000000       0x2b build\Command.o
 .comment       0x00000000       0x2b build\DebugPacketProcessor.o
 .comment       0x00000000       0x2b build\Delay.o
 .comment       0x00000000       0x2b build\EepromMap.o
 .comment       0x00000000       0x2b build\Host.o
 .comment       0x00000000       0x2b build\Interface.o
 .comment       0x00000000       0x2b build\InterfaceBoard.o
 .comment       0x00000000       0x2b build\LPCPort.o
 .comment       0x00000000       0x2b build\LiquidCrystal.o
 .comment       0x00000000       0x2b build\Main.o
 .comment       0x00000000       0x2b build\Menu.o
 .comment       0x00000000       0x2b build\Microsteps.o
 .comment       0x00000000       0x2b build\Motherboard.o
 .comment       0x00000000       0x2b build\PID.o
 .comment       0x00000000       0x2b build\Packet.o
 .comment       0x00000000       0x2b build\SDCard.o
 .comment       0x00000000       0x2b build\StepperInterface.o
 .comment       0x00000000       0x2b build\Steppers.o
 .comment       0x00000000       0x2b build\Timeout.o
 .comment       0x00000000       0x2b build\Tool.o
 .comment       0x00000000       0x2b build\UART.o

.debug_frame    0x00000000     0x1f40
 *(.debug_frame)
 .debug_frame   0x00000000       0xac c:/progra~2/codesourcery/source~1/bin/../lib/gcc/arm-none-eabi/4.5.2/../../../../arm-none-eabi/lib/thumb2\libstdc++.a(si_class_type_info.o)
 .debug_frame   0x000000ac       0x28 c:/progra~2/codesourcery/source~1/bin/../lib/gcc/arm-none-eabi/4.5.2/../../../../arm-none-eabi/lib/thumb2\libstdc++.a(pure.o)
 .debug_frame   0x000000d4       0xd0 c:/progra~2/codesourcery/source~1/bin/../lib/gcc/arm-none-eabi/4.5.2/../../../../arm-none-eabi/lib/thumb2\libstdc++.a(class_type_info.o)
 .debug_frame   0x000001a4       0x90 c:/progra~2/codesourcery/source~1/bin/../lib/gcc/arm-none-eabi/4.5.2/../../../../arm-none-eabi/lib/thumb2\libstdc++.a(tinfo.o)
 .debug_frame   0x00000234       0x90 c:/progra~2/codesourcery/source~1/bin/../lib/gcc/arm-none-eabi/4.5.2/../../../../arm-none-eabi/lib/thumb2\libstdc++.a(eh_terminate.o)
 .debug_frame   0x000002c4       0x54 c:/progra~2/codesourcery/source~1/bin/../lib/gcc/arm-none-eabi/4.5.2/../../../../arm-none-eabi/lib/thumb2\libstdc++.a(eh_call.o)
 .debug_frame   0x00000318       0xb4 c:/progra~2/codesourcery/source~1/bin/../lib/gcc/arm-none-eabi/4.5.2/../../../../arm-none-eabi/lib/thumb2\libstdc++.a(eh_personality.o)
 .debug_frame   0x000003cc       0x60 c:/progra~2/codesourcery/source~1/bin/../lib/gcc/arm-none-eabi/4.5.2/../../../../arm-none-eabi/lib/thumb2\libstdc++.a(eh_throw.o)
 .debug_frame   0x0000042c       0x30 c:/progra~2/codesourcery/source~1/bin/../lib/gcc/arm-none-eabi/4.5.2/../../../../arm-none-eabi/lib/thumb2\libstdc++.a(eh_globals.o)
 .debug_frame   0x0000045c       0x6c c:/progra~2/codesourcery/source~1/bin/../lib/gcc/arm-none-eabi/4.5.2/../../../../arm-none-eabi/lib/thumb2\libstdc++.a(eh_catch.o)
 .debug_frame   0x000004c8       0x30 c:/progra~2/codesourcery/source~1/bin/../lib/gcc/arm-none-eabi/4.5.2/../../../../arm-none-eabi/lib/thumb2\libstdc++.a(vterminate.o)
 .debug_frame   0x000004f8       0xd0 c:/progra~2/codesourcery/source~1/bin/../lib/gcc/arm-none-eabi/4.5.2/../../../../arm-none-eabi/lib/thumb2\libstdc++.a(eh_exception.o)
 .debug_frame   0x000005c8       0x28 c:/progra~2/codesourcery/source~1/bin/../lib/gcc/arm-none-eabi/4.5.2/../../../../arm-none-eabi/lib/thumb2\libstdc++.a(eh_type.o)
 .debug_frame   0x000005f0       0x64 c:/progra~2/codesourcery/source~1/bin/../lib/gcc/arm-none-eabi/4.5.2/../../../../arm-none-eabi/lib/thumb2\libstdc++.a(eh_arm.o)
 .debug_frame   0x00000654       0x80 c:/progra~2/codesourcery/source~1/bin/../lib/gcc/arm-none-eabi/4.5.2/../../../../arm-none-eabi/lib/thumb2\libstdc++.a(eh_alloc.o)
 .debug_frame   0x000006d4      0x488 c:/progra~2/codesourcery/source~1/bin/../lib/gcc/arm-none-eabi/4.5.2/../../../../arm-none-eabi/lib/thumb2\libstdc++.a(cp-demangle.o)
 .debug_frame   0x00000b5c       0x50 c:/progra~2/codesourcery/source~1/bin/../lib/gcc/arm-none-eabi/4.5.2/thumb2\libgcc.a(bpabi.o)
 .debug_frame   0x00000bac      0x288 c:/progra~2/codesourcery/source~1/bin/../lib/gcc/arm-none-eabi/4.5.2/thumb2\libgcc.a(unwind-arm.o)
 .debug_frame   0x00000e34       0xf4 c:/progra~2/codesourcery/source~1/bin/../lib/gcc/arm-none-eabi/4.5.2/thumb2\libgcc.a(pr-support.o)
 .debug_frame   0x00000f28       0x3c c:/progra~2/codesourcery/source~1/bin/../lib/gcc/arm-none-eabi/4.5.2/thumb2\libgcc.a(_divdi3.o)
 .debug_frame   0x00000f64       0x3c c:/progra~2/codesourcery/source~1/bin/../lib/gcc/arm-none-eabi/4.5.2/thumb2\libgcc.a(_udivdi3.o)
 .debug_frame   0x00000fa0       0x20 c:/progra~2/codesourcery/source~1/bin/../lib/gcc/arm-none-eabi/4.5.2/thumb2\libgcc.a(_udivsi3.o)
 .debug_frame   0x00000fc0       0x28 c:/progra~2/codesourcery/source~1/bin/../lib/gcc/arm-none-eabi/4.5.2/../../../../arm-none-eabi/lib/thumb2\libc.a(lib_a-abort.o)
 .debug_frame   0x00000fe8       0x48 c:/progra~2/codesourcery/source~1/bin/../lib/gcc/arm-none-eabi/4.5.2/../../../../arm-none-eabi/lib/thumb2\libc.a(lib_a-fputc.o)
 .debug_frame   0x00001030       0x40 c:/progra~2/codesourcery/source~1/bin/../lib/gcc/arm-none-eabi/4.5.2/../../../../arm-none-eabi/lib/thumb2\libc.a(lib_a-fputs.o)
 .debug_frame   0x00001070       0x3c c:/progra~2/codesourcery/source~1/bin/../lib/gcc/arm-none-eabi/4.5.2/../../../../arm-none-eabi/lib/thumb2\libc.a(lib_a-fvwrite.o)
 .debug_frame   0x000010ac       0x58 c:/progra~2/codesourcery/source~1/bin/../lib/gcc/arm-none-eabi/4.5.2/../../../../arm-none-eabi/lib/thumb2\libc.a(lib_a-fwrite.o)
 .debug_frame   0x00001104       0x30 c:/progra~2/codesourcery/source~1/bin/../lib/gcc/arm-none-eabi/4.5.2/../../../../arm-none-eabi/lib/thumb2\libc.a(lib_a-malloc.o)
 .debug_frame   0x00001134       0x3c c:/progra~2/codesourcery/source~1/bin/../lib/gcc/arm-none-eabi/4.5.2/../../../../arm-none-eabi/lib/thumb2\libc.a(lib_a-mallocr.o)
 .debug_frame   0x00001170       0x2c c:/progra~2/codesourcery/source~1/bin/../lib/gcc/arm-none-eabi/4.5.2/../../../../arm-none-eabi/lib/thumb2\libc.a(lib_a-memchr.o)
 .debug_frame   0x0000119c       0x2c c:/progra~2/codesourcery/source~1/bin/../lib/gcc/arm-none-eabi/4.5.2/../../../../arm-none-eabi/lib/thumb2\libc.a(lib_a-memcmp.o)
 .debug_frame   0x000011c8       0x30 c:/progra~2/codesourcery/source~1/bin/../lib/gcc/arm-none-eabi/4.5.2/../../../../arm-none-eabi/lib/thumb2\libc.a(lib_a-memcpy.o)
 .debug_frame   0x000011f8       0x2c c:/progra~2/codesourcery/source~1/bin/../lib/gcc/arm-none-eabi/4.5.2/../../../../arm-none-eabi/lib/thumb2\libc.a(lib_a-memmove.o)
 .debug_frame   0x00001224       0x2c c:/progra~2/codesourcery/source~1/bin/../lib/gcc/arm-none-eabi/4.5.2/../../../../arm-none-eabi/lib/thumb2\libc.a(lib_a-memset.o)
 .debug_frame   0x00001250       0x30 c:/progra~2/codesourcery/source~1/bin/../lib/gcc/arm-none-eabi/4.5.2/../../../../arm-none-eabi/lib/thumb2\libc.a(lib_a-mlock.o)
 .debug_frame   0x00001280       0x48 c:/progra~2/codesourcery/source~1/bin/../lib/gcc/arm-none-eabi/4.5.2/../../../../arm-none-eabi/lib/thumb2\libc.a(lib_a-putc.o)
 .debug_frame   0x000012c8       0x48 c:/progra~2/codesourcery/source~1/bin/../lib/gcc/arm-none-eabi/4.5.2/../../../../arm-none-eabi/lib/thumb2\libc.a(lib_a-rand.o)
 .debug_frame   0x00001310       0x20 c:/progra~2/codesourcery/source~1/bin/../lib/gcc/arm-none-eabi/4.5.2/../../../../arm-none-eabi/lib/thumb2\libc.a(lib_a-realloc.o)
 .debug_frame   0x00001330       0x3c c:/progra~2/codesourcery/source~1/bin/../lib/gcc/arm-none-eabi/4.5.2/../../../../arm-none-eabi/lib/thumb2\libc.a(lib_a-reallocr.o)
 .debug_frame   0x0000136c       0x68 c:/progra~2/codesourcery/source~1/bin/../lib/gcc/arm-none-eabi/4.5.2/../../../../arm-none-eabi/lib/thumb2\libc.a(lib_a-reent.o)
 .debug_frame   0x000013d4       0x2c c:/progra~2/codesourcery/source~1/bin/../lib/gcc/arm-none-eabi/4.5.2/../../../../arm-none-eabi/lib/thumb2\libc.a(lib_a-sbrkr.o)
 .debug_frame   0x00001400       0xc0 c:/progra~2/codesourcery/source~1/bin/../lib/gcc/arm-none-eabi/4.5.2/../../../../arm-none-eabi/lib/thumb2\libc.a(lib_a-signal.o)
 .debug_frame   0x000014c0       0x3c c:/progra~2/codesourcery/source~1/bin/../lib/gcc/arm-none-eabi/4.5.2/../../../../arm-none-eabi/lib/thumb2\libc.a(lib_a-signalr.o)
 .debug_frame   0x000014fc       0x64 c:/progra~2/codesourcery/source~1/bin/../lib/gcc/arm-none-eabi/4.5.2/../../../../arm-none-eabi/lib/thumb2\libc.a(lib_a-sprintf.o)
 .debug_frame   0x00001560       0x2c c:/progra~2/codesourcery/source~1/bin/../lib/gcc/arm-none-eabi/4.5.2/../../../../arm-none-eabi/lib/thumb2\libc.a(lib_a-strchr.o)
 .debug_frame   0x0000158c       0x30 c:/progra~2/codesourcery/source~1/bin/../lib/gcc/arm-none-eabi/4.5.2/../../../../arm-none-eabi/lib/thumb2\libc.a(lib_a-strcmp.o)
 .debug_frame   0x000015bc       0x20 c:/progra~2/codesourcery/source~1/bin/../lib/gcc/arm-none-eabi/4.5.2/../../../../arm-none-eabi/lib/thumb2\libc.a(lib_a-strcpy.o)
 .debug_frame   0x000015dc       0x20 c:/progra~2/codesourcery/source~1/bin/../lib/gcc/arm-none-eabi/4.5.2/../../../../arm-none-eabi/lib/thumb2\libc.a(lib_a-strlen.o)
 .debug_frame   0x000015fc       0x2c c:/progra~2/codesourcery/source~1/bin/../lib/gcc/arm-none-eabi/4.5.2/../../../../arm-none-eabi/lib/thumb2\libc.a(lib_a-strncmp.o)
 .debug_frame   0x00001628       0x2c c:/progra~2/codesourcery/source~1/bin/../lib/gcc/arm-none-eabi/4.5.2/../../../../arm-none-eabi/lib/thumb2\libc.a(lib_a-strncpy.o)
 .debug_frame   0x00001654       0x2c c:/progra~2/codesourcery/source~1/bin/../lib/gcc/arm-none-eabi/4.5.2/../../../../arm-none-eabi/lib/thumb2\libc.a(lib_a-strrchr.o)
 .debug_frame   0x00001680       0x3c c:/progra~2/codesourcery/source~1/bin/../lib/gcc/arm-none-eabi/4.5.2/../../../../arm-none-eabi/lib/thumb2\libc.a(lib_a-svfprintf.o)
 .debug_frame   0x000016bc       0x28 c:/progra~2/codesourcery/source~1/bin/../lib/gcc/arm-none-eabi/4.5.2/../../../../arm-none-eabi/lib/thumb2\libc.a(lib_a-syswrite.o)
 .debug_frame   0x000016e4       0x3c c:/progra~2/codesourcery/source~1/bin/../lib/gcc/arm-none-eabi/4.5.2/../../../../arm-none-eabi/lib/thumb2\libc.a(lib_a-wbuf.o)
 .debug_frame   0x00001720       0x2c c:/progra~2/codesourcery/source~1/bin/../lib/gcc/arm-none-eabi/4.5.2/../../../../arm-none-eabi/lib/thumb2\libc.a(lib_a-writer.o)
 .debug_frame   0x0000174c       0x2c c:/progra~2/codesourcery/source~1/bin/../lib/gcc/arm-none-eabi/4.5.2/../../../../arm-none-eabi/lib/thumb2\libc.a(lib_a-wsetup.o)
 .debug_frame   0x00001778       0x68 c:/progra~2/codesourcery/source~1/bin/../lib/gcc/arm-none-eabi/4.5.2/../../../../arm-none-eabi/lib/thumb2\libc.a(lib_a-dtoa.o)
 .debug_frame   0x000017e0       0x40 c:/progra~2/codesourcery/source~1/bin/../lib/gcc/arm-none-eabi/4.5.2/../../../../arm-none-eabi/lib/thumb2\libc.a(lib_a-fflush.o)
 .debug_frame   0x00001820      0x114 c:/progra~2/codesourcery/source~1/bin/../lib/gcc/arm-none-eabi/4.5.2/../../../../arm-none-eabi/lib/thumb2\libc.a(lib_a-findfp.o)
 .debug_frame   0x00001934       0x50 c:/progra~2/codesourcery/source~1/bin/../lib/gcc/arm-none-eabi/4.5.2/../../../../arm-none-eabi/lib/thumb2\libc.a(lib_a-freer.o)
 .debug_frame   0x00001984       0x58 c:/progra~2/codesourcery/source~1/bin/../lib/gcc/arm-none-eabi/4.5.2/../../../../arm-none-eabi/lib/thumb2\libc.a(lib_a-fwalk.o)
 .debug_frame   0x000019dc       0x98 c:/progra~2/codesourcery/source~1/bin/../lib/gcc/arm-none-eabi/4.5.2/../../../../arm-none-eabi/lib/thumb2\libc.a(lib_a-locale.o)
 .debug_frame   0x00001a74       0x34 c:/progra~2/codesourcery/source~1/bin/../lib/gcc/arm-none-eabi/4.5.2/../../../../arm-none-eabi/lib/thumb2\libc.a(lib_a-makebuf.o)
 .debug_frame   0x00001aa8      0x244 c:/progra~2/codesourcery/source~1/bin/../lib/gcc/arm-none-eabi/4.5.2/../../../../arm-none-eabi/lib/thumb2\libc.a(lib_a-mprec.o)
 .debug_frame   0x00001cec       0x28 c:/progra~2/codesourcery/source~1/bin/../lib/gcc/arm-none-eabi/4.5.2/../../../../arm-none-eabi/lib/thumb2\libc.a(lib_a-s_fpclassify.o)
 .debug_frame   0x00001d14       0x80 c:/progra~2/codesourcery/source~1/bin/../lib/gcc/arm-none-eabi/4.5.2/../../../../arm-none-eabi/lib/thumb2\libc.a(lib_a-stdio.o)
 .debug_frame   0x00001d94       0x68 c:/progra~2/codesourcery/source~1/bin/../lib/gcc/arm-none-eabi/4.5.2/../../../../arm-none-eabi/lib/thumb2\libc.a(lib_a-svfiprintf.o)
 .debug_frame   0x00001dfc       0x2c c:/progra~2/codesourcery/source~1/bin/../lib/gcc/arm-none-eabi/4.5.2/../../../../arm-none-eabi/lib/thumb2\libc.a(lib_a-callocr.o)
 .debug_frame   0x00001e28       0x2c c:/progra~2/codesourcery/source~1/bin/../lib/gcc/arm-none-eabi/4.5.2/../../../../arm-none-eabi/lib/thumb2\libc.a(lib_a-closer.o)
 .debug_frame   0x00001e54       0x3c c:/progra~2/codesourcery/source~1/bin/../lib/gcc/arm-none-eabi/4.5.2/../../../../arm-none-eabi/lib/thumb2\libc.a(lib_a-fclose.o)
 .debug_frame   0x00001e90       0x2c c:/progra~2/codesourcery/source~1/bin/../lib/gcc/arm-none-eabi/4.5.2/../../../../arm-none-eabi/lib/thumb2\libc.a(lib_a-fstatr.o)
 .debug_frame   0x00001ebc       0x2c c:/progra~2/codesourcery/source~1/bin/../lib/gcc/arm-none-eabi/4.5.2/../../../../arm-none-eabi/lib/thumb2\libc.a(lib_a-isattyr.o)
 .debug_frame   0x00001ee8       0x2c c:/progra~2/codesourcery/source~1/bin/../lib/gcc/arm-none-eabi/4.5.2/../../../../arm-none-eabi/lib/thumb2\libc.a(lib_a-lseekr.o)
 .debug_frame   0x00001f14       0x2c c:/progra~2/codesourcery/source~1/bin/../lib/gcc/arm-none-eabi/4.5.2/../../../../arm-none-eabi/lib/thumb2\libc.a(lib_a-readr.o)

.debug_str
 *(.debug_str)

.debug_loc
 *(.debug_loc)

.debug_macinfo
 *(.debug_macinfo)

.debug_weaknames
 *(.debug_weaknames)

.debug_funcnames
 *(.debug_funcnames)

.debug_typenames
 *(.debug_typenames)

.debug_varnames
 *(.debug_varnames)

.note.gnu.arm.ident
 *(.note.gnu.arm.ident)

.ARM.attributes
                0x00000000       0x25
 *(.ARM.attributes)
 .ARM.attributes
                0x00000000       0x19 c:/progra~2/codesourcery/source~1/bin/../lib/gcc/arm-none-eabi/4.5.2/thumb2/crti.o
 .ARM.attributes
                0x00000019       0x29 c:/progra~2/codesourcery/source~1/bin/../lib/gcc/arm-none-eabi/4.5.2/thumb2/crtbegin.o
 .ARM.attributes
                0x00000042       0x31 build\system\core_cm3.o
 .ARM.attributes
                0x00000073       0x31 build\system\syscalls.o
 .ARM.attributes
                0x000000a4       0x31 build\system\system_LPC17xx.o
 .ARM.attributes
                0x000000d5       0x31 build\system\mini_cpp.o
 .ARM.attributes
                0x00000106       0x21 build\system\startup_LPC17xx.o
 .ARM.attributes
                0x00000127       0x31 build\lib\source\Uart32.o
 .ARM.attributes
                0x00000158       0x31 build\lib\source\debug_frmwrk.o
 .ARM.attributes
                0x00000189       0x31 build\lib\source\lpc17xx_adc.o
 .ARM.attributes
                0x000001ba       0x31 build\lib\source\lpc17xx_clkpwr.o
 .ARM.attributes
                0x000001eb       0x31 build\lib\source\lpc17xx_gpio.o
 .ARM.attributes
                0x0000021c       0x31 build\lib\source\lpc17xx_i2c.o
 .ARM.attributes
                0x0000024d       0x31 build\lib\source\lpc17xx_libcfg_default.o
 .ARM.attributes
                0x0000027e       0x31 build\lib\source\lpc17xx_nvic.o
 .ARM.attributes
                0x000002af       0x31 build\lib\source\lpc17xx_pinsel.o
 .ARM.attributes
                0x000002e0       0x31 build\lib\source\lpc17xx_spi.o
 .ARM.attributes
                0x00000311       0x31 build\lib\source\lpc17xx_timer.o
 .ARM.attributes
                0x00000342       0x31 build\lib\source\lpc17xx_uart.o
 .ARM.attributes
                0x00000373       0x31 build\lib_sd\byteordering.o
 .ARM.attributes
                0x000003a4       0x31 build\lib_sd\fat.o
 .ARM.attributes
                0x000003d5       0x31 build\lib_sd\partition.o
 .ARM.attributes
                0x00000406       0x31 build\lib_sd\sd_raw.o
 .ARM.attributes
                0x00000437       0x31 build\IAP_internal_flash_write\IAP.o
 .ARM.attributes
                0x00000468       0x31 build\VCOM_GV\intenable.o
 .ARM.attributes
                0x00000499       0x31 build\VCOM_GV\serial_fifo.o
 .ARM.attributes
                0x000004ca       0x31 build\VCOM_GV\usbSerial.o
 .ARM.attributes
                0x000004fb       0x31 build\VCOM_GV\usbcontrol.o
 .ARM.attributes
                0x0000052c       0x31 build\VCOM_GV\usbhw_lpc.o
 .ARM.attributes
                0x0000055d       0x31 build\VCOM_GV\usbinit.o
 .ARM.attributes
                0x0000058e       0x31 build\VCOM_GV\usbstdreq.o
 .ARM.attributes
                0x000005bf       0x31 src\shared\PID.o
 .ARM.attributes
                0x000005f0       0x31 src\shared\Packet.o
 .ARM.attributes
                0x00000621       0x31 build\Command.o
 .ARM.attributes
                0x00000652       0x31 build\DebugPacketProcessor.o
 .ARM.attributes
                0x00000683       0x31 build\Delay.o
 .ARM.attributes
                0x000006b4       0x31 build\EepromMap.o
 .ARM.attributes
                0x000006e5       0x31 build\Host.o
 .ARM.attributes
                0x00000716       0x31 build\Interface.o
 .ARM.attributes
                0x00000747       0x31 build\InterfaceBoard.o
 .ARM.attributes
                0x00000778       0x31 build\LPCPort.o
 .ARM.attributes
                0x000007a9       0x31 build\LiquidCrystal.o
 .ARM.attributes
                0x000007da       0x31 build\Main.o
 .ARM.attributes
                0x0000080b       0x31 build\Menu.o
 .ARM.attributes
                0x0000083c       0x31 build\Microsteps.o
 .ARM.attributes
                0x0000086d       0x31 build\Motherboard.o
 .ARM.attributes
                0x0000089e       0x31 build\PID.o
 .ARM.attributes
                0x000008cf       0x31 build\Packet.o
 .ARM.attributes
                0x00000900       0x31 build\SDCard.o
 .ARM.attributes
                0x00000931       0x31 build\StepperInterface.o
 .ARM.attributes
                0x00000962       0x31 build\Steppers.o
 .ARM.attributes
                0x00000993       0x31 build\Timeout.o
 .ARM.attributes
                0x000009c4       0x31 build\Tool.o
 .ARM.attributes
                0x000009f5       0x31 build\UART.o
 .ARM.attributes
                0x00000a26       0x29 c:/progra~2/codesourcery/source~1/bin/../lib/gcc/arm-none-eabi/4.5.2/../../../../arm-none-eabi/lib/thumb2\libstdc++.a(si_class_type_info.o)
 .ARM.attributes
                0x00000a4f       0x29 c:/progra~2/codesourcery/source~1/bin/../lib/gcc/arm-none-eabi/4.5.2/../../../../arm-none-eabi/lib/thumb2\libstdc++.a(pure.o)
 .ARM.attributes
                0x00000a78       0x29 c:/progra~2/codesourcery/source~1/bin/../lib/gcc/arm-none-eabi/4.5.2/../../../../arm-none-eabi/lib/thumb2\libstdc++.a(class_type_info.o)
 .ARM.attributes
                0x00000aa1       0x29 c:/progra~2/codesourcery/source~1/bin/../lib/gcc/arm-none-eabi/4.5.2/../../../../arm-none-eabi/lib/thumb2\libstdc++.a(tinfo.o)
 .ARM.attributes
                0x00000aca       0x29 c:/progra~2/codesourcery/source~1/bin/../lib/gcc/arm-none-eabi/4.5.2/../../../../arm-none-eabi/lib/thumb2\libstdc++.a(eh_terminate.o)
 .ARM.attributes
                0x00000af3       0x29 c:/progra~2/codesourcery/source~1/bin/../lib/gcc/arm-none-eabi/4.5.2/../../../../arm-none-eabi/lib/thumb2\libstdc++.a(eh_call.o)
 .ARM.attributes
                0x00000b1c       0x29 c:/progra~2/codesourcery/source~1/bin/../lib/gcc/arm-none-eabi/4.5.2/../../../../arm-none-eabi/lib/thumb2\libstdc++.a(eh_term_handler.o)
 .ARM.attributes
                0x00000b45       0x29 c:/progra~2/codesourcery/source~1/bin/../lib/gcc/arm-none-eabi/4.5.2/../../../../arm-none-eabi/lib/thumb2\libstdc++.a(eh_personality.o)
 .ARM.attributes
                0x00000b6e       0x29 c:/progra~2/codesourcery/source~1/bin/../lib/gcc/arm-none-eabi/4.5.2/../../../../arm-none-eabi/lib/thumb2\libstdc++.a(eh_throw.o)
 .ARM.attributes
                0x00000b97       0x29 c:/progra~2/codesourcery/source~1/bin/../lib/gcc/arm-none-eabi/4.5.2/../../../../arm-none-eabi/lib/thumb2\libstdc++.a(eh_unex_handler.o)
 .ARM.attributes
                0x00000bc0       0x29 c:/progra~2/codesourcery/source~1/bin/../lib/gcc/arm-none-eabi/4.5.2/../../../../arm-none-eabi/lib/thumb2\libstdc++.a(eh_globals.o)
 .ARM.attributes
                0x00000be9       0x29 c:/progra~2/codesourcery/source~1/bin/../lib/gcc/arm-none-eabi/4.5.2/../../../../arm-none-eabi/lib/thumb2\libstdc++.a(eh_catch.o)
 .ARM.attributes
                0x00000c12       0x29 c:/progra~2/codesourcery/source~1/bin/../lib/gcc/arm-none-eabi/4.5.2/../../../../arm-none-eabi/lib/thumb2\libstdc++.a(vterminate.o)
 .ARM.attributes
                0x00000c3b       0x29 c:/progra~2/codesourcery/source~1/bin/../lib/gcc/arm-none-eabi/4.5.2/../../../../arm-none-eabi/lib/thumb2\libstdc++.a(eh_exception.o)
 .ARM.attributes
                0x00000c64       0x29 c:/progra~2/codesourcery/source~1/bin/../lib/gcc/arm-none-eabi/4.5.2/../../../../arm-none-eabi/lib/thumb2\libstdc++.a(eh_type.o)
 .ARM.attributes
                0x00000c8d       0x29 c:/progra~2/codesourcery/source~1/bin/../lib/gcc/arm-none-eabi/4.5.2/../../../../arm-none-eabi/lib/thumb2\libstdc++.a(eh_arm.o)
 .ARM.attributes
                0x00000cb6       0x29 c:/progra~2/codesourcery/source~1/bin/../lib/gcc/arm-none-eabi/4.5.2/../../../../arm-none-eabi/lib/thumb2\libstdc++.a(eh_alloc.o)
 .ARM.attributes
                0x00000cdf       0x29 c:/progra~2/codesourcery/source~1/bin/../lib/gcc/arm-none-eabi/4.5.2/../../../../arm-none-eabi/lib/thumb2\libstdc++.a(cp-demangle.o)
 .ARM.attributes
                0x00000d08       0x1b c:/progra~2/codesourcery/source~1/bin/../lib/gcc/arm-none-eabi/4.5.2/thumb2\libgcc.a(_arm_addsubsf3.o)
 .ARM.attributes
                0x00000d23       0x1b c:/progra~2/codesourcery/source~1/bin/../lib/gcc/arm-none-eabi/4.5.2/thumb2\libgcc.a(_arm_muldivsf3.o)
 .ARM.attributes
                0x00000d3e       0x1b c:/progra~2/codesourcery/source~1/bin/../lib/gcc/arm-none-eabi/4.5.2/thumb2\libgcc.a(_arm_fixsfsi.o)
 .ARM.attributes
                0x00000d59       0x1b c:/progra~2/codesourcery/source~1/bin/../lib/gcc/arm-none-eabi/4.5.2/thumb2\libgcc.a(_aeabi_uldivmod.o)
 .ARM.attributes
                0x00000d74       0x29 c:/progra~2/codesourcery/source~1/bin/../lib/gcc/arm-none-eabi/4.5.2/thumb2\libgcc.a(bpabi.o)
 .ARM.attributes
                0x00000d9d       0x29 c:/progra~2/codesourcery/source~1/bin/../lib/gcc/arm-none-eabi/4.5.2/thumb2\libgcc.a(unwind-arm.o)
 .ARM.attributes
                0x00000dc6       0x1b c:/progra~2/codesourcery/source~1/bin/../lib/gcc/arm-none-eabi/4.5.2/thumb2\libgcc.a(libunwind.o)
 .ARM.attributes
                0x00000de1       0x29 c:/progra~2/codesourcery/source~1/bin/../lib/gcc/arm-none-eabi/4.5.2/thumb2\libgcc.a(pr-support.o)
 .ARM.attributes
                0x00000e0a       0x1b c:/progra~2/codesourcery/source~1/bin/../lib/gcc/arm-none-eabi/4.5.2/thumb2\libgcc.a(_dvmd_tls.o)
 .ARM.attributes
                0x00000e25       0x29 c:/progra~2/codesourcery/source~1/bin/../lib/gcc/arm-none-eabi/4.5.2/thumb2\libgcc.a(_divdi3.o)
 .ARM.attributes
                0x00000e4e       0x29 c:/progra~2/codesourcery/source~1/bin/../lib/gcc/arm-none-eabi/4.5.2/thumb2\libgcc.a(_udivdi3.o)
 .ARM.attributes
                0x00000e77       0x1b c:/progra~2/codesourcery/source~1/bin/../lib/gcc/arm-none-eabi/4.5.2/thumb2\libgcc.a(_udivsi3.o)
 .ARM.attributes
                0x00000e92       0x29 c:/progra~2/codesourcery/source~1/bin/../lib/gcc/arm-none-eabi/4.5.2/../../../../arm-none-eabi/lib/thumb2\libc.a(lib_a-abort.o)
 .ARM.attributes
                0x00000ebb       0x29 c:/progra~2/codesourcery/source~1/bin/../lib/gcc/arm-none-eabi/4.5.2/../../../../arm-none-eabi/lib/thumb2\libc.a(lib_a-fputc.o)
 .ARM.attributes
                0x00000ee4       0x29 c:/progra~2/codesourcery/source~1/bin/../lib/gcc/arm-none-eabi/4.5.2/../../../../arm-none-eabi/lib/thumb2\libc.a(lib_a-fputs.o)
 .ARM.attributes
                0x00000f0d       0x29 c:/progra~2/codesourcery/source~1/bin/../lib/gcc/arm-none-eabi/4.5.2/../../../../arm-none-eabi/lib/thumb2\libc.a(lib_a-fvwrite.o)
 .ARM.attributes
                0x00000f36       0x29 c:/progra~2/codesourcery/source~1/bin/../lib/gcc/arm-none-eabi/4.5.2/../../../../arm-none-eabi/lib/thumb2\libc.a(lib_a-fwrite.o)
 .ARM.attributes
                0x00000f5f       0x29 c:/progra~2/codesourcery/source~1/bin/../lib/gcc/arm-none-eabi/4.5.2/../../../../arm-none-eabi/lib/thumb2\libc.a(lib_a-impure.o)
 .ARM.attributes
                0x00000f88       0x29 c:/progra~2/codesourcery/source~1/bin/../lib/gcc/arm-none-eabi/4.5.2/../../../../arm-none-eabi/lib/thumb2\libc.a(lib_a-malloc.o)
 .ARM.attributes
                0x00000fb1       0x29 c:/progra~2/codesourcery/source~1/bin/../lib/gcc/arm-none-eabi/4.5.2/../../../../arm-none-eabi/lib/thumb2\libc.a(lib_a-mallocr.o)
 .ARM.attributes
                0x00000fda       0x29 c:/progra~2/codesourcery/source~1/bin/../lib/gcc/arm-none-eabi/4.5.2/../../../../arm-none-eabi/lib/thumb2\libc.a(lib_a-memchr.o)
 .ARM.attributes
                0x00001003       0x29 c:/progra~2/codesourcery/source~1/bin/../lib/gcc/arm-none-eabi/4.5.2/../../../../arm-none-eabi/lib/thumb2\libc.a(lib_a-memcmp.o)
 .ARM.attributes
                0x0000102c       0x29 c:/progra~2/codesourcery/source~1/bin/../lib/gcc/arm-none-eabi/4.5.2/../../../../arm-none-eabi/lib/thumb2\libc.a(lib_a-memcpy.o)
 .ARM.attributes
                0x00001055       0x29 c:/progra~2/codesourcery/source~1/bin/../lib/gcc/arm-none-eabi/4.5.2/../../../../arm-none-eabi/lib/thumb2\libc.a(lib_a-memmove.o)
 .ARM.attributes
                0x0000107e       0x29 c:/progra~2/codesourcery/source~1/bin/../lib/gcc/arm-none-eabi/4.5.2/../../../../arm-none-eabi/lib/thumb2\libc.a(lib_a-memset.o)
 .ARM.attributes
                0x000010a7       0x29 c:/progra~2/codesourcery/source~1/bin/../lib/gcc/arm-none-eabi/4.5.2/../../../../arm-none-eabi/lib/thumb2\libc.a(lib_a-mlock.o)
 .ARM.attributes
                0x000010d0       0x29 c:/progra~2/codesourcery/source~1/bin/../lib/gcc/arm-none-eabi/4.5.2/../../../../arm-none-eabi/lib/thumb2\libc.a(lib_a-putc.o)
 .ARM.attributes
                0x000010f9       0x29 c:/progra~2/codesourcery/source~1/bin/../lib/gcc/arm-none-eabi/4.5.2/../../../../arm-none-eabi/lib/thumb2\libc.a(lib_a-rand.o)
 .ARM.attributes
                0x00001122       0x29 c:/progra~2/codesourcery/source~1/bin/../lib/gcc/arm-none-eabi/4.5.2/../../../../arm-none-eabi/lib/thumb2\libc.a(lib_a-realloc.o)
 .ARM.attributes
                0x0000114b       0x29 c:/progra~2/codesourcery/source~1/bin/../lib/gcc/arm-none-eabi/4.5.2/../../../../arm-none-eabi/lib/thumb2\libc.a(lib_a-reallocr.o)
 .ARM.attributes
                0x00001174       0x29 c:/progra~2/codesourcery/source~1/bin/../lib/gcc/arm-none-eabi/4.5.2/../../../../arm-none-eabi/lib/thumb2\libc.a(lib_a-reent.o)
 .ARM.attributes
                0x0000119d       0x29 c:/progra~2/codesourcery/source~1/bin/../lib/gcc/arm-none-eabi/4.5.2/../../../../arm-none-eabi/lib/thumb2\libc.a(lib_a-sbrkr.o)
 .ARM.attributes
                0x000011c6       0x29 c:/progra~2/codesourcery/source~1/bin/../lib/gcc/arm-none-eabi/4.5.2/../../../../arm-none-eabi/lib/thumb2\libc.a(lib_a-signal.o)
 .ARM.attributes
                0x000011ef       0x29 c:/progra~2/codesourcery/source~1/bin/../lib/gcc/arm-none-eabi/4.5.2/../../../../arm-none-eabi/lib/thumb2\libc.a(lib_a-signalr.o)
 .ARM.attributes
                0x00001218       0x29 c:/progra~2/codesourcery/source~1/bin/../lib/gcc/arm-none-eabi/4.5.2/../../../../arm-none-eabi/lib/thumb2\libc.a(lib_a-sprintf.o)
 .ARM.attributes
                0x00001241       0x29 c:/progra~2/codesourcery/source~1/bin/../lib/gcc/arm-none-eabi/4.5.2/../../../../arm-none-eabi/lib/thumb2\libc.a(lib_a-strchr.o)
 .ARM.attributes
                0x0000126a       0x29 c:/progra~2/codesourcery/source~1/bin/../lib/gcc/arm-none-eabi/4.5.2/../../../../arm-none-eabi/lib/thumb2\libc.a(lib_a-strcmp.o)
 .ARM.attributes
                0x00001293       0x29 c:/progra~2/codesourcery/source~1/bin/../lib/gcc/arm-none-eabi/4.5.2/../../../../arm-none-eabi/lib/thumb2\libc.a(lib_a-strcpy.o)
 .ARM.attributes
                0x000012bc       0x29 c:/progra~2/codesourcery/source~1/bin/../lib/gcc/arm-none-eabi/4.5.2/../../../../arm-none-eabi/lib/thumb2\libc.a(lib_a-strlen.o)
 .ARM.attributes
                0x000012e5       0x29 c:/progra~2/codesourcery/source~1/bin/../lib/gcc/arm-none-eabi/4.5.2/../../../../arm-none-eabi/lib/thumb2\libc.a(lib_a-strncmp.o)
 .ARM.attributes
                0x0000130e       0x29 c:/progra~2/codesourcery/source~1/bin/../lib/gcc/arm-none-eabi/4.5.2/../../../../arm-none-eabi/lib/thumb2\libc.a(lib_a-strncpy.o)
 .ARM.attributes
                0x00001337       0x29 c:/progra~2/codesourcery/source~1/bin/../lib/gcc/arm-none-eabi/4.5.2/../../../../arm-none-eabi/lib/thumb2\libc.a(lib_a-strrchr.o)
 .ARM.attributes
                0x00001360       0x29 c:/progra~2/codesourcery/source~1/bin/../lib/gcc/arm-none-eabi/4.5.2/../../../../arm-none-eabi/lib/thumb2\libc.a(lib_a-svfprintf.o)
 .ARM.attributes
                0x00001389       0x29 c:/progra~2/codesourcery/source~1/bin/../lib/gcc/arm-none-eabi/4.5.2/../../../../arm-none-eabi/lib/thumb2\libc.a(lib_a-syswrite.o)
 .ARM.attributes
                0x000013b2       0x29 c:/progra~2/codesourcery/source~1/bin/../lib/gcc/arm-none-eabi/4.5.2/../../../../arm-none-eabi/lib/thumb2\libc.a(lib_a-wbuf.o)
 .ARM.attributes
                0x000013db       0x29 c:/progra~2/codesourcery/source~1/bin/../lib/gcc/arm-none-eabi/4.5.2/../../../../arm-none-eabi/lib/thumb2\libc.a(lib_a-writer.o)
 .ARM.attributes
                0x00001404       0x29 c:/progra~2/codesourcery/source~1/bin/../lib/gcc/arm-none-eabi/4.5.2/../../../../arm-none-eabi/lib/thumb2\libc.a(lib_a-wsetup.o)
 .ARM.attributes
                0x0000142d       0x29 c:/progra~2/codesourcery/source~1/bin/../lib/gcc/arm-none-eabi/4.5.2/../../../../arm-none-eabi/lib/thumb2\libc.a(lib_a-dtoa.o)
 .ARM.attributes
                0x00001456       0x29 c:/progra~2/codesourcery/source~1/bin/../lib/gcc/arm-none-eabi/4.5.2/../../../../arm-none-eabi/lib/thumb2\libc.a(lib_a-fflush.o)
 .ARM.attributes
                0x0000147f       0x29 c:/progra~2/codesourcery/source~1/bin/../lib/gcc/arm-none-eabi/4.5.2/../../../../arm-none-eabi/lib/thumb2\libc.a(lib_a-findfp.o)
 .ARM.attributes
                0x000014a8       0x29 c:/progra~2/codesourcery/source~1/bin/../lib/gcc/arm-none-eabi/4.5.2/../../../../arm-none-eabi/lib/thumb2\libc.a(lib_a-freer.o)
 .ARM.attributes
                0x000014d1       0x29 c:/progra~2/codesourcery/source~1/bin/../lib/gcc/arm-none-eabi/4.5.2/../../../../arm-none-eabi/lib/thumb2\libc.a(lib_a-fwalk.o)
 .ARM.attributes
                0x000014fa       0x29 c:/progra~2/codesourcery/source~1/bin/../lib/gcc/arm-none-eabi/4.5.2/../../../../arm-none-eabi/lib/thumb2\libc.a(lib_a-locale.o)
 .ARM.attributes
                0x00001523       0x29 c:/progra~2/codesourcery/source~1/bin/../lib/gcc/arm-none-eabi/4.5.2/../../../../arm-none-eabi/lib/thumb2\libc.a(lib_a-makebuf.o)
 .ARM.attributes
                0x0000154c       0x29 c:/progra~2/codesourcery/source~1/bin/../lib/gcc/arm-none-eabi/4.5.2/../../../../arm-none-eabi/lib/thumb2\libc.a(lib_a-mprec.o)
 .ARM.attributes
                0x00001575       0x29 c:/progra~2/codesourcery/source~1/bin/../lib/gcc/arm-none-eabi/4.5.2/../../../../arm-none-eabi/lib/thumb2\libc.a(lib_a-s_fpclassify.o)
 .ARM.attributes
                0x0000159e       0x29 c:/progra~2/codesourcery/source~1/bin/../lib/gcc/arm-none-eabi/4.5.2/../../../../arm-none-eabi/lib/thumb2\libc.a(lib_a-stdio.o)
 .ARM.attributes
                0x000015c7       0x29 c:/progra~2/codesourcery/source~1/bin/../lib/gcc/arm-none-eabi/4.5.2/../../../../arm-none-eabi/lib/thumb2\libc.a(lib_a-svfiprintf.o)
 .ARM.attributes
                0x000015f0       0x29 c:/progra~2/codesourcery/source~1/bin/../lib/gcc/arm-none-eabi/4.5.2/../../../../arm-none-eabi/lib/thumb2\libc.a(lib_a-callocr.o)
 .ARM.attributes
                0x00001619       0x29 c:/progra~2/codesourcery/source~1/bin/../lib/gcc/arm-none-eabi/4.5.2/../../../../arm-none-eabi/lib/thumb2\libc.a(lib_a-closer.o)
 .ARM.attributes
                0x00001642       0x29 c:/progra~2/codesourcery/source~1/bin/../lib/gcc/arm-none-eabi/4.5.2/../../../../arm-none-eabi/lib/thumb2\libc.a(lib_a-fclose.o)
 .ARM.attributes
                0x0000166b       0x29 c:/progra~2/codesourcery/source~1/bin/../lib/gcc/arm-none-eabi/4.5.2/../../../../arm-none-eabi/lib/thumb2\libc.a(lib_a-fstatr.o)
 .ARM.attributes
                0x00001694       0x29 c:/progra~2/codesourcery/source~1/bin/../lib/gcc/arm-none-eabi/4.5.2/../../../../arm-none-eabi/lib/thumb2\libc.a(lib_a-isattyr.o)
 .ARM.attributes
                0x000016bd       0x29 c:/progra~2/codesourcery/source~1/bin/../lib/gcc/arm-none-eabi/4.5.2/../../../../arm-none-eabi/lib/thumb2\libc.a(lib_a-lseekr.o)
 .ARM.attributes
                0x000016e6       0x29 c:/progra~2/codesourcery/source~1/bin/../lib/gcc/arm-none-eabi/4.5.2/../../../../arm-none-eabi/lib/thumb2\libc.a(lib_a-readr.o)
 .ARM.attributes
                0x0000170f       0x1b c:/progra~2/codesourcery/source~1/bin/../lib/gcc/arm-none-eabi/4.5.2/thumb2\libgcc.a(_arm_addsubdf3.o)
 .ARM.attributes
                0x0000172a       0x1b c:/progra~2/codesourcery/source~1/bin/../lib/gcc/arm-none-eabi/4.5.2/thumb2\libgcc.a(_arm_muldivdf3.o)
 .ARM.attributes
                0x00001745       0x1b c:/progra~2/codesourcery/source~1/bin/../lib/gcc/arm-none-eabi/4.5.2/thumb2\libgcc.a(_arm_cmpdf2.o)
 .ARM.attributes
                0x00001760       0x1b c:/progra~2/codesourcery/source~1/bin/../lib/gcc/arm-none-eabi/4.5.2/thumb2\libgcc.a(_arm_fixdfsi.o)
 .ARM.attributes
                0x0000177b       0x29 c:/progra~2/codesourcery/source~1/bin/../lib/gcc/arm-none-eabi/4.5.2/thumb2/crtend.o
 .ARM.attributes
                0x000017a4       0x19 c:/progra~2/codesourcery/source~1/bin/../lib/gcc/arm-none-eabi/4.5.2/thumb2/crtn.o

/DISCARD/
 *(.note.GNU-stack)
LOAD c:/progra~2/codesourcery/source~1/bin/../lib/gcc/arm-none-eabi/4.5.2/../../../../arm-none-eabi/lib/thumb2\libstdc++.a
LOAD c:/progra~2/codesourcery/source~1/bin/../lib/gcc/arm-none-eabi/4.5.2/../../../../arm-none-eabi/lib/thumb2\libm.a
START GROUP
LOAD c:/progra~2/codesourcery/source~1/bin/../lib/gcc/arm-none-eabi/4.5.2/thumb2\libgcc.a
LOAD c:/progra~2/codesourcery/source~1/bin/../lib/gcc/arm-none-eabi/4.5.2/../../../../arm-none-eabi/lib/thumb2\libc.a
END GROUP
LOAD c:/progra~2/codesourcery/source~1/bin/../lib/gcc/arm-none-eabi/4.5.2/thumb2/crtend.o
LOAD c:/progra~2/codesourcery/source~1/bin/../lib/gcc/arm-none-eabi/4.5.2/thumb2/crtn.o
OUTPUT(build\MB-lpc1768-v3.0.elf elf32-littlearm)

Cross Reference Table

Symbol                                            File
ADC_BurstCmd                                      build\lib\source\lpc17xx_adc.o
ADC_ChannelCmd                                    build\lib\source\lpc17xx_adc.o
ADC_ChannelGetData                                build\lib\source\lpc17xx_adc.o
ADC_ChannelGetStatus                              build\lib\source\lpc17xx_adc.o
ADC_DeInit                                        build\lib\source\lpc17xx_adc.o
ADC_EdgeStartConfig                               build\lib\source\lpc17xx_adc.o
ADC_GetData                                       build\lib\source\lpc17xx_adc.o
ADC_GlobalGetData                                 build\lib\source\lpc17xx_adc.o
ADC_GlobalGetStatus                               build\lib\source\lpc17xx_adc.o
ADC_IRQHandler                                    build\system\startup_LPC17xx.o
ADC_Init                                          build\lib\source\lpc17xx_adc.o
ADC_IntConfig                                     build\lib\source\lpc17xx_adc.o
ADC_PowerdownCmd                                  build\lib\source\lpc17xx_adc.o
ADC_StartCmd                                      build\lib\source\lpc17xx_adc.o
A_MS1                                             build\StepperInterface.o
                                                  build\Microsteps.o
                                                  build\Main.o
                                                  build\Host.o
                                                  build\EepromMap.o
                                                  build\Command.o
A_MS2                                             build\StepperInterface.o
                                                  build\Microsteps.o
                                                  build\Main.o
                                                  build\Host.o
                                                  build\EepromMap.o
                                                  build\Command.o
A_MS3                                             build\StepperInterface.o
                                                  build\Microsteps.o
                                                  build\Main.o
                                                  build\Host.o
                                                  build\EepromMap.o
                                                  build\Command.o
BOD_IRQHandler                                    build\system\startup_LPC17xx.o
B_MS1                                             build\StepperInterface.o
                                                  build\Microsteps.o
                                                  build\Main.o
                                                  build\Host.o
                                                  build\EepromMap.o
                                                  build\Command.o
B_MS2                                             build\StepperInterface.o
                                                  build\Microsteps.o
                                                  build\Main.o
                                                  build\Host.o
                                                  build\EepromMap.o
                                                  build\Command.o
B_MS3                                             build\StepperInterface.o
                                                  build\Microsteps.o
                                                  build\Main.o
                                                  build\Host.o
                                                  build\EepromMap.o
                                                  build\Command.o
BusFault_Handler                                  build\system\startup_LPC17xx.o
ButtonArray::getButton(InterfaceBoardDefinitions::ButtonName&) build\InterfaceBoard.o
ButtonArray::init()                               build\InterfaceBoard.o
ButtonArray::scanButtons()                        build\InterfaceBoard.o
CANActivity_IRQHandler                            build\system\startup_LPC17xx.o
CAN_IRQHandler                                    build\system\startup_LPC17xx.o
CLKPWR_ConfigPPWR                                 build\lib\source\lpc17xx_clkpwr.o
                                                  build\lib\source\lpc17xx_uart.o
                                                  build\lib\source\lpc17xx_timer.o
                                                  build\lib\source\lpc17xx_spi.o
                                                  build\lib\source\lpc17xx_i2c.o
                                                  build\lib\source\lpc17xx_adc.o
CLKPWR_DeepPowerDown                              build\lib\source\lpc17xx_clkpwr.o
CLKPWR_DeepSleep                                  build\lib\source\lpc17xx_clkpwr.o
CLKPWR_GetPCLK                                    build\lib\source\lpc17xx_clkpwr.o
                                                  build\lib\source\lpc17xx_uart.o
                                                  build\lib\source\lpc17xx_timer.o
                                                  build\lib\source\lpc17xx_spi.o
                                                  build\lib\source\lpc17xx_i2c.o
                                                  build\lib\source\lpc17xx_adc.o
CLKPWR_GetPCLKSEL                                 build\lib\source\lpc17xx_clkpwr.o
CLKPWR_PowerDown                                  build\lib\source\lpc17xx_clkpwr.o
CLKPWR_SetPCLKDiv                                 build\lib\source\lpc17xx_clkpwr.o
                                                  build\lib\source\lpc17xx_timer.o
                                                  build\lib\source\lpc17xx_i2c.o
CLKPWR_Sleep                                      build\lib\source\lpc17xx_clkpwr.o
CancelBuildMenu::CancelBuildMenu()                build\Menu.o
CancelBuildMenu::CancelBuildMenu()                build\Menu.o
                                                  build\InterfaceBoard.o
CancelBuildMenu::drawItem(unsigned char, LiquidCrystal&) build\Menu.o
CancelBuildMenu::handleSelect(unsigned char)      build\Menu.o
CancelBuildMenu::resetState()                     build\Menu.o
CircularBufferTempl<unsigned char>::CircularBufferTempl(unsigned short, unsigned char*) build\Command.o
CircularBufferTempl<unsigned char>::CircularBufferTempl(unsigned short, unsigned char*) build\Command.o
CircularBufferTempl<unsigned char>::getLength() const build\Command.o
CircularBufferTempl<unsigned char>::getRemainingCapacity() const build\Command.o
CircularBufferTempl<unsigned char>::isEmpty() const build\Command.o
CircularBufferTempl<unsigned char>::operator[](unsigned short) build\Command.o
CircularBufferTempl<unsigned char>::pop()         build\Command.o
CircularBufferTempl<unsigned char>::push(unsigned char) build\Command.o
CircularBufferTempl<unsigned char>::reset()       build\Command.o
DMA_IRQHandler                                    build\system\startup_LPC17xx.o
DebugMon_Handler                                  build\system\startup_LPC17xx.o
Default_Handler                                   build\system\startup_LPC17xx.o
EINT0_IRQHandler                                  build\system\startup_LPC17xx.o
EINT1_IRQHandler                                  build\system\startup_LPC17xx.o
EINT2_IRQHandler                                  build\system\startup_LPC17xx.o
EINT3_IRQHandler                                  build\system\startup_LPC17xx.o
ENET_IRQHandler                                   build\system\startup_LPC17xx.o
FIO_ByteClearValue                                build\lib\source\lpc17xx_gpio.o
FIO_ByteReadValue                                 build\lib\source\lpc17xx_gpio.o
FIO_ByteSetDir                                    build\lib\source\lpc17xx_gpio.o
FIO_ByteSetMask                                   build\lib\source\lpc17xx_gpio.o
FIO_ByteSetValue                                  build\lib\source\lpc17xx_gpio.o
FIO_ClearInt                                      build\lib\source\lpc17xx_gpio.o
FIO_ClearValue                                    build\lib\source\lpc17xx_gpio.o
FIO_GetIntStatus                                  build\lib\source\lpc17xx_gpio.o
FIO_HalfWordClearValue                            build\lib\source\lpc17xx_gpio.o
FIO_HalfWordReadValue                             build\lib\source\lpc17xx_gpio.o
FIO_HalfWordSetDir                                build\lib\source\lpc17xx_gpio.o
FIO_HalfWordSetMask                               build\lib\source\lpc17xx_gpio.o
FIO_HalfWordSetValue                              build\lib\source\lpc17xx_gpio.o
FIO_IntCmd                                        build\lib\source\lpc17xx_gpio.o
FIO_ReadValue                                     build\lib\source\lpc17xx_gpio.o
FIO_SetDir                                        build\lib\source\lpc17xx_gpio.o
FIO_SetMask                                       build\lib\source\lpc17xx_gpio.o
FIO_SetValue                                      build\lib\source\lpc17xx_gpio.o
GPIO_ClearInt                                     build\lib\source\lpc17xx_gpio.o
GPIO_ClearValue                                   build\lib\source\lpc17xx_gpio.o
GPIO_GetIntStatus                                 build\lib\source\lpc17xx_gpio.o
GPIO_IntCmd                                       build\lib\source\lpc17xx_gpio.o
GPIO_ReadValue                                    build\lib\source\lpc17xx_gpio.o
                                                  build\UART.o
                                                  build\StepperInterface.o
                                                  build\Motherboard.o
                                                  build\LiquidCrystal.o
                                                  build\InterfaceBoard.o
                                                  build\lib_sd\sd_raw.o
GPIO_SetDir                                       build\lib\source\lpc17xx_gpio.o
                                                  build\UART.o
                                                  build\StepperInterface.o
                                                  build\Motherboard.o
                                                  build\LiquidCrystal.o
                                                  build\InterfaceBoard.o
                                                  build\lib_sd\sd_raw.o
GPIO_SetValue                                     build\lib\source\lpc17xx_gpio.o
                                                  build\UART.o
                                                  build\StepperInterface.o
                                                  build\Motherboard.o
                                                  build\LiquidCrystal.o
                                                  build\InterfaceBoard.o
                                                  build\lib_sd\sd_raw.o
HardFault_Handler                                 build\system\startup_LPC17xx.o
I2C0_IRQHandler                                   build\system\startup_LPC17xx.o
I2C1_IRQHandler                                   build\system\startup_LPC17xx.o
I2C2_IRQHandler                                   build\system\startup_LPC17xx.o
I2C_Cmd                                           build\lib\source\lpc17xx_i2c.o
                                                  build\Microsteps.o
I2C_DeInit                                        build\lib\source\lpc17xx_i2c.o
I2C_Init                                          build\lib\source\lpc17xx_i2c.o
                                                  build\Microsteps.o
I2C_IntCmd                                        build\lib\source\lpc17xx_i2c.o
I2C_MasterHandler                                 build\lib\source\lpc17xx_i2c.o
I2C_MasterTransferComplete                        build\lib\source\lpc17xx_i2c.o
I2C_MasterTransferData                            build\lib\source\lpc17xx_i2c.o
                                                  build\Microsteps.o
I2C_MonitorGetDatabuffer                          build\lib\source\lpc17xx_i2c.o
I2C_MonitorHandler                                build\lib\source\lpc17xx_i2c.o
I2C_MonitorModeCmd                                build\lib\source\lpc17xx_i2c.o
I2C_MonitorModeConfig                             build\lib\source\lpc17xx_i2c.o
I2C_SetOwnSlaveAddr                               build\lib\source\lpc17xx_i2c.o
I2C_SlaveHandler                                  build\lib\source\lpc17xx_i2c.o
I2C_SlaveTransferComplete                         build\lib\source\lpc17xx_i2c.o
I2C_SlaveTransferData                             build\lib\source\lpc17xx_i2c.o
I2S_IRQHandler                                    build\system\startup_LPC17xx.o
IAP::IAP()                                        build\EepromMap.o
IAP::IAP()                                        build\EepromMap.o
IAP::blank_check(int, int)                        build\IAP_internal_flash_write\IAP.o
IAP::compare(char*, char*, int)                   build\IAP_internal_flash_write\IAP.o
IAP::erase(int, int)                              build\IAP_internal_flash_write\IAP.o
                                                  build\EepromMap.o
IAP::prepare(int, int)                            build\IAP_internal_flash_write\IAP.o
IAP::read_ID()                                    build\IAP_internal_flash_write\IAP.o
IAP::read_serial()                                build\IAP_internal_flash_write\IAP.o
IAP::reserved_flash_area_size()                   build\IAP_internal_flash_write\IAP.o
IAP::reserved_flash_area_start()                  build\IAP_internal_flash_write\IAP.o
IAP::write(char*, char*, int)                     build\IAP_internal_flash_write\IAP.o
                                                  build\EepromMap.o
InPacket::InPacket()                              build\Packet.o
                                                  src\shared\Packet.o
                                                  build\UART.o
InPacket::InPacket()                              build\Packet.o
                                                  src\shared\Packet.o
InPacket::isFinished() const                      build\Host.o
                                                  build\Tool.o
InPacket::isStarted() const                       build\Host.o
InPacket::processByte(unsigned char)              build\Packet.o
                                                  src\shared\Packet.o
                                                  build\UART.o
InPacket::reset()                                 build\Packet.o
                                                  src\shared\Packet.o
                                                  build\Tool.o
                                                  build\Motherboard.o
                                                  build\Host.o
InPacket::timeout()                               build\Host.o
                                                  build\Tool.o
InterfaceBoard::InterfaceBoard()                  build\InterfaceBoard.o
                                                  build\Interface.o
InterfaceBoard::InterfaceBoard()                  build\InterfaceBoard.o
InterfaceBoard::doInterrupt()                     build\InterfaceBoard.o
                                                  build\Interface.o
InterfaceBoard::doUpdate()                        build\InterfaceBoard.o
                                                  build\Interface.o
InterfaceBoard::getUpdateRate()                   build\InterfaceBoard.o
                                                  build\Interface.o
InterfaceBoard::init()                            build\InterfaceBoard.o
                                                  build\Interface.o
InterfaceBoard::popScreen()                       build\InterfaceBoard.o
                                                  build\Interface.o
InterfaceBoard::pushScreen(Screen*)               build\InterfaceBoard.o
                                                  build\Interface.o
JogMode::JogMode()                                build\Menu.o
JogMode::JogMode()                                build\Menu.o
JogMode::getUpdateRate()                          build\Menu.o
JogMode::jog(InterfaceBoardDefinitions::ButtonName) build\Menu.o
JogMode::notifyButtonPressed(InterfaceBoardDefinitions::ButtonName) build\Menu.o
JogMode::reset()                                  build\Menu.o
JogMode::update(LiquidCrystal&, bool)             build\Menu.o
LiquidCrystal::LiquidCrystal(Pin, Pin, Pin, Pin, Pin, Pin) build\LiquidCrystal.o
LiquidCrystal::LiquidCrystal(Pin, Pin, Pin, Pin, Pin, Pin) build\LiquidCrystal.o
                                                  build\InterfaceBoard.o
LiquidCrystal::LiquidCrystal(Pin, Pin, Pin, Pin, Pin, Pin, Pin) build\LiquidCrystal.o
LiquidCrystal::LiquidCrystal(Pin, Pin, Pin, Pin, Pin, Pin, Pin) build\LiquidCrystal.o
LiquidCrystal::LiquidCrystal(Pin, Pin, Pin, Pin, Pin, Pin, Pin, Pin, Pin, Pin) build\LiquidCrystal.o
LiquidCrystal::LiquidCrystal(Pin, Pin, Pin, Pin, Pin, Pin, Pin, Pin, Pin, Pin) build\LiquidCrystal.o
LiquidCrystal::LiquidCrystal(Pin, Pin, Pin, Pin, Pin, Pin, Pin, Pin, Pin, Pin, Pin) build\LiquidCrystal.o
LiquidCrystal::LiquidCrystal(Pin, Pin, Pin, Pin, Pin, Pin, Pin, Pin, Pin, Pin, Pin) build\LiquidCrystal.o
LiquidCrystal::autoscroll()                       build\LiquidCrystal.o
LiquidCrystal::begin(unsigned char, unsigned char, unsigned char) build\LiquidCrystal.o
                                                  build\InterfaceBoard.o
LiquidCrystal::blink()                            build\LiquidCrystal.o
LiquidCrystal::clear()                            build\LiquidCrystal.o
                                                  build\Menu.o
                                                  build\InterfaceBoard.o
LiquidCrystal::command(unsigned char)             build\LiquidCrystal.o
LiquidCrystal::createChar(unsigned char, unsigned char*) build\LiquidCrystal.o
LiquidCrystal::cursor()                           build\LiquidCrystal.o
LiquidCrystal::display()                          build\LiquidCrystal.o
LiquidCrystal::home()                             build\LiquidCrystal.o
                                                  build\InterfaceBoard.o
LiquidCrystal::init(unsigned char, Pin, Pin, Pin, Pin, Pin, Pin, Pin, Pin, Pin, Pin, Pin) build\LiquidCrystal.o
LiquidCrystal::leftToRight()                      build\LiquidCrystal.o
LiquidCrystal::noAutoscroll()                     build\LiquidCrystal.o
LiquidCrystal::noBlink()                          build\LiquidCrystal.o
LiquidCrystal::noCursor()                         build\LiquidCrystal.o
LiquidCrystal::noDisplay()                        build\LiquidCrystal.o
LiquidCrystal::pulseEnable()                      build\LiquidCrystal.o
LiquidCrystal::rightToLeft()                      build\LiquidCrystal.o
LiquidCrystal::scrollDisplayLeft()                build\LiquidCrystal.o
LiquidCrystal::scrollDisplayRight()               build\LiquidCrystal.o
LiquidCrystal::send(unsigned char, bool)          build\LiquidCrystal.o
LiquidCrystal::setCursor(unsigned char, unsigned char) build\LiquidCrystal.o
                                                  build\Menu.o
LiquidCrystal::write(unsigned char)               build\LiquidCrystal.o
LiquidCrystal::write4bits(unsigned char)          build\LiquidCrystal.o
LiquidCrystal::write8bits(unsigned char)          build\LiquidCrystal.o
LiquidCrystal::writeFromPgmspace(char const*)     build\LiquidCrystal.o
                                                  build\Menu.o
LiquidCrystal::writeInt(unsigned short, unsigned char) build\LiquidCrystal.o
                                                  build\Menu.o
LiquidCrystal::writeString(char*)                 build\LiquidCrystal.o
                                                  build\Menu.o
MCPWM_IRQHandler                                  build\system\startup_LPC17xx.o
MainMenu::MainMenu()                              build\Menu.o
                                                  build\InterfaceBoard.o
MainMenu::MainMenu()                              build\Menu.o
MainMenu::drawItem(unsigned char, LiquidCrystal&) build\Menu.o
MainMenu::handleSelect(unsigned char)             build\Menu.o
MemManage_Handler                                 build\system\startup_LPC17xx.o
Menu::Menu()                                      build\Menu.o
Menu::Menu()                                      build\Menu.o
Menu::getUpdateRate()                             build\Menu.o
Menu::handleCancel()                              build\Menu.o
Menu::handleSelect(unsigned char)                 build\Menu.o
Menu::notifyButtonPressed(InterfaceBoardDefinitions::ButtonName) build\Menu.o
Menu::reset()                                     build\Menu.o
Menu::resetState()                                build\Menu.o
Menu::update(LiquidCrystal&, bool)                build\Menu.o
MonitorMode::MonitorMode()                        build\InterfaceBoard.o
                                                  build\Menu.o
MonitorMode::MonitorMode()                        build\InterfaceBoard.o
                                                  build\Menu.o
MonitorMode::getUpdateRate()                      build\Menu.o
MonitorMode::notifyButtonPressed(InterfaceBoardDefinitions::ButtonName) build\Menu.o
MonitorMode::reset()                              build\Menu.o
MonitorMode::update(LiquidCrystal&, bool)         build\Menu.o
Motherboard::Motherboard()                        build\Motherboard.o
Motherboard::Motherboard()                        build\Motherboard.o
Motherboard::doInterrupt()                        build\Motherboard.o
Motherboard::getBoard()                           build\DebugPacketProcessor.o
                                                  build\Tool.o
                                                  build\Timeout.o
                                                  build\Motherboard.o
                                                  build\Main.o
                                                  build\Host.o
Motherboard::getCurrentError()                    build\Motherboard.o
                                                  build\DebugPacketProcessor.o
Motherboard::getCurrentMicros()                   build\Motherboard.o
                                                  build\Timeout.o
Motherboard::getStepperInterface(int)             build\Host.o
                                                  build\Steppers.o
Motherboard::indicateError(int)                   build\Motherboard.o
                                                  build\Tool.o
                                                  build\Host.o
                                                  build\DebugPacketProcessor.o
Motherboard::motherboard                          build\Motherboard.o
                                                  build\Tool.o
                                                  build\Timeout.o
                                                  build\Main.o
                                                  build\Host.o
                                                  build\DebugPacketProcessor.o
Motherboard::reset()                              build\Motherboard.o
                                                  build\Main.o
Motherboard::runMotherboardSlice()                build\Motherboard.o
                                                  build\Main.o
NMI_Handler                                       build\system\startup_LPC17xx.o
NVIC_DeInit                                       build\lib\source\lpc17xx_nvic.o
NVIC_SCBDeInit                                    build\lib\source\lpc17xx_nvic.o
NVIC_SetVTOR                                      build\lib\source\lpc17xx_nvic.o
OutPacket::OutPacket()                            build\Packet.o
                                                  src\shared\Packet.o
                                                  build\UART.o
                                                  build\Menu.o
                                                  build\DebugPacketProcessor.o
OutPacket::OutPacket()                            build\Packet.o
                                                  src\shared\Packet.o
OutPacket::append16(unsigned short)               build\Packet.o
                                                  src\shared\Packet.o
                                                  build\Host.o
OutPacket::append32(unsigned long)                build\Packet.o
                                                  src\shared\Packet.o
                                                  build\Host.o
OutPacket::append8(unsigned char)                 build\Packet.o
                                                  src\shared\Packet.o
                                                  build\Tool.o
                                                  build\Menu.o
                                                  build\Host.o
                                                  build\DebugPacketProcessor.o
                                                  build\Command.o
OutPacket::getNextByteToSend()                    build\Packet.o
                                                  src\shared\Packet.o
                                                  build\UART.o
OutPacket::isSending() const                      build\Host.o
                                                  build\UART.o
OutPacket::prepareForResend()                     build\Packet.o
                                                  src\shared\Packet.o
                                                  build\Tool.o
OutPacket::reset()                                build\Packet.o
                                                  src\shared\Packet.o
                                                  build\Tool.o
                                                  build\Menu.o
                                                  build\Host.o
                                                  build\DebugPacketProcessor.o
                                                  build\Command.o
PID::calculate(int)                               build\PID.o
                                                  src\shared\PID.o
PID::getDeltaTerm()                               build\PID.o
                                                  src\shared\PID.o
PID::getErrorTerm()                               build\PID.o
                                                  src\shared\PID.o
PID::getLastOutput()                              build\PID.o
                                                  src\shared\PID.o
PID::reset()                                      build\PID.o
                                                  src\shared\PID.o
PID::reset_state()                                build\PID.o
                                                  src\shared\PID.o
PID::setTarget(int)                               build\PID.o
                                                  src\shared\PID.o
PINSEL_ConfigPin                                  build\lib\source\lpc17xx_pinsel.o
                                                  build\UART.o
                                                  build\Tool.o
                                                  build\Motherboard.o
                                                  build\Microsteps.o
                                                  build\Main.o
                                                  build\EepromMap.o
                                                  build\lib\source\debug_frmwrk.o
PINSEL_ConfigTraceFunc                            build\lib\source\lpc17xx_pinsel.o
PINSEL_SetI2C0Pins                                build\lib\source\lpc17xx_pinsel.o
PLL0_IRQHandler                                   build\system\startup_LPC17xx.o
PLL1_IRQHandler                                   build\system\startup_LPC17xx.o
PWM1_IRQHandler                                   build\system\startup_LPC17xx.o
Packet::Packet()                                  src\shared\Packet.o
                                                  build\Packet.o
Packet::Packet()                                  src\shared\Packet.o
                                                  build\Packet.o
Packet::appendByte(unsigned char)                 build\Packet.o
                                                  src\shared\Packet.o
Packet::error(unsigned char)                      src\shared\Packet.o
                                                  build\Tool.o
                                                  build\Packet.o
                                                  build\Host.o
Packet::getData() const                           build\Host.o
                                                  build\SDCard.o
Packet::getErrorCode() const                      build\Host.o
                                                  build\Tool.o
                                                  build\Menu.o
Packet::getLength() const                         build\DebugPacketProcessor.o
                                                  build\SDCard.o
                                                  build\Menu.o
                                                  build\Host.o
Packet::hasError() const                          build\Command.o
                                                  build\Tool.o
                                                  build\Host.o
Packet::read16(unsigned char) const               build\Packet.o
                                                  src\shared\Packet.o
                                                  build\Menu.o
                                                  build\Host.o
Packet::read32(unsigned char) const               build\Packet.o
                                                  src\shared\Packet.o
Packet::read8(unsigned char) const                build\Packet.o
                                                  src\shared\Packet.o
                                                  build\Tool.o
                                                  build\Menu.o
                                                  build\Host.o
                                                  build\DebugPacketProcessor.o
                                                  build\Command.o
Packet::reset()                                   build\Packet.o
                                                  src\shared\Packet.o
                                                  build\Tool.o
                                                  build\Host.o
PendSV_Handler                                    build\system\startup_LPC17xx.o
Pin::Pin()                                        build\LiquidCrystal.o
                                                  build\Motherboard.o
Pin::Pin()                                        build\LiquidCrystal.o
                                                  build\Motherboard.o
Pin::Pin(Port&, unsigned char)                    build\InterfaceBoard.o
                                                  build\UART.o
                                                  build\Motherboard.o
Pin::Pin(Port&, unsigned char)                    build\InterfaceBoard.o
                                                  build\UART.o
                                                  build\Motherboard.o
Pin::getValue()                                   build\StepperInterface.o
Pin::isNull()                                     build\LiquidCrystal.o
                                                  build\StepperInterface.o
Pin::setDirection(bool)                           build\InterfaceBoard.o
                                                  build\UART.o
                                                  build\StepperInterface.o
                                                  build\Motherboard.o
                                                  build\LiquidCrystal.o
Pin::setValue(bool)                               build\InterfaceBoard.o
                                                  build\UART.o
                                                  build\StepperInterface.o
                                                  build\Motherboard.o
                                                  build\LiquidCrystal.o
Point::Point(long, long, long)                    build\Command.o
Point::Point(long, long, long)                    build\Command.o
Point::Point(long, long, long, long, long)        build\Command.o
                                                  build\Steppers.o
Point::Point(long, long, long, long, long)        build\Command.o
                                                  build\Steppers.o
Point::operator[](unsigned int)                   build\Command.o
                                                  build\Menu.o
Point::operator[](unsigned int) const             build\Command.o
                                                  build\Steppers.o
                                                  build\Host.o
Port1                                             build\LPCPort.o
                                                  build\UART.o
                                                  build\Motherboard.o
                                                  build\InterfaceBoard.o
Port2                                             build\LPCPort.o
Port3                                             build\LPCPort.o
Port4                                             build\LPCPort.o
Port::Port()                                      build\LiquidCrystal.o
                                                  build\Motherboard.o
Port::Port()                                      build\LiquidCrystal.o
                                                  build\Motherboard.o
Port::Port(unsigned char)                         build\LPCPort.o
Port::Port(unsigned char)                         build\LPCPort.o
Port::getPin(unsigned char)                       build\StepperInterface.o
Port::isNull()                                    build\LiquidCrystal.o
                                                  build\StepperInterface.o
Port::setPin(unsigned char, bool)                 build\InterfaceBoard.o
                                                  build\UART.o
                                                  build\StepperInterface.o
                                                  build\Motherboard.o
                                                  build\LiquidCrystal.o
Port::setPinDirection(unsigned char, bool)        build\InterfaceBoard.o
                                                  build\UART.o
                                                  build\StepperInterface.o
                                                  build\Motherboard.o
                                                  build\LiquidCrystal.o
QEI_IRQHandler                                    build\system\startup_LPC17xx.o
RIT_IRQHandler                                    build\system\startup_LPC17xx.o
RTC_IRQHandler                                    build\system\startup_LPC17xx.o
SDMenu::SDMenu()                                  build\Menu.o
SDMenu::SDMenu()                                  build\Menu.o
SDMenu::countFiles()                              build\Menu.o
SDMenu::drawItem(unsigned char, LiquidCrystal&)   build\Menu.o
SDMenu::getFilename(unsigned char, char*, unsigned char) build\Menu.o
SDMenu::handleSelect(unsigned char)               build\Menu.o
SDMenu::resetState()                              build\Menu.o
SPI_CheckStatus                                   build\lib\source\lpc17xx_spi.o
SPI_ClearIntPending                               build\lib\source\lpc17xx_spi.o
SPI_ConfigStructInit                              build\lib\source\lpc17xx_spi.o
SPI_DeInit                                        build\lib\source\lpc17xx_spi.o
SPI_GetDataSize                                   build\lib\source\lpc17xx_spi.o
SPI_GetIntStatus                                  build\lib\source\lpc17xx_spi.o
SPI_GetStatus                                     build\lib\source\lpc17xx_spi.o
SPI_IRQHandler                                    build\system\startup_LPC17xx.o
SPI_Init                                          build\lib\source\lpc17xx_spi.o
                                                  build\lib_sd\sd_raw.o
SPI_IntCmd                                        build\lib\source\lpc17xx_spi.o
SPI_ReadWrite                                     build\lib\source\lpc17xx_spi.o
                                                  build\lib_sd\sd_raw.o
SPI_ReceiveData                                   build\lib\source\lpc17xx_spi.o
SPI_SendData                                      build\lib\source\lpc17xx_spi.o
SPI_SetClock                                      build\lib\source\lpc17xx_spi.o
                                                  build\lib_sd\sd_raw.o
SSP0_IRQHandler                                   build\system\startup_LPC17xx.o
SSP1_IRQHandler                                   build\system\startup_LPC17xx.o
SVC_Handler                                       build\system\startup_LPC17xx.o
Screen::Screen()                                  build\InterfaceBoard.o
                                                  build\Menu.o
Screen::Screen()                                  build\InterfaceBoard.o
                                                  build\Menu.o
SnakeMode::SnakeMode()                            build\Menu.o
SnakeMode::SnakeMode()                            build\Menu.o
SnakeMode::getUpdateRate()                        build\Menu.o
SnakeMode::notifyButtonPressed(InterfaceBoardDefinitions::ButtonName) build\Menu.o
SnakeMode::reset()                                build\Menu.o
SnakeMode::update(LiquidCrystal&, bool)           build\Menu.o
SplashScreen::SplashScreen()                      build\InterfaceBoard.o
SplashScreen::SplashScreen()                      build\InterfaceBoard.o
SplashScreen::getUpdateRate()                     build\Menu.o
SplashScreen::notifyButtonPressed(InterfaceBoardDefinitions::ButtonName) build\Menu.o
SplashScreen::reset()                             build\Menu.o
SplashScreen::update(LiquidCrystal&, bool)        build\Menu.o
StepperInterface::StepperInterface()              build\Motherboard.o
StepperInterface::StepperInterface()              build\Motherboard.o
StepperInterface::StepperInterface(Pin const&, Pin const&, Pin const&, Pin const&, Pin const&) build\Motherboard.o
StepperInterface::StepperInterface(Pin const&, Pin const&, Pin const&, Pin const&, Pin const&) build\Motherboard.o
StepperInterface::init(unsigned char)             build\StepperInterface.o
StepperInterface::isAtMaximum()                   build\StepperInterface.o
                                                  build\Steppers.o
                                                  build\Host.o
StepperInterface::isAtMinimum()                   build\StepperInterface.o
                                                  build\Steppers.o
                                                  build\Host.o
StepperInterface::setDirection(bool)              build\StepperInterface.o
                                                  build\Steppers.o
StepperInterface::setEnabled(bool)                build\StepperInterface.o
                                                  build\Steppers.o
StepperInterface::step(bool)                      build\StepperInterface.o
                                                  build\Steppers.o
SysTick_Handler                                   build\system\startup_LPC17xx.o
SystemCoreClock                                   build\system\system_LPC17xx.o
                                                  build\EepromMap.o
                                                  build\lib\source\lpc17xx_clkpwr.o
SystemCoreClockUpdate                             build\system\system_LPC17xx.o
                                                  build\Main.o
SystemInit                                        build\system\system_LPC17xx.o
                                                  build\Main.o
                                                  build\system\startup_LPC17xx.o
TIMER0_IRQHandler                                 build\Motherboard.o
                                                  build\system\startup_LPC17xx.o
TIMER1_IRQHandler                                 build\Motherboard.o
                                                  build\system\startup_LPC17xx.o
TIMER2_IRQHandler                                 build\system\startup_LPC17xx.o
TIMER3_IRQHandler                                 build\system\startup_LPC17xx.o
TIM_ClearIntCapturePending                        build\lib\source\lpc17xx_timer.o
TIM_ClearIntPending                               build\lib\source\lpc17xx_timer.o
                                                  build\Motherboard.o
TIM_Cmd                                           build\lib\source\lpc17xx_timer.o
                                                  build\Motherboard.o
                                                  build\VCOM_GV\intenable.o
TIM_ConfigCapture                                 build\lib\source\lpc17xx_timer.o
TIM_ConfigMatch                                   build\lib\source\lpc17xx_timer.o
                                                  build\Motherboard.o
TIM_ConfigStructInit                              build\lib\source\lpc17xx_timer.o
TIM_DeInit                                        build\lib\source\lpc17xx_timer.o
TIM_GetCaptureValue                               build\lib\source\lpc17xx_timer.o
TIM_GetIntCaptureStatus                           build\lib\source\lpc17xx_timer.o
TIM_GetIntStatus                                  build\lib\source\lpc17xx_timer.o
TIM_Init                                          build\lib\source\lpc17xx_timer.o
                                                  build\Motherboard.o
TIM_ResetCounter                                  build\lib\source\lpc17xx_timer.o
TIM_UpdateMatchValue                              build\lib\source\lpc17xx_timer.o
Timeout::Timeout()                                build\Timeout.o
Timeout::Timeout()                                build\Timeout.o
                                                  build\Tool.o
                                                  build\Motherboard.o
                                                  build\Menu.o
                                                  build\Main.o
                                                  build\Host.o
                                                  build\DebugPacketProcessor.o
                                                  build\Command.o
Timeout::abort()                                  build\Timeout.o
                                                  build\Host.o
Timeout::hasElapsed()                             build\Timeout.o
                                                  build\Tool.o
                                                  build\Motherboard.o
                                                  build\Menu.o
                                                  build\Main.o
                                                  build\Host.o
                                                  build\DebugPacketProcessor.o
                                                  build\Command.o
Timeout::hasLeft()                                build\Timeout.o
Timeout::isActive() const                         build\Host.o
Timeout::start(unsigned long)                     build\Timeout.o
                                                  build\Tool.o
                                                  build\Motherboard.o
                                                  build\Menu.o
                                                  build\Main.o
                                                  build\Host.o
                                                  build\DebugPacketProcessor.o
                                                  build\Command.o
UART0_IRQHandler                                  build\system\startup_LPC17xx.o
UART1_IRQHandler                                  build\UART.o
                                                  build\system\startup_LPC17xx.o
UART2_IRQHandler                                  build\system\startup_LPC17xx.o
UART3_IRQHandler                                  build\system\startup_LPC17xx.o
UART::UART(unsigned char)                         build\UART.o
UART::UART(unsigned char)                         build\UART.o
UART::beginSend()                                 build\UART.o
                                                  build\Tool.o
                                                  build\Host.o
UART::enable(bool)                                build\UART.o
                                                  build\Motherboard.o
UART::getHostUART()                               build\Host.o
                                                  build\Motherboard.o
UART::getSlaveUART()                              build\Motherboard.o
                                                  build\UART.o
                                                  build\Tool.o
UART::reset()                                     build\UART.o
                                                  build\Tool.o
UART::uart                                        build\UART.o
                                                  build\Tool.o
                                                  build\Motherboard.o
                                                  build\Host.o
UARTGetChar                                       build\lib\source\debug_frmwrk.o
UARTPutChar                                       build\lib\source\debug_frmwrk.o
UARTPutDec                                        build\lib\source\debug_frmwrk.o
UARTPutDec16                                      build\lib\source\debug_frmwrk.o
UARTPutDec32                                      build\lib\source\debug_frmwrk.o
UARTPutHex                                        build\lib\source\debug_frmwrk.o
UARTPutHex16                                      build\lib\source\debug_frmwrk.o
UARTPutHex32                                      build\lib\source\debug_frmwrk.o
UARTPuts                                          build\lib\source\debug_frmwrk.o
UARTPuts_                                         build\lib\source\debug_frmwrk.o
UART_32_DEC                                       build\lib\source\Uart32.o
UART_32_DEC(LPC_UART_TypeDef*, unsigned long)     build\Tool.o
                                                  build\Motherboard.o
                                                  build\Main.o
                                                  build\EepromMap.o
UART_32_HEX                                       build\lib\source\Uart32.o
UART_32_HEX(LPC_UART_TypeDef*, unsigned long)     build\Tool.o
                                                  build\Motherboard.o
                                                  build\Main.o
                                                  build\EepromMap.o
UART_8                                            build\lib\source\Uart32.o
UART_8(LPC_UART_TypeDef*, unsigned char)          build\Tool.o
                                                  build\Motherboard.o
                                                  build\Main.o
                                                  build\EepromMap.o
UART_ABClearIntPending                            build\lib\source\lpc17xx_uart.o
UART_ABCmd                                        build\lib\source\lpc17xx_uart.o
UART_CheckBusy                                    build\lib\source\lpc17xx_uart.o
UART_ConfigStructInit                             build\lib\source\lpc17xx_uart.o
                                                  build\Tool.o
                                                  build\Motherboard.o
                                                  build\Main.o
                                                  build\EepromMap.o
                                                  build\lib\source\debug_frmwrk.o
UART_DeInit                                       build\lib\source\lpc17xx_uart.o
UART_FIFOConfig                                   build\lib\source\lpc17xx_uart.o
                                                  build\Tool.o
                                                  build\Motherboard.o
                                                  build\Main.o
                                                  build\EepromMap.o
UART_FIFOConfigStructInit                         build\lib\source\lpc17xx_uart.o
                                                  build\Tool.o
                                                  build\Motherboard.o
                                                  build\Main.o
                                                  build\EepromMap.o
UART_ForceBreak                                   build\lib\source\lpc17xx_uart.o
UART_FullModemConfigMode                          build\lib\source\lpc17xx_uart.o
UART_FullModemForcePinState                       build\lib\source\lpc17xx_uart.o
UART_FullModemGetStatus                           build\lib\source\lpc17xx_uart.o
UART_GetIntId                                     build\lib\source\lpc17xx_uart.o
                                                  build\UART.o
UART_GetLineStatus                                build\lib\source\lpc17xx_uart.o
                                                  build\UART.o
UART_Init                                         build\lib\source\lpc17xx_uart.o
                                                  build\Tool.o
                                                  build\Motherboard.o
                                                  build\Main.o
                                                  build\EepromMap.o
                                                  build\lib\source\debug_frmwrk.o
UART_IntConfig                                    build\lib\source\lpc17xx_uart.o
UART_IrDACmd                                      build\lib\source\lpc17xx_uart.o
UART_IrDAInvtInputCmd                             build\lib\source\lpc17xx_uart.o
UART_IrDAPulseDivConfig                           build\lib\source\lpc17xx_uart.o
UART_RS485Config                                  build\lib\source\lpc17xx_uart.o
UART_RS485ReceiverCmd                             build\lib\source\lpc17xx_uart.o
UART_RS485Send                                    build\lib\source\lpc17xx_uart.o
UART_RS485SendData                                build\lib\source\lpc17xx_uart.o
UART_RS485SendSlvAddr                             build\lib\source\lpc17xx_uart.o
UART_Receive                                      build\lib\source\lpc17xx_uart.o
                                                  build\lib\source\debug_frmwrk.o
UART_ReceiveByte                                  build\lib\source\lpc17xx_uart.o
                                                  build\UART.o
UART_Send                                         build\lib\source\lpc17xx_uart.o
                                                  build\Tool.o
                                                  build\Motherboard.o
                                                  build\Main.o
                                                  build\EepromMap.o
                                                  build\lib\source\debug_frmwrk.o
UART_SendByte                                     build\lib\source\lpc17xx_uart.o
                                                  build\UART.o
                                                  build\Tool.o
                                                  build\Motherboard.o
                                                  build\Main.o
                                                  build\EepromMap.o
                                                  build\lib\source\Uart32.o
UART_TxCmd                                        build\lib\source\lpc17xx_uart.o
                                                  build\UART.o
                                                  build\Tool.o
                                                  build\Motherboard.o
                                                  build\Main.o
                                                  build\EepromMap.o
                                                  build\lib\source\debug_frmwrk.o
USBActivity_IRQHandler                            build\system\startup_LPC17xx.o
USBGetDescriptor                                  build\VCOM_GV\usbstdreq.o
USBHandleControlTransfer                          build\VCOM_GV\usbcontrol.o
                                                  build\VCOM_GV\usbinit.o
USBHandleStandardRequest                          build\VCOM_GV\usbstdreq.o
                                                  build\VCOM_GV\usbinit.o
USBHwConfigDevice                                 build\VCOM_GV\usbhw_lpc.o
                                                  build\VCOM_GV\usbstdreq.o
USBHwConnect                                      build\VCOM_GV\usbhw_lpc.o
                                                  build\VCOM_GV\usbSerial.o
USBHwEPConfig                                     build\VCOM_GV\usbhw_lpc.o
                                                  build\VCOM_GV\usbstdreq.o
                                                  build\VCOM_GV\usbinit.o
USBHwEPGetStatus                                  build\VCOM_GV\usbhw_lpc.o
                                                  build\VCOM_GV\usbstdreq.o
USBHwEPRead                                       build\VCOM_GV\usbhw_lpc.o
                                                  build\VCOM_GV\usbcontrol.o
                                                  build\VCOM_GV\usbSerial.o
USBHwEPStall                                      build\VCOM_GV\usbhw_lpc.o
                                                  build\VCOM_GV\usbstdreq.o
                                                  build\VCOM_GV\usbcontrol.o
USBHwEPWrite                                      build\VCOM_GV\usbhw_lpc.o
                                                  build\VCOM_GV\usbcontrol.o
                                                  build\VCOM_GV\usbSerial.o
USBHwISR                                          build\VCOM_GV\usbhw_lpc.o
                                                  build\UART.o
USBHwInit                                         build\VCOM_GV\usbhw_lpc.o
                                                  build\VCOM_GV\usbinit.o
USBHwNakIntEnable                                 build\VCOM_GV\usbhw_lpc.o
                                                  build\VCOM_GV\usbSerial.o
USBHwRegisterDevIntHandler                        build\VCOM_GV\usbhw_lpc.o
                                                  build\VCOM_GV\usbinit.o
USBHwRegisterEPIntHandler                         build\VCOM_GV\usbhw_lpc.o
                                                  build\VCOM_GV\usbinit.o
                                                  build\VCOM_GV\usbSerial.o
USBHwRegisterFrameHandler                         build\VCOM_GV\usbhw_lpc.o
                                                  build\VCOM_GV\usbSerial.o
USBHwSetAddress                                   build\VCOM_GV\usbhw_lpc.o
                                                  build\VCOM_GV\usbstdreq.o
USBInit                                           build\VCOM_GV\usbinit.o
                                                  build\VCOM_GV\usbSerial.o
USBRegisterCustomReqHandler                       build\VCOM_GV\usbstdreq.o
USBRegisterDescriptors                            build\VCOM_GV\usbstdreq.o
                                                  build\VCOM_GV\usbSerial.o
USBRegisterRequestHandler                         build\VCOM_GV\usbcontrol.o
                                                  build\VCOM_GV\usbinit.o
                                                  build\VCOM_GV\usbSerial.o
USB_IRQHandler                                    build\UART.o
                                                  build\system\startup_LPC17xx.o
UsageFault_Handler                                build\system\startup_LPC17xx.o
VCOM_getc                                         build\VCOM_GV\usbSerial.o
VCOM_getc_echo                                    build\VCOM_GV\usbSerial.o
VCOM_getchar                                      build\VCOM_GV\usbSerial.o
VCOM_gets                                         build\VCOM_GV\usbSerial.o
VCOM_gets_echo                                    build\VCOM_GV\usbSerial.o
VCOM_init                                         build\VCOM_GV\usbSerial.o
VCOM_printf                                       build\VCOM_GV\usbSerial.o
VCOM_putHex                                       build\VCOM_GV\usbSerial.o
VCOM_putc                                         build\VCOM_GV\usbSerial.o
                                                  build\UART.o
VCOM_putchar                                      build\VCOM_GV\usbSerial.o
                                                  build\UART.o
VCOM_puts                                         build\VCOM_GV\usbSerial.o
WDT_IRQHandler                                    build\system\startup_LPC17xx.o
X_MS1                                             build\StepperInterface.o
                                                  build\Microsteps.o
                                                  build\Main.o
                                                  build\Host.o
                                                  build\EepromMap.o
                                                  build\Command.o
X_MS2                                             build\StepperInterface.o
                                                  build\Microsteps.o
                                                  build\Main.o
                                                  build\Host.o
                                                  build\EepromMap.o
                                                  build\Command.o
X_MS3                                             build\StepperInterface.o
                                                  build\Microsteps.o
                                                  build\Main.o
                                                  build\Host.o
                                                  build\EepromMap.o
                                                  build\Command.o
Y_MS1                                             build\StepperInterface.o
                                                  build\Microsteps.o
                                                  build\Main.o
                                                  build\Host.o
                                                  build\EepromMap.o
                                                  build\Command.o
Y_MS2                                             build\StepperInterface.o
                                                  build\Microsteps.o
                                                  build\Main.o
                                                  build\Host.o
                                                  build\EepromMap.o
                                                  build\Command.o
Y_MS3                                             build\StepperInterface.o
                                                  build\Microsteps.o
                                                  build\Main.o
                                                  build\Host.o
                                                  build\EepromMap.o
                                                  build\Command.o
Z_MS1                                             build\StepperInterface.o
                                                  build\Microsteps.o
                                                  build\Main.o
                                                  build\Host.o
                                                  build\EepromMap.o
                                                  build\Command.o
Z_MS2                                             build\StepperInterface.o
                                                  build\Microsteps.o
                                                  build\Main.o
                                                  build\Host.o
                                                  build\EepromMap.o
                                                  build\Command.o
Z_MS3                                             build\StepperInterface.o
                                                  build\Microsteps.o
                                                  build\Main.o
                                                  build\Host.o
                                                  build\EepromMap.o
                                                  build\Command.o
_Balloc                                           c:/progra~2/codesourcery/source~1/bin/../lib/gcc/arm-none-eabi/4.5.2/../../../../arm-none-eabi/lib/thumb2\libc.a(lib_a-mprec.o)
                                                  c:/progra~2/codesourcery/source~1/bin/../lib/gcc/arm-none-eabi/4.5.2/../../../../arm-none-eabi/lib/thumb2\libc.a(lib_a-dtoa.o)
_Bfree                                            c:/progra~2/codesourcery/source~1/bin/../lib/gcc/arm-none-eabi/4.5.2/../../../../arm-none-eabi/lib/thumb2\libc.a(lib_a-mprec.o)
                                                  c:/progra~2/codesourcery/source~1/bin/../lib/gcc/arm-none-eabi/4.5.2/../../../../arm-none-eabi/lib/thumb2\libc.a(lib_a-dtoa.o)
_Jv_RegisterClasses                               c:/progra~2/codesourcery/source~1/bin/../lib/gcc/arm-none-eabi/4.5.2/thumb2/crtbegin.o
_PathLocale                                       c:/progra~2/codesourcery/source~1/bin/../lib/gcc/arm-none-eabi/4.5.2/../../../../arm-none-eabi/lib/thumb2\libc.a(lib_a-locale.o)
_Unwind_Backtrace                                 c:/progra~2/codesourcery/source~1/bin/../lib/gcc/arm-none-eabi/4.5.2/thumb2\libgcc.a(libunwind.o)
_Unwind_Complete                                  c:/progra~2/codesourcery/source~1/bin/../lib/gcc/arm-none-eabi/4.5.2/thumb2\libgcc.a(unwind-arm.o)
                                                  c:/progra~2/codesourcery/source~1/bin/../lib/gcc/arm-none-eabi/4.5.2/../../../../arm-none-eabi/lib/thumb2\libstdc++.a(eh_catch.o)
_Unwind_DeleteException                           c:/progra~2/codesourcery/source~1/bin/../lib/gcc/arm-none-eabi/4.5.2/thumb2\libgcc.a(unwind-arm.o)
                                                  c:/progra~2/codesourcery/source~1/bin/../lib/gcc/arm-none-eabi/4.5.2/../../../../arm-none-eabi/lib/thumb2\libstdc++.a(eh_catch.o)
_Unwind_ForcedUnwind                              c:/progra~2/codesourcery/source~1/bin/../lib/gcc/arm-none-eabi/4.5.2/thumb2\libgcc.a(libunwind.o)
_Unwind_GetCFA                                    c:/progra~2/codesourcery/source~1/bin/../lib/gcc/arm-none-eabi/4.5.2/thumb2\libgcc.a(unwind-arm.o)
_Unwind_GetDataRelBase                            c:/progra~2/codesourcery/source~1/bin/../lib/gcc/arm-none-eabi/4.5.2/thumb2\libgcc.a(pr-support.o)
                                                  c:/progra~2/codesourcery/source~1/bin/../lib/gcc/arm-none-eabi/4.5.2/../../../../arm-none-eabi/lib/thumb2\libstdc++.a(eh_personality.o)
_Unwind_GetLanguageSpecificData                   c:/progra~2/codesourcery/source~1/bin/../lib/gcc/arm-none-eabi/4.5.2/thumb2\libgcc.a(pr-support.o)
                                                  c:/progra~2/codesourcery/source~1/bin/../lib/gcc/arm-none-eabi/4.5.2/../../../../arm-none-eabi/lib/thumb2\libstdc++.a(eh_personality.o)
_Unwind_GetRegionStart                            c:/progra~2/codesourcery/source~1/bin/../lib/gcc/arm-none-eabi/4.5.2/thumb2\libgcc.a(pr-support.o)
                                                  c:/progra~2/codesourcery/source~1/bin/../lib/gcc/arm-none-eabi/4.5.2/../../../../arm-none-eabi/lib/thumb2\libstdc++.a(eh_personality.o)
_Unwind_GetTextRelBase                            c:/progra~2/codesourcery/source~1/bin/../lib/gcc/arm-none-eabi/4.5.2/thumb2\libgcc.a(pr-support.o)
                                                  c:/progra~2/codesourcery/source~1/bin/../lib/gcc/arm-none-eabi/4.5.2/../../../../arm-none-eabi/lib/thumb2\libstdc++.a(eh_personality.o)
_Unwind_RaiseException                            c:/progra~2/codesourcery/source~1/bin/../lib/gcc/arm-none-eabi/4.5.2/thumb2\libgcc.a(libunwind.o)
                                                  c:/progra~2/codesourcery/source~1/bin/../lib/gcc/arm-none-eabi/4.5.2/../../../../arm-none-eabi/lib/thumb2\libstdc++.a(eh_throw.o)
_Unwind_Resume                                    c:/progra~2/codesourcery/source~1/bin/../lib/gcc/arm-none-eabi/4.5.2/thumb2\libgcc.a(libunwind.o)
                                                  c:/progra~2/codesourcery/source~1/bin/../lib/gcc/arm-none-eabi/4.5.2/../../../../arm-none-eabi/lib/thumb2\libstdc++.a(eh_arm.o)
_Unwind_Resume_or_Rethrow                         c:/progra~2/codesourcery/source~1/bin/../lib/gcc/arm-none-eabi/4.5.2/thumb2\libgcc.a(libunwind.o)
                                                  c:/progra~2/codesourcery/source~1/bin/../lib/gcc/arm-none-eabi/4.5.2/../../../../arm-none-eabi/lib/thumb2\libstdc++.a(eh_throw.o)
_Unwind_VRS_Get                                   c:/progra~2/codesourcery/source~1/bin/../lib/gcc/arm-none-eabi/4.5.2/thumb2\libgcc.a(unwind-arm.o)
                                                  c:/progra~2/codesourcery/source~1/bin/../lib/gcc/arm-none-eabi/4.5.2/thumb2\libgcc.a(pr-support.o)
                                                  c:/progra~2/codesourcery/source~1/bin/../lib/gcc/arm-none-eabi/4.5.2/../../../../arm-none-eabi/lib/thumb2\libstdc++.a(eh_personality.o)
_Unwind_VRS_Pop                                   c:/progra~2/codesourcery/source~1/bin/../lib/gcc/arm-none-eabi/4.5.2/thumb2\libgcc.a(unwind-arm.o)
                                                  c:/progra~2/codesourcery/source~1/bin/../lib/gcc/arm-none-eabi/4.5.2/thumb2\libgcc.a(pr-support.o)
_Unwind_VRS_Set                                   c:/progra~2/codesourcery/source~1/bin/../lib/gcc/arm-none-eabi/4.5.2/thumb2\libgcc.a(unwind-arm.o)
                                                  c:/progra~2/codesourcery/source~1/bin/../lib/gcc/arm-none-eabi/4.5.2/thumb2\libgcc.a(pr-support.o)
                                                  c:/progra~2/codesourcery/source~1/bin/../lib/gcc/arm-none-eabi/4.5.2/../../../../arm-none-eabi/lib/thumb2\libstdc++.a(eh_personality.o)
___Unwind_Backtrace                               c:/progra~2/codesourcery/source~1/bin/../lib/gcc/arm-none-eabi/4.5.2/thumb2\libgcc.a(libunwind.o)
___Unwind_ForcedUnwind                            c:/progra~2/codesourcery/source~1/bin/../lib/gcc/arm-none-eabi/4.5.2/thumb2\libgcc.a(libunwind.o)
___Unwind_RaiseException                          c:/progra~2/codesourcery/source~1/bin/../lib/gcc/arm-none-eabi/4.5.2/thumb2\libgcc.a(libunwind.o)
___Unwind_Resume                                  c:/progra~2/codesourcery/source~1/bin/../lib/gcc/arm-none-eabi/4.5.2/thumb2\libgcc.a(libunwind.o)
___Unwind_Resume_or_Rethrow                       c:/progra~2/codesourcery/source~1/bin/../lib/gcc/arm-none-eabi/4.5.2/thumb2\libgcc.a(libunwind.o)
__adddf3                                          c:/progra~2/codesourcery/source~1/bin/../lib/gcc/arm-none-eabi/4.5.2/thumb2\libgcc.a(_arm_addsubdf3.o)
__addsf3                                          c:/progra~2/codesourcery/source~1/bin/../lib/gcc/arm-none-eabi/4.5.2/thumb2\libgcc.a(_arm_addsubsf3.o)
__aeabi_atexit                                    build\system\mini_cpp.o
__aeabi_cdcmpeq                                   c:/progra~2/codesourcery/source~1/bin/../lib/gcc/arm-none-eabi/4.5.2/thumb2\libgcc.a(_arm_cmpdf2.o)
__aeabi_cdcmple                                   c:/progra~2/codesourcery/source~1/bin/../lib/gcc/arm-none-eabi/4.5.2/thumb2\libgcc.a(_arm_cmpdf2.o)
__aeabi_cdrcmple                                  c:/progra~2/codesourcery/source~1/bin/../lib/gcc/arm-none-eabi/4.5.2/thumb2\libgcc.a(_arm_cmpdf2.o)
__aeabi_d2iz                                      c:/progra~2/codesourcery/source~1/bin/../lib/gcc/arm-none-eabi/4.5.2/thumb2\libgcc.a(_arm_fixdfsi.o)
                                                  c:/progra~2/codesourcery/source~1/bin/../lib/gcc/arm-none-eabi/4.5.2/../../../../arm-none-eabi/lib/thumb2\libc.a(lib_a-dtoa.o)
__aeabi_dadd                                      c:/progra~2/codesourcery/source~1/bin/../lib/gcc/arm-none-eabi/4.5.2/thumb2\libgcc.a(_arm_addsubdf3.o)
                                                  c:/progra~2/codesourcery/source~1/bin/../lib/gcc/arm-none-eabi/4.5.2/../../../../arm-none-eabi/lib/thumb2\libc.a(lib_a-dtoa.o)
__aeabi_dcmpeq                                    c:/progra~2/codesourcery/source~1/bin/../lib/gcc/arm-none-eabi/4.5.2/thumb2\libgcc.a(_arm_cmpdf2.o)
                                                  c:/progra~2/codesourcery/source~1/bin/../lib/gcc/arm-none-eabi/4.5.2/../../../../arm-none-eabi/lib/thumb2\libc.a(lib_a-dtoa.o)
                                                  c:/progra~2/codesourcery/source~1/bin/../lib/gcc/arm-none-eabi/4.5.2/../../../../arm-none-eabi/lib/thumb2\libc.a(lib_a-svfprintf.o)
__aeabi_dcmpge                                    c:/progra~2/codesourcery/source~1/bin/../lib/gcc/arm-none-eabi/4.5.2/thumb2\libgcc.a(_arm_cmpdf2.o)
                                                  c:/progra~2/codesourcery/source~1/bin/../lib/gcc/arm-none-eabi/4.5.2/../../../../arm-none-eabi/lib/thumb2\libc.a(lib_a-dtoa.o)
__aeabi_dcmpgt                                    c:/progra~2/codesourcery/source~1/bin/../lib/gcc/arm-none-eabi/4.5.2/thumb2\libgcc.a(_arm_cmpdf2.o)
                                                  c:/progra~2/codesourcery/source~1/bin/../lib/gcc/arm-none-eabi/4.5.2/../../../../arm-none-eabi/lib/thumb2\libc.a(lib_a-dtoa.o)
__aeabi_dcmple                                    c:/progra~2/codesourcery/source~1/bin/../lib/gcc/arm-none-eabi/4.5.2/thumb2\libgcc.a(_arm_cmpdf2.o)
__aeabi_dcmplt                                    c:/progra~2/codesourcery/source~1/bin/../lib/gcc/arm-none-eabi/4.5.2/thumb2\libgcc.a(_arm_cmpdf2.o)
                                                  c:/progra~2/codesourcery/source~1/bin/../lib/gcc/arm-none-eabi/4.5.2/../../../../arm-none-eabi/lib/thumb2\libc.a(lib_a-dtoa.o)
                                                  c:/progra~2/codesourcery/source~1/bin/../lib/gcc/arm-none-eabi/4.5.2/../../../../arm-none-eabi/lib/thumb2\libc.a(lib_a-svfprintf.o)
__aeabi_ddiv                                      c:/progra~2/codesourcery/source~1/bin/../lib/gcc/arm-none-eabi/4.5.2/thumb2\libgcc.a(_arm_muldivdf3.o)
                                                  c:/progra~2/codesourcery/source~1/bin/../lib/gcc/arm-none-eabi/4.5.2/../../../../arm-none-eabi/lib/thumb2\libc.a(lib_a-mprec.o)
                                                  c:/progra~2/codesourcery/source~1/bin/../lib/gcc/arm-none-eabi/4.5.2/../../../../arm-none-eabi/lib/thumb2\libc.a(lib_a-dtoa.o)
__aeabi_dmul                                      c:/progra~2/codesourcery/source~1/bin/../lib/gcc/arm-none-eabi/4.5.2/thumb2\libgcc.a(_arm_muldivdf3.o)
                                                  c:/progra~2/codesourcery/source~1/bin/../lib/gcc/arm-none-eabi/4.5.2/../../../../arm-none-eabi/lib/thumb2\libc.a(lib_a-mprec.o)
                                                  c:/progra~2/codesourcery/source~1/bin/../lib/gcc/arm-none-eabi/4.5.2/../../../../arm-none-eabi/lib/thumb2\libc.a(lib_a-dtoa.o)
__aeabi_drsub                                     c:/progra~2/codesourcery/source~1/bin/../lib/gcc/arm-none-eabi/4.5.2/thumb2\libgcc.a(_arm_addsubdf3.o)
__aeabi_dsub                                      c:/progra~2/codesourcery/source~1/bin/../lib/gcc/arm-none-eabi/4.5.2/thumb2\libgcc.a(_arm_addsubdf3.o)
                                                  c:/progra~2/codesourcery/source~1/bin/../lib/gcc/arm-none-eabi/4.5.2/../../../../arm-none-eabi/lib/thumb2\libc.a(lib_a-dtoa.o)
__aeabi_f2d                                       c:/progra~2/codesourcery/source~1/bin/../lib/gcc/arm-none-eabi/4.5.2/thumb2\libgcc.a(_arm_addsubdf3.o)
__aeabi_f2iz                                      c:/progra~2/codesourcery/source~1/bin/../lib/gcc/arm-none-eabi/4.5.2/thumb2\libgcc.a(_arm_fixsfsi.o)
                                                  build\PID.o
                                                  src\shared\PID.o
__aeabi_fadd                                      c:/progra~2/codesourcery/source~1/bin/../lib/gcc/arm-none-eabi/4.5.2/thumb2\libgcc.a(_arm_addsubsf3.o)
                                                  build\PID.o
                                                  src\shared\PID.o
__aeabi_fdiv                                      c:/progra~2/codesourcery/source~1/bin/../lib/gcc/arm-none-eabi/4.5.2/thumb2\libgcc.a(_arm_muldivsf3.o)
__aeabi_fmul                                      c:/progra~2/codesourcery/source~1/bin/../lib/gcc/arm-none-eabi/4.5.2/thumb2\libgcc.a(_arm_muldivsf3.o)
                                                  build\PID.o
                                                  src\shared\PID.o
__aeabi_frsub                                     c:/progra~2/codesourcery/source~1/bin/../lib/gcc/arm-none-eabi/4.5.2/thumb2\libgcc.a(_arm_addsubsf3.o)
__aeabi_fsub                                      c:/progra~2/codesourcery/source~1/bin/../lib/gcc/arm-none-eabi/4.5.2/thumb2\libgcc.a(_arm_addsubsf3.o)
                                                  build\PID.o
                                                  src\shared\PID.o
__aeabi_i2d                                       c:/progra~2/codesourcery/source~1/bin/../lib/gcc/arm-none-eabi/4.5.2/thumb2\libgcc.a(_arm_addsubdf3.o)
                                                  c:/progra~2/codesourcery/source~1/bin/../lib/gcc/arm-none-eabi/4.5.2/../../../../arm-none-eabi/lib/thumb2\libc.a(lib_a-dtoa.o)
__aeabi_i2f                                       c:/progra~2/codesourcery/source~1/bin/../lib/gcc/arm-none-eabi/4.5.2/thumb2\libgcc.a(_arm_addsubsf3.o)
                                                  build\PID.o
                                                  src\shared\PID.o
__aeabi_idiv0                                     c:/progra~2/codesourcery/source~1/bin/../lib/gcc/arm-none-eabi/4.5.2/thumb2\libgcc.a(_dvmd_tls.o)
                                                  c:/progra~2/codesourcery/source~1/bin/../lib/gcc/arm-none-eabi/4.5.2/thumb2\libgcc.a(_udivsi3.o)
__aeabi_l2d                                       c:/progra~2/codesourcery/source~1/bin/../lib/gcc/arm-none-eabi/4.5.2/thumb2\libgcc.a(_arm_addsubdf3.o)
__aeabi_l2f                                       c:/progra~2/codesourcery/source~1/bin/../lib/gcc/arm-none-eabi/4.5.2/thumb2\libgcc.a(_arm_addsubsf3.o)
__aeabi_ldiv0                                     c:/progra~2/codesourcery/source~1/bin/../lib/gcc/arm-none-eabi/4.5.2/thumb2\libgcc.a(_dvmd_tls.o)
                                                  c:/progra~2/codesourcery/source~1/bin/../lib/gcc/arm-none-eabi/4.5.2/thumb2\libgcc.a(_aeabi_uldivmod.o)
__aeabi_ui2d                                      c:/progra~2/codesourcery/source~1/bin/../lib/gcc/arm-none-eabi/4.5.2/thumb2\libgcc.a(_arm_addsubdf3.o)
                                                  c:/progra~2/codesourcery/source~1/bin/../lib/gcc/arm-none-eabi/4.5.2/../../../../arm-none-eabi/lib/thumb2\libc.a(lib_a-dtoa.o)
__aeabi_ui2f                                      c:/progra~2/codesourcery/source~1/bin/../lib/gcc/arm-none-eabi/4.5.2/thumb2\libgcc.a(_arm_addsubsf3.o)
__aeabi_uidiv                                     c:/progra~2/codesourcery/source~1/bin/../lib/gcc/arm-none-eabi/4.5.2/thumb2\libgcc.a(_udivsi3.o)
                                                  c:/progra~2/codesourcery/source~1/bin/../lib/gcc/arm-none-eabi/4.5.2/../../../../arm-none-eabi/lib/thumb2\libc.a(lib_a-dtoa.o)
                                                  c:/progra~2/codesourcery/source~1/bin/../lib/gcc/arm-none-eabi/4.5.2/../../../../arm-none-eabi/lib/thumb2\libc.a(lib_a-fwrite.o)
                                                  c:/progra~2/codesourcery/source~1/bin/../lib/gcc/arm-none-eabi/4.5.2/thumb2\libgcc.a(_udivdi3.o)
                                                  c:/progra~2/codesourcery/source~1/bin/../lib/gcc/arm-none-eabi/4.5.2/thumb2\libgcc.a(_divdi3.o)
__aeabi_uidivmod                                  c:/progra~2/codesourcery/source~1/bin/../lib/gcc/arm-none-eabi/4.5.2/thumb2\libgcc.a(_udivsi3.o)
                                                  c:/progra~2/codesourcery/source~1/bin/../lib/gcc/arm-none-eabi/4.5.2/thumb2\libgcc.a(_udivdi3.o)
                                                  c:/progra~2/codesourcery/source~1/bin/../lib/gcc/arm-none-eabi/4.5.2/thumb2\libgcc.a(_divdi3.o)
__aeabi_ul2d                                      c:/progra~2/codesourcery/source~1/bin/../lib/gcc/arm-none-eabi/4.5.2/thumb2\libgcc.a(_arm_addsubdf3.o)
__aeabi_ul2f                                      c:/progra~2/codesourcery/source~1/bin/../lib/gcc/arm-none-eabi/4.5.2/thumb2\libgcc.a(_arm_addsubsf3.o)
__aeabi_uldivmod                                  c:/progra~2/codesourcery/source~1/bin/../lib/gcc/arm-none-eabi/4.5.2/thumb2\libgcc.a(_aeabi_uldivmod.o)
                                                  c:/progra~2/codesourcery/source~1/bin/../lib/gcc/arm-none-eabi/4.5.2/../../../../arm-none-eabi/lib/thumb2\libc.a(lib_a-svfiprintf.o)
                                                  c:/progra~2/codesourcery/source~1/bin/../lib/gcc/arm-none-eabi/4.5.2/../../../../arm-none-eabi/lib/thumb2\libc.a(lib_a-svfprintf.o)
                                                  build\lib\source\lpc17xx_uart.o
                                                  build\lib\source\lpc17xx_timer.o
__aeabi_unwind_cpp_pr0                            c:/progra~2/codesourcery/source~1/bin/../lib/gcc/arm-none-eabi/4.5.2/thumb2\libgcc.a(unwind-arm.o)
                                                  c:/progra~2/codesourcery/source~1/bin/../lib/gcc/arm-none-eabi/4.5.2/thumb2\libgcc.a(pr-support.o)
                                                  c:/progra~2/codesourcery/source~1/bin/../lib/gcc/arm-none-eabi/4.5.2/../../../../arm-none-eabi/lib/thumb2\libstdc++.a(eh_arm.o)
                                                  c:/progra~2/codesourcery/source~1/bin/../lib/gcc/arm-none-eabi/4.5.2/../../../../arm-none-eabi/lib/thumb2\libstdc++.a(eh_throw.o)
                                                  c:/progra~2/codesourcery/source~1/bin/../lib/gcc/arm-none-eabi/4.5.2/../../../../arm-none-eabi/lib/thumb2\libstdc++.a(eh_personality.o)
                                                  c:/progra~2/codesourcery/source~1/bin/../lib/gcc/arm-none-eabi/4.5.2/../../../../arm-none-eabi/lib/thumb2\libstdc++.a(class_type_info.o)
                                                  c:/progra~2/codesourcery/source~1/bin/../lib/gcc/arm-none-eabi/4.5.2/../../../../arm-none-eabi/lib/thumb2\libstdc++.a(si_class_type_info.o)
                                                  build\UART.o
                                                  build\Tool.o
                                                  build\SDCard.o
                                                  build\Motherboard.o
                                                  build\Main.o
                                                  build\Interface.o
                                                  build\EepromMap.o
                                                  build\Command.o
__aeabi_unwind_cpp_pr1                            c:/progra~2/codesourcery/source~1/bin/../lib/gcc/arm-none-eabi/4.5.2/thumb2\libgcc.a(unwind-arm.o)
                                                  c:/progra~2/codesourcery/source~1/bin/../lib/gcc/arm-none-eabi/4.5.2/thumb2\libgcc.a(pr-support.o)
                                                  c:/progra~2/codesourcery/source~1/bin/../lib/gcc/arm-none-eabi/4.5.2/../../../../arm-none-eabi/lib/thumb2\libstdc++.a(eh_terminate.o)
                                                  c:/progra~2/codesourcery/source~1/bin/../lib/gcc/arm-none-eabi/4.5.2/../../../../arm-none-eabi/lib/thumb2\libstdc++.a(pure.o)
                                                  build\UART.o
                                                  build\Tool.o
                                                  build\Timeout.o
                                                  build\Steppers.o
                                                  build\StepperInterface.o
                                                  build\SDCard.o
                                                  build\Motherboard.o
                                                  build\Microsteps.o
                                                  build\Menu.o
                                                  build\Main.o
                                                  build\LiquidCrystal.o
                                                  build\InterfaceBoard.o
                                                  build\Interface.o
                                                  build\Host.o
                                                  build\EepromMap.o
                                                  build\DebugPacketProcessor.o
                                                  build\Command.o
                                                  build\IAP_internal_flash_write\IAP.o
__aeabi_unwind_cpp_pr2                            c:/progra~2/codesourcery/source~1/bin/../lib/gcc/arm-none-eabi/4.5.2/thumb2\libgcc.a(unwind-arm.o)
__any_on                                          c:/progra~2/codesourcery/source~1/bin/../lib/gcc/arm-none-eabi/4.5.2/../../../../arm-none-eabi/lib/thumb2\libc.a(lib_a-mprec.o)
__b2d                                             c:/progra~2/codesourcery/source~1/bin/../lib/gcc/arm-none-eabi/4.5.2/../../../../arm-none-eabi/lib/thumb2\libc.a(lib_a-mprec.o)
__cmpdf2                                          c:/progra~2/codesourcery/source~1/bin/../lib/gcc/arm-none-eabi/4.5.2/thumb2\libgcc.a(_arm_cmpdf2.o)
__copybits                                        c:/progra~2/codesourcery/source~1/bin/../lib/gcc/arm-none-eabi/4.5.2/../../../../arm-none-eabi/lib/thumb2\libc.a(lib_a-mprec.o)
__cs3_heap_end                                    build\system\startup_LPC17xx.o
__cs3_heap_start                                  build\system\startup_LPC17xx.o
__cs3_interrupt_vector_cortex_m                   build\system\startup_LPC17xx.o
__cs3_reset                                       build\system\startup_LPC17xx.o
__cs3_reset_cortex_m                              build\system\startup_LPC17xx.o
__cs3_stack                                       build\system\startup_LPC17xx.o
__cs3_stack_mem                                   build\system\startup_LPC17xx.o
__cs3_stack_size                                  build\system\startup_LPC17xx.o
__cxa_allocate_dependent_exception                c:/progra~2/codesourcery/source~1/bin/../lib/gcc/arm-none-eabi/4.5.2/../../../../arm-none-eabi/lib/thumb2\libstdc++.a(eh_alloc.o)
__cxa_allocate_exception                          c:/progra~2/codesourcery/source~1/bin/../lib/gcc/arm-none-eabi/4.5.2/../../../../arm-none-eabi/lib/thumb2\libstdc++.a(eh_alloc.o)
                                                  c:/progra~2/codesourcery/source~1/bin/../lib/gcc/arm-none-eabi/4.5.2/../../../../arm-none-eabi/lib/thumb2\libstdc++.a(eh_call.o)
__cxa_begin_catch                                 c:/progra~2/codesourcery/source~1/bin/../lib/gcc/arm-none-eabi/4.5.2/../../../../arm-none-eabi/lib/thumb2\libstdc++.a(eh_catch.o)
                                                  c:/progra~2/codesourcery/source~1/bin/../lib/gcc/arm-none-eabi/4.5.2/../../../../arm-none-eabi/lib/thumb2\libstdc++.a(vterminate.o)
                                                  c:/progra~2/codesourcery/source~1/bin/../lib/gcc/arm-none-eabi/4.5.2/../../../../arm-none-eabi/lib/thumb2\libstdc++.a(eh_throw.o)
                                                  c:/progra~2/codesourcery/source~1/bin/../lib/gcc/arm-none-eabi/4.5.2/../../../../arm-none-eabi/lib/thumb2\libstdc++.a(eh_personality.o)
                                                  c:/progra~2/codesourcery/source~1/bin/../lib/gcc/arm-none-eabi/4.5.2/../../../../arm-none-eabi/lib/thumb2\libstdc++.a(eh_call.o)
                                                  c:/progra~2/codesourcery/source~1/bin/../lib/gcc/arm-none-eabi/4.5.2/../../../../arm-none-eabi/lib/thumb2\libstdc++.a(eh_terminate.o)
__cxa_begin_cleanup                               c:/progra~2/codesourcery/source~1/bin/../lib/gcc/arm-none-eabi/4.5.2/../../../../arm-none-eabi/lib/thumb2\libstdc++.a(eh_arm.o)
                                                  c:/progra~2/codesourcery/source~1/bin/../lib/gcc/arm-none-eabi/4.5.2/thumb2\libgcc.a(unwind-arm.o)
                                                  c:/progra~2/codesourcery/source~1/bin/../lib/gcc/arm-none-eabi/4.5.2/../../../../arm-none-eabi/lib/thumb2\libstdc++.a(eh_personality.o)
__cxa_call_terminate                              c:/progra~2/codesourcery/source~1/bin/../lib/gcc/arm-none-eabi/4.5.2/../../../../arm-none-eabi/lib/thumb2\libstdc++.a(eh_call.o)
                                                  c:/progra~2/codesourcery/source~1/bin/../lib/gcc/arm-none-eabi/4.5.2/../../../../arm-none-eabi/lib/thumb2\libstdc++.a(eh_personality.o)
__cxa_call_unexpected                             c:/progra~2/codesourcery/source~1/bin/../lib/gcc/arm-none-eabi/4.5.2/../../../../arm-none-eabi/lib/thumb2\libstdc++.a(eh_call.o)
                                                  c:/progra~2/codesourcery/source~1/bin/../lib/gcc/arm-none-eabi/4.5.2/thumb2\libgcc.a(unwind-arm.o)
                                                  c:/progra~2/codesourcery/source~1/bin/../lib/gcc/arm-none-eabi/4.5.2/../../../../arm-none-eabi/lib/thumb2\libstdc++.a(eh_catch.o)
                                                  c:/progra~2/codesourcery/source~1/bin/../lib/gcc/arm-none-eabi/4.5.2/../../../../arm-none-eabi/lib/thumb2\libstdc++.a(eh_terminate.o)
__cxa_current_exception_type                      c:/progra~2/codesourcery/source~1/bin/../lib/gcc/arm-none-eabi/4.5.2/../../../../arm-none-eabi/lib/thumb2\libstdc++.a(eh_type.o)
                                                  c:/progra~2/codesourcery/source~1/bin/../lib/gcc/arm-none-eabi/4.5.2/../../../../arm-none-eabi/lib/thumb2\libstdc++.a(vterminate.o)
__cxa_demangle                                    c:/progra~2/codesourcery/source~1/bin/../lib/gcc/arm-none-eabi/4.5.2/../../../../arm-none-eabi/lib/thumb2\libstdc++.a(cp-demangle.o)
                                                  c:/progra~2/codesourcery/source~1/bin/../lib/gcc/arm-none-eabi/4.5.2/../../../../arm-none-eabi/lib/thumb2\libstdc++.a(vterminate.o)
__cxa_end_catch                                   c:/progra~2/codesourcery/source~1/bin/../lib/gcc/arm-none-eabi/4.5.2/../../../../arm-none-eabi/lib/thumb2\libstdc++.a(eh_catch.o)
                                                  c:/progra~2/codesourcery/source~1/bin/../lib/gcc/arm-none-eabi/4.5.2/../../../../arm-none-eabi/lib/thumb2\libstdc++.a(vterminate.o)
                                                  c:/progra~2/codesourcery/source~1/bin/../lib/gcc/arm-none-eabi/4.5.2/../../../../arm-none-eabi/lib/thumb2\libstdc++.a(eh_call.o)
                                                  c:/progra~2/codesourcery/source~1/bin/../lib/gcc/arm-none-eabi/4.5.2/../../../../arm-none-eabi/lib/thumb2\libstdc++.a(eh_terminate.o)
__cxa_end_cleanup                                 c:/progra~2/codesourcery/source~1/bin/../lib/gcc/arm-none-eabi/4.5.2/../../../../arm-none-eabi/lib/thumb2\libstdc++.a(eh_arm.o)
                                                  c:/progra~2/codesourcery/source~1/bin/../lib/gcc/arm-none-eabi/4.5.2/../../../../arm-none-eabi/lib/thumb2\libstdc++.a(vterminate.o)
                                                  c:/progra~2/codesourcery/source~1/bin/../lib/gcc/arm-none-eabi/4.5.2/../../../../arm-none-eabi/lib/thumb2\libstdc++.a(eh_catch.o)
                                                  c:/progra~2/codesourcery/source~1/bin/../lib/gcc/arm-none-eabi/4.5.2/../../../../arm-none-eabi/lib/thumb2\libstdc++.a(eh_call.o)
                                                  c:/progra~2/codesourcery/source~1/bin/../lib/gcc/arm-none-eabi/4.5.2/../../../../arm-none-eabi/lib/thumb2\libstdc++.a(eh_terminate.o)
__cxa_free_dependent_exception                    c:/progra~2/codesourcery/source~1/bin/../lib/gcc/arm-none-eabi/4.5.2/../../../../arm-none-eabi/lib/thumb2\libstdc++.a(eh_alloc.o)
__cxa_free_exception                              c:/progra~2/codesourcery/source~1/bin/../lib/gcc/arm-none-eabi/4.5.2/../../../../arm-none-eabi/lib/thumb2\libstdc++.a(eh_alloc.o)
                                                  c:/progra~2/codesourcery/source~1/bin/../lib/gcc/arm-none-eabi/4.5.2/../../../../arm-none-eabi/lib/thumb2\libstdc++.a(eh_throw.o)
__cxa_get_exception_ptr                           c:/progra~2/codesourcery/source~1/bin/../lib/gcc/arm-none-eabi/4.5.2/../../../../arm-none-eabi/lib/thumb2\libstdc++.a(eh_catch.o)
__cxa_get_globals                                 c:/progra~2/codesourcery/source~1/bin/../lib/gcc/arm-none-eabi/4.5.2/../../../../arm-none-eabi/lib/thumb2\libstdc++.a(eh_globals.o)
                                                  c:/progra~2/codesourcery/source~1/bin/../lib/gcc/arm-none-eabi/4.5.2/../../../../arm-none-eabi/lib/thumb2\libstdc++.a(eh_alloc.o)
                                                  c:/progra~2/codesourcery/source~1/bin/../lib/gcc/arm-none-eabi/4.5.2/../../../../arm-none-eabi/lib/thumb2\libstdc++.a(eh_arm.o)
                                                  c:/progra~2/codesourcery/source~1/bin/../lib/gcc/arm-none-eabi/4.5.2/../../../../arm-none-eabi/lib/thumb2\libstdc++.a(eh_type.o)
                                                  c:/progra~2/codesourcery/source~1/bin/../lib/gcc/arm-none-eabi/4.5.2/../../../../arm-none-eabi/lib/thumb2\libstdc++.a(eh_catch.o)
                                                  c:/progra~2/codesourcery/source~1/bin/../lib/gcc/arm-none-eabi/4.5.2/../../../../arm-none-eabi/lib/thumb2\libstdc++.a(eh_throw.o)
__cxa_get_globals_fast                            c:/progra~2/codesourcery/source~1/bin/../lib/gcc/arm-none-eabi/4.5.2/../../../../arm-none-eabi/lib/thumb2\libstdc++.a(eh_globals.o)
                                                  c:/progra~2/codesourcery/source~1/bin/../lib/gcc/arm-none-eabi/4.5.2/../../../../arm-none-eabi/lib/thumb2\libstdc++.a(eh_catch.o)
                                                  c:/progra~2/codesourcery/source~1/bin/../lib/gcc/arm-none-eabi/4.5.2/../../../../arm-none-eabi/lib/thumb2\libstdc++.a(eh_call.o)
__cxa_pure_virtual                                c:/progra~2/codesourcery/source~1/bin/../lib/gcc/arm-none-eabi/4.5.2/../../../../arm-none-eabi/lib/thumb2\libstdc++.a(pure.o)
                                                  c:/progra~2/codesourcery/source~1/bin/../lib/gcc/arm-none-eabi/4.5.2/../../../../arm-none-eabi/lib/thumb2\libstdc++.a(eh_exception.o)
                                                  build\Menu.o
                                                  build\InterfaceBoard.o
__cxa_rethrow                                     c:/progra~2/codesourcery/source~1/bin/../lib/gcc/arm-none-eabi/4.5.2/../../../../arm-none-eabi/lib/thumb2\libstdc++.a(eh_throw.o)
                                                  c:/progra~2/codesourcery/source~1/bin/../lib/gcc/arm-none-eabi/4.5.2/../../../../arm-none-eabi/lib/thumb2\libstdc++.a(vterminate.o)
                                                  c:/progra~2/codesourcery/source~1/bin/../lib/gcc/arm-none-eabi/4.5.2/../../../../arm-none-eabi/lib/thumb2\libstdc++.a(eh_call.o)
__cxa_throw                                       c:/progra~2/codesourcery/source~1/bin/../lib/gcc/arm-none-eabi/4.5.2/../../../../arm-none-eabi/lib/thumb2\libstdc++.a(eh_throw.o)
                                                  c:/progra~2/codesourcery/source~1/bin/../lib/gcc/arm-none-eabi/4.5.2/../../../../arm-none-eabi/lib/thumb2\libstdc++.a(eh_call.o)
__cxa_type_match                                  c:/progra~2/codesourcery/source~1/bin/../lib/gcc/arm-none-eabi/4.5.2/../../../../arm-none-eabi/lib/thumb2\libstdc++.a(eh_arm.o)
                                                  c:/progra~2/codesourcery/source~1/bin/../lib/gcc/arm-none-eabi/4.5.2/thumb2\libgcc.a(unwind-arm.o)
                                                  c:/progra~2/codesourcery/source~1/bin/../lib/gcc/arm-none-eabi/4.5.2/../../../../arm-none-eabi/lib/thumb2\libstdc++.a(eh_personality.o)
                                                  c:/progra~2/codesourcery/source~1/bin/../lib/gcc/arm-none-eabi/4.5.2/../../../../arm-none-eabi/lib/thumb2\libstdc++.a(eh_call.o)
__cxxabiv1::__class_type_info::__do_catch(std::type_info const*, void**, unsigned int) const c:/progra~2/codesourcery/source~1/bin/../lib/gcc/arm-none-eabi/4.5.2/../../../../arm-none-eabi/lib/thumb2\libstdc++.a(class_type_info.o)
                                                  c:/progra~2/codesourcery/source~1/bin/../lib/gcc/arm-none-eabi/4.5.2/../../../../arm-none-eabi/lib/thumb2\libstdc++.a(si_class_type_info.o)
__cxxabiv1::__class_type_info::__do_dyncast(int, __cxxabiv1::__class_type_info::__sub_kind, __cxxabiv1::__class_type_info const*, void const*, __cxxabiv1::__class_type_info const*, void const*, __cxxabiv1::__class_type_info::__dyncast_result&) const c:/progra~2/codesourcery/source~1/bin/../lib/gcc/arm-none-eabi/4.5.2/../../../../arm-none-eabi/lib/thumb2\libstdc++.a(class_type_info.o)
__cxxabiv1::__class_type_info::__do_find_public_src(int, void const*, __cxxabiv1::__class_type_info const*, void const*) const c:/progra~2/codesourcery/source~1/bin/../lib/gcc/arm-none-eabi/4.5.2/../../../../arm-none-eabi/lib/thumb2\libstdc++.a(class_type_info.o)
__cxxabiv1::__class_type_info::__do_upcast(__cxxabiv1::__class_type_info const*, void const*, __cxxabiv1::__class_type_info::__upcast_result&) const c:/progra~2/codesourcery/source~1/bin/../lib/gcc/arm-none-eabi/4.5.2/../../../../arm-none-eabi/lib/thumb2\libstdc++.a(class_type_info.o)
                                                  c:/progra~2/codesourcery/source~1/bin/../lib/gcc/arm-none-eabi/4.5.2/../../../../arm-none-eabi/lib/thumb2\libstdc++.a(si_class_type_info.o)
__cxxabiv1::__class_type_info::__do_upcast(__cxxabiv1::__class_type_info const*, void**) const c:/progra~2/codesourcery/source~1/bin/../lib/gcc/arm-none-eabi/4.5.2/../../../../arm-none-eabi/lib/thumb2\libstdc++.a(class_type_info.o)
                                                  c:/progra~2/codesourcery/source~1/bin/../lib/gcc/arm-none-eabi/4.5.2/../../../../arm-none-eabi/lib/thumb2\libstdc++.a(si_class_type_info.o)
__cxxabiv1::__class_type_info::~__class_type_info() c:/progra~2/codesourcery/source~1/bin/../lib/gcc/arm-none-eabi/4.5.2/../../../../arm-none-eabi/lib/thumb2\libstdc++.a(class_type_info.o)
__cxxabiv1::__class_type_info::~__class_type_info() c:/progra~2/codesourcery/source~1/bin/../lib/gcc/arm-none-eabi/4.5.2/../../../../arm-none-eabi/lib/thumb2\libstdc++.a(class_type_info.o)
                                                  c:/progra~2/codesourcery/source~1/bin/../lib/gcc/arm-none-eabi/4.5.2/../../../../arm-none-eabi/lib/thumb2\libstdc++.a(si_class_type_info.o)
__cxxabiv1::__class_type_info::~__class_type_info() c:/progra~2/codesourcery/source~1/bin/../lib/gcc/arm-none-eabi/4.5.2/../../../../arm-none-eabi/lib/thumb2\libstdc++.a(class_type_info.o)
__cxxabiv1::__forced_unwind::~__forced_unwind()   c:/progra~2/codesourcery/source~1/bin/../lib/gcc/arm-none-eabi/4.5.2/../../../../arm-none-eabi/lib/thumb2\libstdc++.a(eh_exception.o)
__cxxabiv1::__forced_unwind::~__forced_unwind()   c:/progra~2/codesourcery/source~1/bin/../lib/gcc/arm-none-eabi/4.5.2/../../../../arm-none-eabi/lib/thumb2\libstdc++.a(eh_exception.o)
__cxxabiv1::__forced_unwind::~__forced_unwind()   c:/progra~2/codesourcery/source~1/bin/../lib/gcc/arm-none-eabi/4.5.2/../../../../arm-none-eabi/lib/thumb2\libstdc++.a(eh_exception.o)
__cxxabiv1::__foreign_exception::~__foreign_exception() c:/progra~2/codesourcery/source~1/bin/../lib/gcc/arm-none-eabi/4.5.2/../../../../arm-none-eabi/lib/thumb2\libstdc++.a(eh_exception.o)
__cxxabiv1::__foreign_exception::~__foreign_exception() c:/progra~2/codesourcery/source~1/bin/../lib/gcc/arm-none-eabi/4.5.2/../../../../arm-none-eabi/lib/thumb2\libstdc++.a(eh_exception.o)
__cxxabiv1::__foreign_exception::~__foreign_exception() c:/progra~2/codesourcery/source~1/bin/../lib/gcc/arm-none-eabi/4.5.2/../../../../arm-none-eabi/lib/thumb2\libstdc++.a(eh_exception.o)
__cxxabiv1::__si_class_type_info::__do_dyncast(int, __cxxabiv1::__class_type_info::__sub_kind, __cxxabiv1::__class_type_info const*, void const*, __cxxabiv1::__class_type_info const*, void const*, __cxxabiv1::__class_type_info::__dyncast_result&) const c:/progra~2/codesourcery/source~1/bin/../lib/gcc/arm-none-eabi/4.5.2/../../../../arm-none-eabi/lib/thumb2\libstdc++.a(si_class_type_info.o)
__cxxabiv1::__si_class_type_info::__do_find_public_src(int, void const*, __cxxabiv1::__class_type_info const*, void const*) const c:/progra~2/codesourcery/source~1/bin/../lib/gcc/arm-none-eabi/4.5.2/../../../../arm-none-eabi/lib/thumb2\libstdc++.a(si_class_type_info.o)
__cxxabiv1::__si_class_type_info::__do_upcast(__cxxabiv1::__class_type_info const*, void const*, __cxxabiv1::__class_type_info::__upcast_result&) const c:/progra~2/codesourcery/source~1/bin/../lib/gcc/arm-none-eabi/4.5.2/../../../../arm-none-eabi/lib/thumb2\libstdc++.a(si_class_type_info.o)
__cxxabiv1::__si_class_type_info::~__si_class_type_info() c:/progra~2/codesourcery/source~1/bin/../lib/gcc/arm-none-eabi/4.5.2/../../../../arm-none-eabi/lib/thumb2\libstdc++.a(si_class_type_info.o)
__cxxabiv1::__si_class_type_info::~__si_class_type_info() c:/progra~2/codesourcery/source~1/bin/../lib/gcc/arm-none-eabi/4.5.2/../../../../arm-none-eabi/lib/thumb2\libstdc++.a(si_class_type_info.o)
__cxxabiv1::__si_class_type_info::~__si_class_type_info() c:/progra~2/codesourcery/source~1/bin/../lib/gcc/arm-none-eabi/4.5.2/../../../../arm-none-eabi/lib/thumb2\libstdc++.a(si_class_type_info.o)
__cxxabiv1::__terminate(void (*)())               c:/progra~2/codesourcery/source~1/bin/../lib/gcc/arm-none-eabi/4.5.2/../../../../arm-none-eabi/lib/thumb2\libstdc++.a(eh_terminate.o)
                                                  c:/progra~2/codesourcery/source~1/bin/../lib/gcc/arm-none-eabi/4.5.2/../../../../arm-none-eabi/lib/thumb2\libstdc++.a(eh_throw.o)
                                                  c:/progra~2/codesourcery/source~1/bin/../lib/gcc/arm-none-eabi/4.5.2/../../../../arm-none-eabi/lib/thumb2\libstdc++.a(eh_call.o)
__cxxabiv1::__terminate_handler                   c:/progra~2/codesourcery/source~1/bin/../lib/gcc/arm-none-eabi/4.5.2/../../../../arm-none-eabi/lib/thumb2\libstdc++.a(eh_term_handler.o)
                                                  c:/progra~2/codesourcery/source~1/bin/../lib/gcc/arm-none-eabi/4.5.2/../../../../arm-none-eabi/lib/thumb2\libstdc++.a(eh_throw.o)
                                                  c:/progra~2/codesourcery/source~1/bin/../lib/gcc/arm-none-eabi/4.5.2/../../../../arm-none-eabi/lib/thumb2\libstdc++.a(eh_terminate.o)
__cxxabiv1::__unexpected(void (*)())              c:/progra~2/codesourcery/source~1/bin/../lib/gcc/arm-none-eabi/4.5.2/../../../../arm-none-eabi/lib/thumb2\libstdc++.a(eh_terminate.o)
                                                  c:/progra~2/codesourcery/source~1/bin/../lib/gcc/arm-none-eabi/4.5.2/../../../../arm-none-eabi/lib/thumb2\libstdc++.a(eh_call.o)
__cxxabiv1::__unexpected_handler                  c:/progra~2/codesourcery/source~1/bin/../lib/gcc/arm-none-eabi/4.5.2/../../../../arm-none-eabi/lib/thumb2\libstdc++.a(eh_unex_handler.o)
                                                  c:/progra~2/codesourcery/source~1/bin/../lib/gcc/arm-none-eabi/4.5.2/../../../../arm-none-eabi/lib/thumb2\libstdc++.a(eh_throw.o)
                                                  c:/progra~2/codesourcery/source~1/bin/../lib/gcc/arm-none-eabi/4.5.2/../../../../arm-none-eabi/lib/thumb2\libstdc++.a(eh_terminate.o)
__d2b                                             c:/progra~2/codesourcery/source~1/bin/../lib/gcc/arm-none-eabi/4.5.2/../../../../arm-none-eabi/lib/thumb2\libc.a(lib_a-mprec.o)
                                                  c:/progra~2/codesourcery/source~1/bin/../lib/gcc/arm-none-eabi/4.5.2/../../../../arm-none-eabi/lib/thumb2\libc.a(lib_a-dtoa.o)
__divdf3                                          c:/progra~2/codesourcery/source~1/bin/../lib/gcc/arm-none-eabi/4.5.2/thumb2\libgcc.a(_arm_muldivdf3.o)
__divdi3                                          c:/progra~2/codesourcery/source~1/bin/../lib/gcc/arm-none-eabi/4.5.2/thumb2\libgcc.a(_divdi3.o)
                                                  c:/progra~2/codesourcery/source~1/bin/../lib/gcc/arm-none-eabi/4.5.2/thumb2\libgcc.a(bpabi.o)
__divsf3                                          c:/progra~2/codesourcery/source~1/bin/../lib/gcc/arm-none-eabi/4.5.2/thumb2\libgcc.a(_arm_muldivsf3.o)
__dso_handle                                      c:/progra~2/codesourcery/source~1/bin/../lib/gcc/arm-none-eabi/4.5.2/thumb2/crtbegin.o
__eqdf2                                           c:/progra~2/codesourcery/source~1/bin/../lib/gcc/arm-none-eabi/4.5.2/thumb2\libgcc.a(_arm_cmpdf2.o)
__exidx_end                                       c:/progra~2/codesourcery/source~1/bin/../lib/gcc/arm-none-eabi/4.5.2/thumb2\libgcc.a(unwind-arm.o)
__exidx_start                                     c:/progra~2/codesourcery/source~1/bin/../lib/gcc/arm-none-eabi/4.5.2/thumb2\libgcc.a(unwind-arm.o)
__extendsfdf2                                     c:/progra~2/codesourcery/source~1/bin/../lib/gcc/arm-none-eabi/4.5.2/thumb2\libgcc.a(_arm_addsubdf3.o)
__fixdfsi                                         c:/progra~2/codesourcery/source~1/bin/../lib/gcc/arm-none-eabi/4.5.2/thumb2\libgcc.a(_arm_fixdfsi.o)
__fixsfsi                                         c:/progra~2/codesourcery/source~1/bin/../lib/gcc/arm-none-eabi/4.5.2/thumb2\libgcc.a(_arm_fixsfsi.o)
__floatdidf                                       c:/progra~2/codesourcery/source~1/bin/../lib/gcc/arm-none-eabi/4.5.2/thumb2\libgcc.a(_arm_addsubdf3.o)
__floatdisf                                       c:/progra~2/codesourcery/source~1/bin/../lib/gcc/arm-none-eabi/4.5.2/thumb2\libgcc.a(_arm_addsubsf3.o)
__floatsidf                                       c:/progra~2/codesourcery/source~1/bin/../lib/gcc/arm-none-eabi/4.5.2/thumb2\libgcc.a(_arm_addsubdf3.o)
__floatsisf                                       c:/progra~2/codesourcery/source~1/bin/../lib/gcc/arm-none-eabi/4.5.2/thumb2\libgcc.a(_arm_addsubsf3.o)
__floatundidf                                     c:/progra~2/codesourcery/source~1/bin/../lib/gcc/arm-none-eabi/4.5.2/thumb2\libgcc.a(_arm_addsubdf3.o)
__floatundisf                                     c:/progra~2/codesourcery/source~1/bin/../lib/gcc/arm-none-eabi/4.5.2/thumb2\libgcc.a(_arm_addsubsf3.o)
__floatunsidf                                     c:/progra~2/codesourcery/source~1/bin/../lib/gcc/arm-none-eabi/4.5.2/thumb2\libgcc.a(_arm_addsubdf3.o)
__floatunsisf                                     c:/progra~2/codesourcery/source~1/bin/../lib/gcc/arm-none-eabi/4.5.2/thumb2\libgcc.a(_arm_addsubsf3.o)
__fp_lock_all                                     c:/progra~2/codesourcery/source~1/bin/../lib/gcc/arm-none-eabi/4.5.2/../../../../arm-none-eabi/lib/thumb2\libc.a(lib_a-findfp.o)
__fp_unlock_all                                   c:/progra~2/codesourcery/source~1/bin/../lib/gcc/arm-none-eabi/4.5.2/../../../../arm-none-eabi/lib/thumb2\libc.a(lib_a-findfp.o)
__fpclassifyd                                     c:/progra~2/codesourcery/source~1/bin/../lib/gcc/arm-none-eabi/4.5.2/../../../../arm-none-eabi/lib/thumb2\libc.a(lib_a-s_fpclassify.o)
                                                  c:/progra~2/codesourcery/source~1/bin/../lib/gcc/arm-none-eabi/4.5.2/../../../../arm-none-eabi/lib/thumb2\libc.a(lib_a-svfprintf.o)
__gcclibcxx_demangle_callback                     c:/progra~2/codesourcery/source~1/bin/../lib/gcc/arm-none-eabi/4.5.2/../../../../arm-none-eabi/lib/thumb2\libstdc++.a(cp-demangle.o)
__gedf2                                           c:/progra~2/codesourcery/source~1/bin/../lib/gcc/arm-none-eabi/4.5.2/thumb2\libgcc.a(_arm_cmpdf2.o)
__gnu_Unwind_Backtrace                            c:/progra~2/codesourcery/source~1/bin/../lib/gcc/arm-none-eabi/4.5.2/thumb2\libgcc.a(unwind-arm.o)
                                                  c:/progra~2/codesourcery/source~1/bin/../lib/gcc/arm-none-eabi/4.5.2/thumb2\libgcc.a(libunwind.o)
__gnu_Unwind_Find_exidx                           c:/progra~2/codesourcery/source~1/bin/../lib/gcc/arm-none-eabi/4.5.2/thumb2\libgcc.a(unwind-arm.o)
__gnu_Unwind_ForcedUnwind                         c:/progra~2/codesourcery/source~1/bin/../lib/gcc/arm-none-eabi/4.5.2/thumb2\libgcc.a(unwind-arm.o)
                                                  c:/progra~2/codesourcery/source~1/bin/../lib/gcc/arm-none-eabi/4.5.2/thumb2\libgcc.a(libunwind.o)
__gnu_Unwind_RaiseException                       c:/progra~2/codesourcery/source~1/bin/../lib/gcc/arm-none-eabi/4.5.2/thumb2\libgcc.a(unwind-arm.o)
                                                  c:/progra~2/codesourcery/source~1/bin/../lib/gcc/arm-none-eabi/4.5.2/thumb2\libgcc.a(libunwind.o)
__gnu_Unwind_Restore_VFP                          c:/progra~2/codesourcery/source~1/bin/../lib/gcc/arm-none-eabi/4.5.2/thumb2\libgcc.a(libunwind.o)
                                                  c:/progra~2/codesourcery/source~1/bin/../lib/gcc/arm-none-eabi/4.5.2/thumb2\libgcc.a(unwind-arm.o)
__gnu_Unwind_Restore_VFP_D                        c:/progra~2/codesourcery/source~1/bin/../lib/gcc/arm-none-eabi/4.5.2/thumb2\libgcc.a(libunwind.o)
                                                  c:/progra~2/codesourcery/source~1/bin/../lib/gcc/arm-none-eabi/4.5.2/thumb2\libgcc.a(unwind-arm.o)
__gnu_Unwind_Restore_VFP_D_16_to_31               c:/progra~2/codesourcery/source~1/bin/../lib/gcc/arm-none-eabi/4.5.2/thumb2\libgcc.a(libunwind.o)
                                                  c:/progra~2/codesourcery/source~1/bin/../lib/gcc/arm-none-eabi/4.5.2/thumb2\libgcc.a(unwind-arm.o)
__gnu_Unwind_Restore_WMMXC                        c:/progra~2/codesourcery/source~1/bin/../lib/gcc/arm-none-eabi/4.5.2/thumb2\libgcc.a(libunwind.o)
                                                  c:/progra~2/codesourcery/source~1/bin/../lib/gcc/arm-none-eabi/4.5.2/thumb2\libgcc.a(unwind-arm.o)
__gnu_Unwind_Restore_WMMXD                        c:/progra~2/codesourcery/source~1/bin/../lib/gcc/arm-none-eabi/4.5.2/thumb2\libgcc.a(libunwind.o)
                                                  c:/progra~2/codesourcery/source~1/bin/../lib/gcc/arm-none-eabi/4.5.2/thumb2\libgcc.a(unwind-arm.o)
__gnu_Unwind_Resume                               c:/progra~2/codesourcery/source~1/bin/../lib/gcc/arm-none-eabi/4.5.2/thumb2\libgcc.a(unwind-arm.o)
                                                  c:/progra~2/codesourcery/source~1/bin/../lib/gcc/arm-none-eabi/4.5.2/thumb2\libgcc.a(libunwind.o)
__gnu_Unwind_Resume_or_Rethrow                    c:/progra~2/codesourcery/source~1/bin/../lib/gcc/arm-none-eabi/4.5.2/thumb2\libgcc.a(unwind-arm.o)
                                                  c:/progra~2/codesourcery/source~1/bin/../lib/gcc/arm-none-eabi/4.5.2/thumb2\libgcc.a(libunwind.o)
__gnu_Unwind_Save_VFP                             c:/progra~2/codesourcery/source~1/bin/../lib/gcc/arm-none-eabi/4.5.2/thumb2\libgcc.a(libunwind.o)
                                                  c:/progra~2/codesourcery/source~1/bin/../lib/gcc/arm-none-eabi/4.5.2/thumb2\libgcc.a(unwind-arm.o)
__gnu_Unwind_Save_VFP_D                           c:/progra~2/codesourcery/source~1/bin/../lib/gcc/arm-none-eabi/4.5.2/thumb2\libgcc.a(libunwind.o)
                                                  c:/progra~2/codesourcery/source~1/bin/../lib/gcc/arm-none-eabi/4.5.2/thumb2\libgcc.a(unwind-arm.o)
__gnu_Unwind_Save_VFP_D_16_to_31                  c:/progra~2/codesourcery/source~1/bin/../lib/gcc/arm-none-eabi/4.5.2/thumb2\libgcc.a(libunwind.o)
                                                  c:/progra~2/codesourcery/source~1/bin/../lib/gcc/arm-none-eabi/4.5.2/thumb2\libgcc.a(unwind-arm.o)
__gnu_Unwind_Save_WMMXC                           c:/progra~2/codesourcery/source~1/bin/../lib/gcc/arm-none-eabi/4.5.2/thumb2\libgcc.a(libunwind.o)
                                                  c:/progra~2/codesourcery/source~1/bin/../lib/gcc/arm-none-eabi/4.5.2/thumb2\libgcc.a(unwind-arm.o)
__gnu_Unwind_Save_WMMXD                           c:/progra~2/codesourcery/source~1/bin/../lib/gcc/arm-none-eabi/4.5.2/thumb2\libgcc.a(libunwind.o)
                                                  c:/progra~2/codesourcery/source~1/bin/../lib/gcc/arm-none-eabi/4.5.2/thumb2\libgcc.a(unwind-arm.o)
__gnu_cxx::__verbose_terminate_handler()          c:/progra~2/codesourcery/source~1/bin/../lib/gcc/arm-none-eabi/4.5.2/../../../../arm-none-eabi/lib/thumb2\libstdc++.a(vterminate.o)
                                                  c:/progra~2/codesourcery/source~1/bin/../lib/gcc/arm-none-eabi/4.5.2/../../../../arm-none-eabi/lib/thumb2\libstdc++.a(eh_term_handler.o)
__gnu_end_cleanup                                 c:/progra~2/codesourcery/source~1/bin/../lib/gcc/arm-none-eabi/4.5.2/../../../../arm-none-eabi/lib/thumb2\libstdc++.a(eh_arm.o)
__gnu_ldivmod_helper                              c:/progra~2/codesourcery/source~1/bin/../lib/gcc/arm-none-eabi/4.5.2/thumb2\libgcc.a(bpabi.o)
__gnu_uldivmod_helper                             c:/progra~2/codesourcery/source~1/bin/../lib/gcc/arm-none-eabi/4.5.2/thumb2\libgcc.a(bpabi.o)
                                                  c:/progra~2/codesourcery/source~1/bin/../lib/gcc/arm-none-eabi/4.5.2/thumb2\libgcc.a(_aeabi_uldivmod.o)
__gnu_unwind_execute                              c:/progra~2/codesourcery/source~1/bin/../lib/gcc/arm-none-eabi/4.5.2/thumb2\libgcc.a(pr-support.o)
                                                  c:/progra~2/codesourcery/source~1/bin/../lib/gcc/arm-none-eabi/4.5.2/thumb2\libgcc.a(unwind-arm.o)
__gnu_unwind_frame                                c:/progra~2/codesourcery/source~1/bin/../lib/gcc/arm-none-eabi/4.5.2/thumb2\libgcc.a(pr-support.o)
                                                  c:/progra~2/codesourcery/source~1/bin/../lib/gcc/arm-none-eabi/4.5.2/../../../../arm-none-eabi/lib/thumb2\libstdc++.a(eh_personality.o)
__gtdf2                                           c:/progra~2/codesourcery/source~1/bin/../lib/gcc/arm-none-eabi/4.5.2/thumb2\libgcc.a(_arm_cmpdf2.o)
__gxx_personality_v0                              c:/progra~2/codesourcery/source~1/bin/../lib/gcc/arm-none-eabi/4.5.2/../../../../arm-none-eabi/lib/thumb2\libstdc++.a(eh_personality.o)
                                                  c:/progra~2/codesourcery/source~1/bin/../lib/gcc/arm-none-eabi/4.5.2/../../../../arm-none-eabi/lib/thumb2\libstdc++.a(vterminate.o)
                                                  c:/progra~2/codesourcery/source~1/bin/../lib/gcc/arm-none-eabi/4.5.2/../../../../arm-none-eabi/lib/thumb2\libstdc++.a(eh_catch.o)
                                                  c:/progra~2/codesourcery/source~1/bin/../lib/gcc/arm-none-eabi/4.5.2/../../../../arm-none-eabi/lib/thumb2\libstdc++.a(eh_call.o)
                                                  c:/progra~2/codesourcery/source~1/bin/../lib/gcc/arm-none-eabi/4.5.2/../../../../arm-none-eabi/lib/thumb2\libstdc++.a(eh_terminate.o)
__hi0bits                                         c:/progra~2/codesourcery/source~1/bin/../lib/gcc/arm-none-eabi/4.5.2/../../../../arm-none-eabi/lib/thumb2\libc.a(lib_a-mprec.o)
                                                  c:/progra~2/codesourcery/source~1/bin/../lib/gcc/arm-none-eabi/4.5.2/../../../../arm-none-eabi/lib/thumb2\libc.a(lib_a-dtoa.o)
__i2b                                             c:/progra~2/codesourcery/source~1/bin/../lib/gcc/arm-none-eabi/4.5.2/../../../../arm-none-eabi/lib/thumb2\libc.a(lib_a-mprec.o)
                                                  c:/progra~2/codesourcery/source~1/bin/../lib/gcc/arm-none-eabi/4.5.2/../../../../arm-none-eabi/lib/thumb2\libc.a(lib_a-dtoa.o)
__ledf2                                           c:/progra~2/codesourcery/source~1/bin/../lib/gcc/arm-none-eabi/4.5.2/thumb2\libgcc.a(_arm_cmpdf2.o)
__lo0bits                                         c:/progra~2/codesourcery/source~1/bin/../lib/gcc/arm-none-eabi/4.5.2/../../../../arm-none-eabi/lib/thumb2\libc.a(lib_a-mprec.o)
__locale_charset                                  c:/progra~2/codesourcery/source~1/bin/../lib/gcc/arm-none-eabi/4.5.2/../../../../arm-none-eabi/lib/thumb2\libc.a(lib_a-locale.o)
__locale_cjk_lang                                 c:/progra~2/codesourcery/source~1/bin/../lib/gcc/arm-none-eabi/4.5.2/../../../../arm-none-eabi/lib/thumb2\libc.a(lib_a-locale.o)
__locale_mb_cur_max                               c:/progra~2/codesourcery/source~1/bin/../lib/gcc/arm-none-eabi/4.5.2/../../../../arm-none-eabi/lib/thumb2\libc.a(lib_a-locale.o)
__locale_msgcharset                               c:/progra~2/codesourcery/source~1/bin/../lib/gcc/arm-none-eabi/4.5.2/../../../../arm-none-eabi/lib/thumb2\libc.a(lib_a-locale.o)
__lshift                                          c:/progra~2/codesourcery/source~1/bin/../lib/gcc/arm-none-eabi/4.5.2/../../../../arm-none-eabi/lib/thumb2\libc.a(lib_a-mprec.o)
                                                  c:/progra~2/codesourcery/source~1/bin/../lib/gcc/arm-none-eabi/4.5.2/../../../../arm-none-eabi/lib/thumb2\libc.a(lib_a-dtoa.o)
__ltdf2                                           c:/progra~2/codesourcery/source~1/bin/../lib/gcc/arm-none-eabi/4.5.2/thumb2\libgcc.a(_arm_cmpdf2.o)
__malloc_av_                                      c:/progra~2/codesourcery/source~1/bin/../lib/gcc/arm-none-eabi/4.5.2/../../../../arm-none-eabi/lib/thumb2\libc.a(lib_a-mallocr.o)
                                                  c:/progra~2/codesourcery/source~1/bin/../lib/gcc/arm-none-eabi/4.5.2/../../../../arm-none-eabi/lib/thumb2\libc.a(lib_a-freer.o)
                                                  c:/progra~2/codesourcery/source~1/bin/../lib/gcc/arm-none-eabi/4.5.2/../../../../arm-none-eabi/lib/thumb2\libc.a(lib_a-reallocr.o)
__malloc_current_mallinfo                         c:/progra~2/codesourcery/source~1/bin/../lib/gcc/arm-none-eabi/4.5.2/../../../../arm-none-eabi/lib/thumb2\libc.a(lib_a-mallocr.o)
                                                  c:/progra~2/codesourcery/source~1/bin/../lib/gcc/arm-none-eabi/4.5.2/../../../../arm-none-eabi/lib/thumb2\libc.a(lib_a-freer.o)
__malloc_lock                                     c:/progra~2/codesourcery/source~1/bin/../lib/gcc/arm-none-eabi/4.5.2/../../../../arm-none-eabi/lib/thumb2\libc.a(lib_a-mlock.o)
                                                  c:/progra~2/codesourcery/source~1/bin/../lib/gcc/arm-none-eabi/4.5.2/../../../../arm-none-eabi/lib/thumb2\libc.a(lib_a-freer.o)
                                                  c:/progra~2/codesourcery/source~1/bin/../lib/gcc/arm-none-eabi/4.5.2/../../../../arm-none-eabi/lib/thumb2\libc.a(lib_a-reallocr.o)
                                                  c:/progra~2/codesourcery/source~1/bin/../lib/gcc/arm-none-eabi/4.5.2/../../../../arm-none-eabi/lib/thumb2\libc.a(lib_a-mallocr.o)
__malloc_max_sbrked_mem                           c:/progra~2/codesourcery/source~1/bin/../lib/gcc/arm-none-eabi/4.5.2/../../../../arm-none-eabi/lib/thumb2\libc.a(lib_a-mallocr.o)
__malloc_max_total_mem                            c:/progra~2/codesourcery/source~1/bin/../lib/gcc/arm-none-eabi/4.5.2/../../../../arm-none-eabi/lib/thumb2\libc.a(lib_a-mallocr.o)
__malloc_sbrk_base                                c:/progra~2/codesourcery/source~1/bin/../lib/gcc/arm-none-eabi/4.5.2/../../../../arm-none-eabi/lib/thumb2\libc.a(lib_a-mallocr.o)
                                                  c:/progra~2/codesourcery/source~1/bin/../lib/gcc/arm-none-eabi/4.5.2/../../../../arm-none-eabi/lib/thumb2\libc.a(lib_a-freer.o)
__malloc_top_pad                                  c:/progra~2/codesourcery/source~1/bin/../lib/gcc/arm-none-eabi/4.5.2/../../../../arm-none-eabi/lib/thumb2\libc.a(lib_a-mallocr.o)
                                                  c:/progra~2/codesourcery/source~1/bin/../lib/gcc/arm-none-eabi/4.5.2/../../../../arm-none-eabi/lib/thumb2\libc.a(lib_a-freer.o)
__malloc_trim_threshold                           c:/progra~2/codesourcery/source~1/bin/../lib/gcc/arm-none-eabi/4.5.2/../../../../arm-none-eabi/lib/thumb2\libc.a(lib_a-mallocr.o)
                                                  c:/progra~2/codesourcery/source~1/bin/../lib/gcc/arm-none-eabi/4.5.2/../../../../arm-none-eabi/lib/thumb2\libc.a(lib_a-freer.o)
__malloc_unlock                                   c:/progra~2/codesourcery/source~1/bin/../lib/gcc/arm-none-eabi/4.5.2/../../../../arm-none-eabi/lib/thumb2\libc.a(lib_a-mlock.o)
                                                  c:/progra~2/codesourcery/source~1/bin/../lib/gcc/arm-none-eabi/4.5.2/../../../../arm-none-eabi/lib/thumb2\libc.a(lib_a-freer.o)
                                                  c:/progra~2/codesourcery/source~1/bin/../lib/gcc/arm-none-eabi/4.5.2/../../../../arm-none-eabi/lib/thumb2\libc.a(lib_a-reallocr.o)
                                                  c:/progra~2/codesourcery/source~1/bin/../lib/gcc/arm-none-eabi/4.5.2/../../../../arm-none-eabi/lib/thumb2\libc.a(lib_a-mallocr.o)
__mb_cur_max                                      c:/progra~2/codesourcery/source~1/bin/../lib/gcc/arm-none-eabi/4.5.2/../../../../arm-none-eabi/lib/thumb2\libc.a(lib_a-locale.o)
__mcmp                                            c:/progra~2/codesourcery/source~1/bin/../lib/gcc/arm-none-eabi/4.5.2/../../../../arm-none-eabi/lib/thumb2\libc.a(lib_a-mprec.o)
                                                  c:/progra~2/codesourcery/source~1/bin/../lib/gcc/arm-none-eabi/4.5.2/../../../../arm-none-eabi/lib/thumb2\libc.a(lib_a-dtoa.o)
__mdiff                                           c:/progra~2/codesourcery/source~1/bin/../lib/gcc/arm-none-eabi/4.5.2/../../../../arm-none-eabi/lib/thumb2\libc.a(lib_a-mprec.o)
                                                  c:/progra~2/codesourcery/source~1/bin/../lib/gcc/arm-none-eabi/4.5.2/../../../../arm-none-eabi/lib/thumb2\libc.a(lib_a-dtoa.o)
__mlocale_changed                                 c:/progra~2/codesourcery/source~1/bin/../lib/gcc/arm-none-eabi/4.5.2/../../../../arm-none-eabi/lib/thumb2\libc.a(lib_a-locale.o)
__mprec_bigtens                                   c:/progra~2/codesourcery/source~1/bin/../lib/gcc/arm-none-eabi/4.5.2/../../../../arm-none-eabi/lib/thumb2\libc.a(lib_a-mprec.o)
                                                  c:/progra~2/codesourcery/source~1/bin/../lib/gcc/arm-none-eabi/4.5.2/../../../../arm-none-eabi/lib/thumb2\libc.a(lib_a-dtoa.o)
__mprec_tens                                      c:/progra~2/codesourcery/source~1/bin/../lib/gcc/arm-none-eabi/4.5.2/../../../../arm-none-eabi/lib/thumb2\libc.a(lib_a-mprec.o)
                                                  c:/progra~2/codesourcery/source~1/bin/../lib/gcc/arm-none-eabi/4.5.2/../../../../arm-none-eabi/lib/thumb2\libc.a(lib_a-dtoa.o)
__mprec_tinytens                                  c:/progra~2/codesourcery/source~1/bin/../lib/gcc/arm-none-eabi/4.5.2/../../../../arm-none-eabi/lib/thumb2\libc.a(lib_a-mprec.o)
__muldf3                                          c:/progra~2/codesourcery/source~1/bin/../lib/gcc/arm-none-eabi/4.5.2/thumb2\libgcc.a(_arm_muldivdf3.o)
__mulsf3                                          c:/progra~2/codesourcery/source~1/bin/../lib/gcc/arm-none-eabi/4.5.2/thumb2\libgcc.a(_arm_muldivsf3.o)
__multadd                                         c:/progra~2/codesourcery/source~1/bin/../lib/gcc/arm-none-eabi/4.5.2/../../../../arm-none-eabi/lib/thumb2\libc.a(lib_a-mprec.o)
                                                  c:/progra~2/codesourcery/source~1/bin/../lib/gcc/arm-none-eabi/4.5.2/../../../../arm-none-eabi/lib/thumb2\libc.a(lib_a-dtoa.o)
__multiply                                        c:/progra~2/codesourcery/source~1/bin/../lib/gcc/arm-none-eabi/4.5.2/../../../../arm-none-eabi/lib/thumb2\libc.a(lib_a-mprec.o)
                                                  c:/progra~2/codesourcery/source~1/bin/../lib/gcc/arm-none-eabi/4.5.2/../../../../arm-none-eabi/lib/thumb2\libc.a(lib_a-dtoa.o)
__nedf2                                           c:/progra~2/codesourcery/source~1/bin/../lib/gcc/arm-none-eabi/4.5.2/thumb2\libgcc.a(_arm_cmpdf2.o)
__nlocale_changed                                 c:/progra~2/codesourcery/source~1/bin/../lib/gcc/arm-none-eabi/4.5.2/../../../../arm-none-eabi/lib/thumb2\libc.a(lib_a-locale.o)
__pow5mult                                        c:/progra~2/codesourcery/source~1/bin/../lib/gcc/arm-none-eabi/4.5.2/../../../../arm-none-eabi/lib/thumb2\libc.a(lib_a-mprec.o)
                                                  c:/progra~2/codesourcery/source~1/bin/../lib/gcc/arm-none-eabi/4.5.2/../../../../arm-none-eabi/lib/thumb2\libc.a(lib_a-dtoa.o)
__ratio                                           c:/progra~2/codesourcery/source~1/bin/../lib/gcc/arm-none-eabi/4.5.2/../../../../arm-none-eabi/lib/thumb2\libc.a(lib_a-mprec.o)
__restore_core_regs                               c:/progra~2/codesourcery/source~1/bin/../lib/gcc/arm-none-eabi/4.5.2/thumb2\libgcc.a(libunwind.o)
__s2b                                             c:/progra~2/codesourcery/source~1/bin/../lib/gcc/arm-none-eabi/4.5.2/../../../../arm-none-eabi/lib/thumb2\libc.a(lib_a-mprec.o)
__sclose                                          c:/progra~2/codesourcery/source~1/bin/../lib/gcc/arm-none-eabi/4.5.2/../../../../arm-none-eabi/lib/thumb2\libc.a(lib_a-stdio.o)
                                                  c:/progra~2/codesourcery/source~1/bin/../lib/gcc/arm-none-eabi/4.5.2/../../../../arm-none-eabi/lib/thumb2\libc.a(lib_a-findfp.o)
__seofread                                        c:/progra~2/codesourcery/source~1/bin/../lib/gcc/arm-none-eabi/4.5.2/../../../../arm-none-eabi/lib/thumb2\libc.a(lib_a-stdio.o)
__sf_fake_stderr                                  c:/progra~2/codesourcery/source~1/bin/../lib/gcc/arm-none-eabi/4.5.2/../../../../arm-none-eabi/lib/thumb2\libc.a(lib_a-findfp.o)
                                                  c:/progra~2/codesourcery/source~1/bin/../lib/gcc/arm-none-eabi/4.5.2/../../../../arm-none-eabi/lib/thumb2\libc.a(lib_a-fclose.o)
                                                  c:/progra~2/codesourcery/source~1/bin/../lib/gcc/arm-none-eabi/4.5.2/../../../../arm-none-eabi/lib/thumb2\libc.a(lib_a-fflush.o)
                                                  c:/progra~2/codesourcery/source~1/bin/../lib/gcc/arm-none-eabi/4.5.2/../../../../arm-none-eabi/lib/thumb2\libc.a(lib_a-wsetup.o)
                                                  c:/progra~2/codesourcery/source~1/bin/../lib/gcc/arm-none-eabi/4.5.2/../../../../arm-none-eabi/lib/thumb2\libc.a(lib_a-wbuf.o)
                                                  c:/progra~2/codesourcery/source~1/bin/../lib/gcc/arm-none-eabi/4.5.2/../../../../arm-none-eabi/lib/thumb2\libc.a(lib_a-putc.o)
                                                  c:/progra~2/codesourcery/source~1/bin/../lib/gcc/arm-none-eabi/4.5.2/../../../../arm-none-eabi/lib/thumb2\libc.a(lib_a-impure.o)
                                                  c:/progra~2/codesourcery/source~1/bin/../lib/gcc/arm-none-eabi/4.5.2/../../../../arm-none-eabi/lib/thumb2\libc.a(lib_a-fwrite.o)
                                                  c:/progra~2/codesourcery/source~1/bin/../lib/gcc/arm-none-eabi/4.5.2/../../../../arm-none-eabi/lib/thumb2\libc.a(lib_a-fputs.o)
                                                  c:/progra~2/codesourcery/source~1/bin/../lib/gcc/arm-none-eabi/4.5.2/../../../../arm-none-eabi/lib/thumb2\libc.a(lib_a-fputc.o)
__sf_fake_stdin                                   c:/progra~2/codesourcery/source~1/bin/../lib/gcc/arm-none-eabi/4.5.2/../../../../arm-none-eabi/lib/thumb2\libc.a(lib_a-findfp.o)
                                                  c:/progra~2/codesourcery/source~1/bin/../lib/gcc/arm-none-eabi/4.5.2/../../../../arm-none-eabi/lib/thumb2\libc.a(lib_a-fclose.o)
                                                  c:/progra~2/codesourcery/source~1/bin/../lib/gcc/arm-none-eabi/4.5.2/../../../../arm-none-eabi/lib/thumb2\libc.a(lib_a-fflush.o)
                                                  c:/progra~2/codesourcery/source~1/bin/../lib/gcc/arm-none-eabi/4.5.2/../../../../arm-none-eabi/lib/thumb2\libc.a(lib_a-wsetup.o)
                                                  c:/progra~2/codesourcery/source~1/bin/../lib/gcc/arm-none-eabi/4.5.2/../../../../arm-none-eabi/lib/thumb2\libc.a(lib_a-wbuf.o)
                                                  c:/progra~2/codesourcery/source~1/bin/../lib/gcc/arm-none-eabi/4.5.2/../../../../arm-none-eabi/lib/thumb2\libc.a(lib_a-putc.o)
                                                  c:/progra~2/codesourcery/source~1/bin/../lib/gcc/arm-none-eabi/4.5.2/../../../../arm-none-eabi/lib/thumb2\libc.a(lib_a-impure.o)
                                                  c:/progra~2/codesourcery/source~1/bin/../lib/gcc/arm-none-eabi/4.5.2/../../../../arm-none-eabi/lib/thumb2\libc.a(lib_a-fwrite.o)
                                                  c:/progra~2/codesourcery/source~1/bin/../lib/gcc/arm-none-eabi/4.5.2/../../../../arm-none-eabi/lib/thumb2\libc.a(lib_a-fputs.o)
                                                  c:/progra~2/codesourcery/source~1/bin/../lib/gcc/arm-none-eabi/4.5.2/../../../../arm-none-eabi/lib/thumb2\libc.a(lib_a-fputc.o)
__sf_fake_stdout                                  c:/progra~2/codesourcery/source~1/bin/../lib/gcc/arm-none-eabi/4.5.2/../../../../arm-none-eabi/lib/thumb2\libc.a(lib_a-findfp.o)
                                                  c:/progra~2/codesourcery/source~1/bin/../lib/gcc/arm-none-eabi/4.5.2/../../../../arm-none-eabi/lib/thumb2\libc.a(lib_a-fclose.o)
                                                  c:/progra~2/codesourcery/source~1/bin/../lib/gcc/arm-none-eabi/4.5.2/../../../../arm-none-eabi/lib/thumb2\libc.a(lib_a-fflush.o)
                                                  c:/progra~2/codesourcery/source~1/bin/../lib/gcc/arm-none-eabi/4.5.2/../../../../arm-none-eabi/lib/thumb2\libc.a(lib_a-wsetup.o)
                                                  c:/progra~2/codesourcery/source~1/bin/../lib/gcc/arm-none-eabi/4.5.2/../../../../arm-none-eabi/lib/thumb2\libc.a(lib_a-wbuf.o)
                                                  c:/progra~2/codesourcery/source~1/bin/../lib/gcc/arm-none-eabi/4.5.2/../../../../arm-none-eabi/lib/thumb2\libc.a(lib_a-putc.o)
                                                  c:/progra~2/codesourcery/source~1/bin/../lib/gcc/arm-none-eabi/4.5.2/../../../../arm-none-eabi/lib/thumb2\libc.a(lib_a-impure.o)
                                                  c:/progra~2/codesourcery/source~1/bin/../lib/gcc/arm-none-eabi/4.5.2/../../../../arm-none-eabi/lib/thumb2\libc.a(lib_a-fwrite.o)
                                                  c:/progra~2/codesourcery/source~1/bin/../lib/gcc/arm-none-eabi/4.5.2/../../../../arm-none-eabi/lib/thumb2\libc.a(lib_a-fputs.o)
                                                  c:/progra~2/codesourcery/source~1/bin/../lib/gcc/arm-none-eabi/4.5.2/../../../../arm-none-eabi/lib/thumb2\libc.a(lib_a-fputc.o)
__sfmoreglue                                      c:/progra~2/codesourcery/source~1/bin/../lib/gcc/arm-none-eabi/4.5.2/../../../../arm-none-eabi/lib/thumb2\libc.a(lib_a-findfp.o)
__sfp                                             c:/progra~2/codesourcery/source~1/bin/../lib/gcc/arm-none-eabi/4.5.2/../../../../arm-none-eabi/lib/thumb2\libc.a(lib_a-findfp.o)
__sfp_lock_acquire                                c:/progra~2/codesourcery/source~1/bin/../lib/gcc/arm-none-eabi/4.5.2/../../../../arm-none-eabi/lib/thumb2\libc.a(lib_a-findfp.o)
                                                  c:/progra~2/codesourcery/source~1/bin/../lib/gcc/arm-none-eabi/4.5.2/../../../../arm-none-eabi/lib/thumb2\libc.a(lib_a-fclose.o)
                                                  c:/progra~2/codesourcery/source~1/bin/../lib/gcc/arm-none-eabi/4.5.2/../../../../arm-none-eabi/lib/thumb2\libc.a(lib_a-fwalk.o)
__sfp_lock_release                                c:/progra~2/codesourcery/source~1/bin/../lib/gcc/arm-none-eabi/4.5.2/../../../../arm-none-eabi/lib/thumb2\libc.a(lib_a-findfp.o)
                                                  c:/progra~2/codesourcery/source~1/bin/../lib/gcc/arm-none-eabi/4.5.2/../../../../arm-none-eabi/lib/thumb2\libc.a(lib_a-fclose.o)
                                                  c:/progra~2/codesourcery/source~1/bin/../lib/gcc/arm-none-eabi/4.5.2/../../../../arm-none-eabi/lib/thumb2\libc.a(lib_a-fwalk.o)
__sfvwrite_r                                      c:/progra~2/codesourcery/source~1/bin/../lib/gcc/arm-none-eabi/4.5.2/../../../../arm-none-eabi/lib/thumb2\libc.a(lib_a-fvwrite.o)
                                                  c:/progra~2/codesourcery/source~1/bin/../lib/gcc/arm-none-eabi/4.5.2/../../../../arm-none-eabi/lib/thumb2\libc.a(lib_a-fwrite.o)
                                                  c:/progra~2/codesourcery/source~1/bin/../lib/gcc/arm-none-eabi/4.5.2/../../../../arm-none-eabi/lib/thumb2\libc.a(lib_a-fputs.o)
__sigtramp                                        c:/progra~2/codesourcery/source~1/bin/../lib/gcc/arm-none-eabi/4.5.2/../../../../arm-none-eabi/lib/thumb2\libc.a(lib_a-signal.o)
__sigtramp_r                                      c:/progra~2/codesourcery/source~1/bin/../lib/gcc/arm-none-eabi/4.5.2/../../../../arm-none-eabi/lib/thumb2\libc.a(lib_a-signal.o)
__sinit                                           c:/progra~2/codesourcery/source~1/bin/../lib/gcc/arm-none-eabi/4.5.2/../../../../arm-none-eabi/lib/thumb2\libc.a(lib_a-findfp.o)
                                                  c:/progra~2/codesourcery/source~1/bin/../lib/gcc/arm-none-eabi/4.5.2/../../../../arm-none-eabi/lib/thumb2\libc.a(lib_a-fclose.o)
                                                  c:/progra~2/codesourcery/source~1/bin/../lib/gcc/arm-none-eabi/4.5.2/../../../../arm-none-eabi/lib/thumb2\libc.a(lib_a-fflush.o)
                                                  c:/progra~2/codesourcery/source~1/bin/../lib/gcc/arm-none-eabi/4.5.2/../../../../arm-none-eabi/lib/thumb2\libc.a(lib_a-wsetup.o)
                                                  c:/progra~2/codesourcery/source~1/bin/../lib/gcc/arm-none-eabi/4.5.2/../../../../arm-none-eabi/lib/thumb2\libc.a(lib_a-wbuf.o)
                                                  c:/progra~2/codesourcery/source~1/bin/../lib/gcc/arm-none-eabi/4.5.2/../../../../arm-none-eabi/lib/thumb2\libc.a(lib_a-putc.o)
                                                  c:/progra~2/codesourcery/source~1/bin/../lib/gcc/arm-none-eabi/4.5.2/../../../../arm-none-eabi/lib/thumb2\libc.a(lib_a-fwrite.o)
                                                  c:/progra~2/codesourcery/source~1/bin/../lib/gcc/arm-none-eabi/4.5.2/../../../../arm-none-eabi/lib/thumb2\libc.a(lib_a-fputs.o)
                                                  c:/progra~2/codesourcery/source~1/bin/../lib/gcc/arm-none-eabi/4.5.2/../../../../arm-none-eabi/lib/thumb2\libc.a(lib_a-fputc.o)
__sinit_lock_acquire                              c:/progra~2/codesourcery/source~1/bin/../lib/gcc/arm-none-eabi/4.5.2/../../../../arm-none-eabi/lib/thumb2\libc.a(lib_a-findfp.o)
__sinit_lock_release                              c:/progra~2/codesourcery/source~1/bin/../lib/gcc/arm-none-eabi/4.5.2/../../../../arm-none-eabi/lib/thumb2\libc.a(lib_a-findfp.o)
__smakebuf_r                                      c:/progra~2/codesourcery/source~1/bin/../lib/gcc/arm-none-eabi/4.5.2/../../../../arm-none-eabi/lib/thumb2\libc.a(lib_a-makebuf.o)
                                                  c:/progra~2/codesourcery/source~1/bin/../lib/gcc/arm-none-eabi/4.5.2/../../../../arm-none-eabi/lib/thumb2\libc.a(lib_a-wsetup.o)
__sread                                           c:/progra~2/codesourcery/source~1/bin/../lib/gcc/arm-none-eabi/4.5.2/../../../../arm-none-eabi/lib/thumb2\libc.a(lib_a-stdio.o)
                                                  c:/progra~2/codesourcery/source~1/bin/../lib/gcc/arm-none-eabi/4.5.2/../../../../arm-none-eabi/lib/thumb2\libc.a(lib_a-findfp.o)
__sseek                                           c:/progra~2/codesourcery/source~1/bin/../lib/gcc/arm-none-eabi/4.5.2/../../../../arm-none-eabi/lib/thumb2\libc.a(lib_a-stdio.o)
                                                  c:/progra~2/codesourcery/source~1/bin/../lib/gcc/arm-none-eabi/4.5.2/../../../../arm-none-eabi/lib/thumb2\libc.a(lib_a-makebuf.o)
                                                  c:/progra~2/codesourcery/source~1/bin/../lib/gcc/arm-none-eabi/4.5.2/../../../../arm-none-eabi/lib/thumb2\libc.a(lib_a-findfp.o)
__ssprint_r                                       c:/progra~2/codesourcery/source~1/bin/../lib/gcc/arm-none-eabi/4.5.2/../../../../arm-none-eabi/lib/thumb2\libc.a(lib_a-svfiprintf.o)
                                                  c:/progra~2/codesourcery/source~1/bin/../lib/gcc/arm-none-eabi/4.5.2/../../../../arm-none-eabi/lib/thumb2\libc.a(lib_a-svfprintf.o)
__subdf3                                          c:/progra~2/codesourcery/source~1/bin/../lib/gcc/arm-none-eabi/4.5.2/thumb2\libgcc.a(_arm_addsubdf3.o)
__subsf3                                          c:/progra~2/codesourcery/source~1/bin/../lib/gcc/arm-none-eabi/4.5.2/thumb2\libgcc.a(_arm_addsubsf3.o)
__swbuf                                           c:/progra~2/codesourcery/source~1/bin/../lib/gcc/arm-none-eabi/4.5.2/../../../../arm-none-eabi/lib/thumb2\libc.a(lib_a-wbuf.o)
__swbuf_r                                         c:/progra~2/codesourcery/source~1/bin/../lib/gcc/arm-none-eabi/4.5.2/../../../../arm-none-eabi/lib/thumb2\libc.a(lib_a-wbuf.o)
                                                  c:/progra~2/codesourcery/source~1/bin/../lib/gcc/arm-none-eabi/4.5.2/../../../../arm-none-eabi/lib/thumb2\libc.a(lib_a-putc.o)
__swrite                                          c:/progra~2/codesourcery/source~1/bin/../lib/gcc/arm-none-eabi/4.5.2/../../../../arm-none-eabi/lib/thumb2\libc.a(lib_a-stdio.o)
                                                  c:/progra~2/codesourcery/source~1/bin/../lib/gcc/arm-none-eabi/4.5.2/../../../../arm-none-eabi/lib/thumb2\libc.a(lib_a-findfp.o)
__swsetup_r                                       c:/progra~2/codesourcery/source~1/bin/../lib/gcc/arm-none-eabi/4.5.2/../../../../arm-none-eabi/lib/thumb2\libc.a(lib_a-wsetup.o)
                                                  c:/progra~2/codesourcery/source~1/bin/../lib/gcc/arm-none-eabi/4.5.2/../../../../arm-none-eabi/lib/thumb2\libc.a(lib_a-wbuf.o)
                                                  c:/progra~2/codesourcery/source~1/bin/../lib/gcc/arm-none-eabi/4.5.2/../../../../arm-none-eabi/lib/thumb2\libc.a(lib_a-fvwrite.o)
__udivdi3                                         c:/progra~2/codesourcery/source~1/bin/../lib/gcc/arm-none-eabi/4.5.2/thumb2\libgcc.a(_udivdi3.o)
                                                  c:/progra~2/codesourcery/source~1/bin/../lib/gcc/arm-none-eabi/4.5.2/thumb2\libgcc.a(bpabi.o)
__udivsi3                                         c:/progra~2/codesourcery/source~1/bin/../lib/gcc/arm-none-eabi/4.5.2/thumb2\libgcc.a(_udivsi3.o)
__ulp                                             c:/progra~2/codesourcery/source~1/bin/../lib/gcc/arm-none-eabi/4.5.2/../../../../arm-none-eabi/lib/thumb2\libc.a(lib_a-mprec.o)
_calloc_r                                         c:/progra~2/codesourcery/source~1/bin/../lib/gcc/arm-none-eabi/4.5.2/../../../../arm-none-eabi/lib/thumb2\libc.a(lib_a-callocr.o)
                                                  c:/progra~2/codesourcery/source~1/bin/../lib/gcc/arm-none-eabi/4.5.2/../../../../arm-none-eabi/lib/thumb2\libc.a(lib_a-mprec.o)
_cleanup                                          c:/progra~2/codesourcery/source~1/bin/../lib/gcc/arm-none-eabi/4.5.2/../../../../arm-none-eabi/lib/thumb2\libc.a(lib_a-findfp.o)
_cleanup_r                                        c:/progra~2/codesourcery/source~1/bin/../lib/gcc/arm-none-eabi/4.5.2/../../../../arm-none-eabi/lib/thumb2\libc.a(lib_a-findfp.o)
                                                  c:/progra~2/codesourcery/source~1/bin/../lib/gcc/arm-none-eabi/4.5.2/../../../../arm-none-eabi/lib/thumb2\libc.a(lib_a-makebuf.o)
_close                                            build\system\syscalls.o
                                                  c:/progra~2/codesourcery/source~1/bin/../lib/gcc/arm-none-eabi/4.5.2/../../../../arm-none-eabi/lib/thumb2\libc.a(lib_a-closer.o)
_close_r                                          c:/progra~2/codesourcery/source~1/bin/../lib/gcc/arm-none-eabi/4.5.2/../../../../arm-none-eabi/lib/thumb2\libc.a(lib_a-closer.o)
                                                  c:/progra~2/codesourcery/source~1/bin/../lib/gcc/arm-none-eabi/4.5.2/../../../../arm-none-eabi/lib/thumb2\libc.a(lib_a-stdio.o)
_crc_ibutton_update                               build\Packet.o
_crc_ibutton_update(unsigned char, unsigned char) src\shared\Packet.o
_db_char                                          build\lib\source\debug_frmwrk.o
_db_dec                                           build\lib\source\debug_frmwrk.o
_db_dec_16                                        build\lib\source\debug_frmwrk.o
_db_dec_32                                        build\lib\source\debug_frmwrk.o
_db_get_char                                      build\lib\source\debug_frmwrk.o
_db_hex                                           build\lib\source\debug_frmwrk.o
_db_hex_16                                        build\lib\source\debug_frmwrk.o
_db_hex_32                                        build\lib\source\debug_frmwrk.o
_db_msg                                           build\lib\source\debug_frmwrk.o
_db_msg_                                          build\lib\source\debug_frmwrk.o
_delay_ms                                         build\Delay.o
                                                  build\Tool.o
                                                  build\Motherboard.o
                                                  build\Main.o
                                                  build\EepromMap.o
_delay_s                                          build\Delay.o
_delay_us                                         build\Delay.o
                                                  build\UART.o
                                                  build\LiquidCrystal.o
_dtoa_r                                           c:/progra~2/codesourcery/source~1/bin/../lib/gcc/arm-none-eabi/4.5.2/../../../../arm-none-eabi/lib/thumb2\libc.a(lib_a-dtoa.o)
                                                  c:/progra~2/codesourcery/source~1/bin/../lib/gcc/arm-none-eabi/4.5.2/../../../../arm-none-eabi/lib/thumb2\libc.a(lib_a-svfprintf.o)
_end                                              build\system\syscalls.o
_exit                                             build\system\syscalls.o
                                                  c:/progra~2/codesourcery/source~1/bin/../lib/gcc/arm-none-eabi/4.5.2/../../../../arm-none-eabi/lib/thumb2\libc.a(lib_a-abort.o)
_fclose_r                                         c:/progra~2/codesourcery/source~1/bin/../lib/gcc/arm-none-eabi/4.5.2/../../../../arm-none-eabi/lib/thumb2\libc.a(lib_a-fclose.o)
_fflush_r                                         c:/progra~2/codesourcery/source~1/bin/../lib/gcc/arm-none-eabi/4.5.2/../../../../arm-none-eabi/lib/thumb2\libc.a(lib_a-fflush.o)
                                                  c:/progra~2/codesourcery/source~1/bin/../lib/gcc/arm-none-eabi/4.5.2/../../../../arm-none-eabi/lib/thumb2\libc.a(lib_a-fclose.o)
                                                  c:/progra~2/codesourcery/source~1/bin/../lib/gcc/arm-none-eabi/4.5.2/../../../../arm-none-eabi/lib/thumb2\libc.a(lib_a-wbuf.o)
                                                  c:/progra~2/codesourcery/source~1/bin/../lib/gcc/arm-none-eabi/4.5.2/../../../../arm-none-eabi/lib/thumb2\libc.a(lib_a-fvwrite.o)
_fini                                             c:/progra~2/codesourcery/source~1/bin/../lib/gcc/arm-none-eabi/4.5.2/thumb2/crti.o
_fputc_r                                          c:/progra~2/codesourcery/source~1/bin/../lib/gcc/arm-none-eabi/4.5.2/../../../../arm-none-eabi/lib/thumb2\libc.a(lib_a-fputc.o)
_fputs_r                                          c:/progra~2/codesourcery/source~1/bin/../lib/gcc/arm-none-eabi/4.5.2/../../../../arm-none-eabi/lib/thumb2\libc.a(lib_a-fputs.o)
_free_r                                           c:/progra~2/codesourcery/source~1/bin/../lib/gcc/arm-none-eabi/4.5.2/../../../../arm-none-eabi/lib/thumb2\libc.a(lib_a-freer.o)
                                                  c:/progra~2/codesourcery/source~1/bin/../lib/gcc/arm-none-eabi/4.5.2/../../../../arm-none-eabi/lib/thumb2\libc.a(lib_a-fclose.o)
                                                  c:/progra~2/codesourcery/source~1/bin/../lib/gcc/arm-none-eabi/4.5.2/../../../../arm-none-eabi/lib/thumb2\libc.a(lib_a-svfiprintf.o)
                                                  c:/progra~2/codesourcery/source~1/bin/../lib/gcc/arm-none-eabi/4.5.2/../../../../arm-none-eabi/lib/thumb2\libc.a(lib_a-fflush.o)
                                                  c:/progra~2/codesourcery/source~1/bin/../lib/gcc/arm-none-eabi/4.5.2/../../../../arm-none-eabi/lib/thumb2\libc.a(lib_a-wsetup.o)
                                                  c:/progra~2/codesourcery/source~1/bin/../lib/gcc/arm-none-eabi/4.5.2/../../../../arm-none-eabi/lib/thumb2\libc.a(lib_a-reent.o)
                                                  c:/progra~2/codesourcery/source~1/bin/../lib/gcc/arm-none-eabi/4.5.2/../../../../arm-none-eabi/lib/thumb2\libc.a(lib_a-reallocr.o)
                                                  c:/progra~2/codesourcery/source~1/bin/../lib/gcc/arm-none-eabi/4.5.2/../../../../arm-none-eabi/lib/thumb2\libc.a(lib_a-mallocr.o)
                                                  c:/progra~2/codesourcery/source~1/bin/../lib/gcc/arm-none-eabi/4.5.2/../../../../arm-none-eabi/lib/thumb2\libc.a(lib_a-malloc.o)
                                                  c:/progra~2/codesourcery/source~1/bin/../lib/gcc/arm-none-eabi/4.5.2/../../../../arm-none-eabi/lib/thumb2\libc.a(lib_a-fvwrite.o)
_fstat                                            build\system\syscalls.o
                                                  c:/progra~2/codesourcery/source~1/bin/../lib/gcc/arm-none-eabi/4.5.2/../../../../arm-none-eabi/lib/thumb2\libc.a(lib_a-fstatr.o)
_fstat_r                                          c:/progra~2/codesourcery/source~1/bin/../lib/gcc/arm-none-eabi/4.5.2/../../../../arm-none-eabi/lib/thumb2\libc.a(lib_a-fstatr.o)
                                                  c:/progra~2/codesourcery/source~1/bin/../lib/gcc/arm-none-eabi/4.5.2/../../../../arm-none-eabi/lib/thumb2\libc.a(lib_a-makebuf.o)
_fwalk                                            c:/progra~2/codesourcery/source~1/bin/../lib/gcc/arm-none-eabi/4.5.2/../../../../arm-none-eabi/lib/thumb2\libc.a(lib_a-fwalk.o)
                                                  c:/progra~2/codesourcery/source~1/bin/../lib/gcc/arm-none-eabi/4.5.2/../../../../arm-none-eabi/lib/thumb2\libc.a(lib_a-findfp.o)
_fwalk_reent                                      c:/progra~2/codesourcery/source~1/bin/../lib/gcc/arm-none-eabi/4.5.2/../../../../arm-none-eabi/lib/thumb2\libc.a(lib_a-fwalk.o)
                                                  c:/progra~2/codesourcery/source~1/bin/../lib/gcc/arm-none-eabi/4.5.2/../../../../arm-none-eabi/lib/thumb2\libc.a(lib_a-fflush.o)
_fwrite_r                                         c:/progra~2/codesourcery/source~1/bin/../lib/gcc/arm-none-eabi/4.5.2/../../../../arm-none-eabi/lib/thumb2\libc.a(lib_a-fwrite.o)
_getpid                                           build\system\syscalls.o
                                                  c:/progra~2/codesourcery/source~1/bin/../lib/gcc/arm-none-eabi/4.5.2/../../../../arm-none-eabi/lib/thumb2\libc.a(lib_a-signalr.o)
_getpid_r                                         c:/progra~2/codesourcery/source~1/bin/../lib/gcc/arm-none-eabi/4.5.2/../../../../arm-none-eabi/lib/thumb2\libc.a(lib_a-signalr.o)
                                                  c:/progra~2/codesourcery/source~1/bin/../lib/gcc/arm-none-eabi/4.5.2/../../../../arm-none-eabi/lib/thumb2\libc.a(lib_a-signal.o)
_global_impure_ptr                                c:/progra~2/codesourcery/source~1/bin/../lib/gcc/arm-none-eabi/4.5.2/../../../../arm-none-eabi/lib/thumb2\libc.a(lib_a-impure.o)
                                                  c:/progra~2/codesourcery/source~1/bin/../lib/gcc/arm-none-eabi/4.5.2/../../../../arm-none-eabi/lib/thumb2\libc.a(lib_a-findfp.o)
                                                  c:/progra~2/codesourcery/source~1/bin/../lib/gcc/arm-none-eabi/4.5.2/../../../../arm-none-eabi/lib/thumb2\libc.a(lib_a-fflush.o)
_impure_ptr                                       c:/progra~2/codesourcery/source~1/bin/../lib/gcc/arm-none-eabi/4.5.2/../../../../arm-none-eabi/lib/thumb2\libc.a(lib_a-impure.o)
                                                  c:/progra~2/codesourcery/source~1/bin/../lib/gcc/arm-none-eabi/4.5.2/../../../../arm-none-eabi/lib/thumb2\libc.a(lib_a-fclose.o)
                                                  c:/progra~2/codesourcery/source~1/bin/../lib/gcc/arm-none-eabi/4.5.2/../../../../arm-none-eabi/lib/thumb2\libc.a(lib_a-locale.o)
                                                  c:/progra~2/codesourcery/source~1/bin/../lib/gcc/arm-none-eabi/4.5.2/../../../../arm-none-eabi/lib/thumb2\libc.a(lib_a-findfp.o)
                                                  c:/progra~2/codesourcery/source~1/bin/../lib/gcc/arm-none-eabi/4.5.2/../../../../arm-none-eabi/lib/thumb2\libc.a(lib_a-fflush.o)
                                                  c:/progra~2/codesourcery/source~1/bin/../lib/gcc/arm-none-eabi/4.5.2/../../../../arm-none-eabi/lib/thumb2\libc.a(lib_a-wsetup.o)
                                                  c:/progra~2/codesourcery/source~1/bin/../lib/gcc/arm-none-eabi/4.5.2/../../../../arm-none-eabi/lib/thumb2\libc.a(lib_a-wbuf.o)
                                                  c:/progra~2/codesourcery/source~1/bin/../lib/gcc/arm-none-eabi/4.5.2/../../../../arm-none-eabi/lib/thumb2\libc.a(lib_a-syswrite.o)
                                                  c:/progra~2/codesourcery/source~1/bin/../lib/gcc/arm-none-eabi/4.5.2/../../../../arm-none-eabi/lib/thumb2\libc.a(lib_a-sprintf.o)
                                                  c:/progra~2/codesourcery/source~1/bin/../lib/gcc/arm-none-eabi/4.5.2/../../../../arm-none-eabi/lib/thumb2\libc.a(lib_a-signal.o)
                                                  c:/progra~2/codesourcery/source~1/bin/../lib/gcc/arm-none-eabi/4.5.2/../../../../arm-none-eabi/lib/thumb2\libc.a(lib_a-reent.o)
                                                  c:/progra~2/codesourcery/source~1/bin/../lib/gcc/arm-none-eabi/4.5.2/../../../../arm-none-eabi/lib/thumb2\libc.a(lib_a-realloc.o)
                                                  c:/progra~2/codesourcery/source~1/bin/../lib/gcc/arm-none-eabi/4.5.2/../../../../arm-none-eabi/lib/thumb2\libc.a(lib_a-rand.o)
                                                  c:/progra~2/codesourcery/source~1/bin/../lib/gcc/arm-none-eabi/4.5.2/../../../../arm-none-eabi/lib/thumb2\libc.a(lib_a-putc.o)
                                                  c:/progra~2/codesourcery/source~1/bin/../lib/gcc/arm-none-eabi/4.5.2/../../../../arm-none-eabi/lib/thumb2\libc.a(lib_a-malloc.o)
                                                  c:/progra~2/codesourcery/source~1/bin/../lib/gcc/arm-none-eabi/4.5.2/../../../../arm-none-eabi/lib/thumb2\libc.a(lib_a-fwrite.o)
                                                  c:/progra~2/codesourcery/source~1/bin/../lib/gcc/arm-none-eabi/4.5.2/../../../../arm-none-eabi/lib/thumb2\libc.a(lib_a-fputs.o)
                                                  c:/progra~2/codesourcery/source~1/bin/../lib/gcc/arm-none-eabi/4.5.2/../../../../arm-none-eabi/lib/thumb2\libc.a(lib_a-fputc.o)
                                                  c:/progra~2/codesourcery/source~1/bin/../lib/gcc/arm-none-eabi/4.5.2/../../../../arm-none-eabi/lib/thumb2\libstdc++.a(vterminate.o)
_init                                             c:/progra~2/codesourcery/source~1/bin/../lib/gcc/arm-none-eabi/4.5.2/thumb2/crti.o
_init_signal                                      c:/progra~2/codesourcery/source~1/bin/../lib/gcc/arm-none-eabi/4.5.2/../../../../arm-none-eabi/lib/thumb2\libc.a(lib_a-signal.o)
_init_signal_r                                    c:/progra~2/codesourcery/source~1/bin/../lib/gcc/arm-none-eabi/4.5.2/../../../../arm-none-eabi/lib/thumb2\libc.a(lib_a-signal.o)
_isatty                                           build\system\syscalls.o
                                                  c:/progra~2/codesourcery/source~1/bin/../lib/gcc/arm-none-eabi/4.5.2/../../../../arm-none-eabi/lib/thumb2\libc.a(lib_a-isattyr.o)
_isatty_r                                         c:/progra~2/codesourcery/source~1/bin/../lib/gcc/arm-none-eabi/4.5.2/../../../../arm-none-eabi/lib/thumb2\libc.a(lib_a-isattyr.o)
                                                  c:/progra~2/codesourcery/source~1/bin/../lib/gcc/arm-none-eabi/4.5.2/../../../../arm-none-eabi/lib/thumb2\libc.a(lib_a-makebuf.o)
_kill                                             build\system\syscalls.o
                                                  c:/progra~2/codesourcery/source~1/bin/../lib/gcc/arm-none-eabi/4.5.2/../../../../arm-none-eabi/lib/thumb2\libc.a(lib_a-signalr.o)
_kill_r                                           c:/progra~2/codesourcery/source~1/bin/../lib/gcc/arm-none-eabi/4.5.2/../../../../arm-none-eabi/lib/thumb2\libc.a(lib_a-signalr.o)
                                                  c:/progra~2/codesourcery/source~1/bin/../lib/gcc/arm-none-eabi/4.5.2/../../../../arm-none-eabi/lib/thumb2\libc.a(lib_a-signal.o)
_localeconv_r                                     c:/progra~2/codesourcery/source~1/bin/../lib/gcc/arm-none-eabi/4.5.2/../../../../arm-none-eabi/lib/thumb2\libc.a(lib_a-locale.o)
                                                  c:/progra~2/codesourcery/source~1/bin/../lib/gcc/arm-none-eabi/4.5.2/../../../../arm-none-eabi/lib/thumb2\libc.a(lib_a-svfprintf.o)
_lseek                                            build\system\syscalls.o
                                                  c:/progra~2/codesourcery/source~1/bin/../lib/gcc/arm-none-eabi/4.5.2/../../../../arm-none-eabi/lib/thumb2\libc.a(lib_a-lseekr.o)
_lseek_r                                          c:/progra~2/codesourcery/source~1/bin/../lib/gcc/arm-none-eabi/4.5.2/../../../../arm-none-eabi/lib/thumb2\libc.a(lib_a-lseekr.o)
                                                  c:/progra~2/codesourcery/source~1/bin/../lib/gcc/arm-none-eabi/4.5.2/../../../../arm-none-eabi/lib/thumb2\libc.a(lib_a-stdio.o)
_malloc_r                                         c:/progra~2/codesourcery/source~1/bin/../lib/gcc/arm-none-eabi/4.5.2/../../../../arm-none-eabi/lib/thumb2\libc.a(lib_a-mallocr.o)
                                                  c:/progra~2/codesourcery/source~1/bin/../lib/gcc/arm-none-eabi/4.5.2/../../../../arm-none-eabi/lib/thumb2\libc.a(lib_a-callocr.o)
                                                  c:/progra~2/codesourcery/source~1/bin/../lib/gcc/arm-none-eabi/4.5.2/../../../../arm-none-eabi/lib/thumb2\libc.a(lib_a-svfiprintf.o)
                                                  c:/progra~2/codesourcery/source~1/bin/../lib/gcc/arm-none-eabi/4.5.2/../../../../arm-none-eabi/lib/thumb2\libc.a(lib_a-makebuf.o)
                                                  c:/progra~2/codesourcery/source~1/bin/../lib/gcc/arm-none-eabi/4.5.2/../../../../arm-none-eabi/lib/thumb2\libc.a(lib_a-findfp.o)
                                                  c:/progra~2/codesourcery/source~1/bin/../lib/gcc/arm-none-eabi/4.5.2/../../../../arm-none-eabi/lib/thumb2\libc.a(lib_a-svfprintf.o)
                                                  c:/progra~2/codesourcery/source~1/bin/../lib/gcc/arm-none-eabi/4.5.2/../../../../arm-none-eabi/lib/thumb2\libc.a(lib_a-signal.o)
                                                  c:/progra~2/codesourcery/source~1/bin/../lib/gcc/arm-none-eabi/4.5.2/../../../../arm-none-eabi/lib/thumb2\libc.a(lib_a-reallocr.o)
                                                  c:/progra~2/codesourcery/source~1/bin/../lib/gcc/arm-none-eabi/4.5.2/../../../../arm-none-eabi/lib/thumb2\libc.a(lib_a-malloc.o)
                                                  c:/progra~2/codesourcery/source~1/bin/../lib/gcc/arm-none-eabi/4.5.2/../../../../arm-none-eabi/lib/thumb2\libc.a(lib_a-fvwrite.o)
_malloc_trim_r                                    c:/progra~2/codesourcery/source~1/bin/../lib/gcc/arm-none-eabi/4.5.2/../../../../arm-none-eabi/lib/thumb2\libc.a(lib_a-freer.o)
_mprec_log10                                      c:/progra~2/codesourcery/source~1/bin/../lib/gcc/arm-none-eabi/4.5.2/../../../../arm-none-eabi/lib/thumb2\libc.a(lib_a-mprec.o)
_putc_r                                           c:/progra~2/codesourcery/source~1/bin/../lib/gcc/arm-none-eabi/4.5.2/../../../../arm-none-eabi/lib/thumb2\libc.a(lib_a-putc.o)
                                                  c:/progra~2/codesourcery/source~1/bin/../lib/gcc/arm-none-eabi/4.5.2/../../../../arm-none-eabi/lib/thumb2\libc.a(lib_a-fputc.o)
_raise_r                                          c:/progra~2/codesourcery/source~1/bin/../lib/gcc/arm-none-eabi/4.5.2/../../../../arm-none-eabi/lib/thumb2\libc.a(lib_a-signal.o)
_read                                             build\system\syscalls.o
                                                  c:/progra~2/codesourcery/source~1/bin/../lib/gcc/arm-none-eabi/4.5.2/../../../../arm-none-eabi/lib/thumb2\libc.a(lib_a-readr.o)
_read_r                                           c:/progra~2/codesourcery/source~1/bin/../lib/gcc/arm-none-eabi/4.5.2/../../../../arm-none-eabi/lib/thumb2\libc.a(lib_a-readr.o)
                                                  c:/progra~2/codesourcery/source~1/bin/../lib/gcc/arm-none-eabi/4.5.2/../../../../arm-none-eabi/lib/thumb2\libc.a(lib_a-stdio.o)
_realloc_r                                        c:/progra~2/codesourcery/source~1/bin/../lib/gcc/arm-none-eabi/4.5.2/../../../../arm-none-eabi/lib/thumb2\libc.a(lib_a-reallocr.o)
                                                  c:/progra~2/codesourcery/source~1/bin/../lib/gcc/arm-none-eabi/4.5.2/../../../../arm-none-eabi/lib/thumb2\libc.a(lib_a-svfiprintf.o)
                                                  c:/progra~2/codesourcery/source~1/bin/../lib/gcc/arm-none-eabi/4.5.2/../../../../arm-none-eabi/lib/thumb2\libc.a(lib_a-realloc.o)
                                                  c:/progra~2/codesourcery/source~1/bin/../lib/gcc/arm-none-eabi/4.5.2/../../../../arm-none-eabi/lib/thumb2\libc.a(lib_a-fvwrite.o)
_reclaim_reent                                    c:/progra~2/codesourcery/source~1/bin/../lib/gcc/arm-none-eabi/4.5.2/../../../../arm-none-eabi/lib/thumb2\libc.a(lib_a-reent.o)
_sbrk                                             build\system\syscalls.o
                                                  c:/progra~2/codesourcery/source~1/bin/../lib/gcc/arm-none-eabi/4.5.2/../../../../arm-none-eabi/lib/thumb2\libc.a(lib_a-sbrkr.o)
_sbrk_r                                           c:/progra~2/codesourcery/source~1/bin/../lib/gcc/arm-none-eabi/4.5.2/../../../../arm-none-eabi/lib/thumb2\libc.a(lib_a-sbrkr.o)
                                                  c:/progra~2/codesourcery/source~1/bin/../lib/gcc/arm-none-eabi/4.5.2/../../../../arm-none-eabi/lib/thumb2\libc.a(lib_a-freer.o)
                                                  c:/progra~2/codesourcery/source~1/bin/../lib/gcc/arm-none-eabi/4.5.2/../../../../arm-none-eabi/lib/thumb2\libc.a(lib_a-mallocr.o)
_setlocale_r                                      c:/progra~2/codesourcery/source~1/bin/../lib/gcc/arm-none-eabi/4.5.2/../../../../arm-none-eabi/lib/thumb2\libc.a(lib_a-locale.o)
_signal_r                                         c:/progra~2/codesourcery/source~1/bin/../lib/gcc/arm-none-eabi/4.5.2/../../../../arm-none-eabi/lib/thumb2\libc.a(lib_a-signal.o)
_sprintf_r                                        c:/progra~2/codesourcery/source~1/bin/../lib/gcc/arm-none-eabi/4.5.2/../../../../arm-none-eabi/lib/thumb2\libc.a(lib_a-sprintf.o)
_svfiprintf_r                                     c:/progra~2/codesourcery/source~1/bin/../lib/gcc/arm-none-eabi/4.5.2/../../../../arm-none-eabi/lib/thumb2\libc.a(lib_a-svfiprintf.o)
_svfprintf_r                                      c:/progra~2/codesourcery/source~1/bin/../lib/gcc/arm-none-eabi/4.5.2/../../../../arm-none-eabi/lib/thumb2\libc.a(lib_a-svfprintf.o)
                                                  c:/progra~2/codesourcery/source~1/bin/../lib/gcc/arm-none-eabi/4.5.2/../../../../arm-none-eabi/lib/thumb2\libc.a(lib_a-sprintf.o)
_wrapup_reent                                     c:/progra~2/codesourcery/source~1/bin/../lib/gcc/arm-none-eabi/4.5.2/../../../../arm-none-eabi/lib/thumb2\libc.a(lib_a-reent.o)
_write                                            build\system\syscalls.o
                                                  c:/progra~2/codesourcery/source~1/bin/../lib/gcc/arm-none-eabi/4.5.2/../../../../arm-none-eabi/lib/thumb2\libc.a(lib_a-writer.o)
_write_r                                          c:/progra~2/codesourcery/source~1/bin/../lib/gcc/arm-none-eabi/4.5.2/../../../../arm-none-eabi/lib/thumb2\libc.a(lib_a-writer.o)
                                                  c:/progra~2/codesourcery/source~1/bin/../lib/gcc/arm-none-eabi/4.5.2/../../../../arm-none-eabi/lib/thumb2\libc.a(lib_a-stdio.o)
                                                  c:/progra~2/codesourcery/source~1/bin/../lib/gcc/arm-none-eabi/4.5.2/../../../../arm-none-eabi/lib/thumb2\libc.a(lib_a-syswrite.o)
abort                                             c:/progra~2/codesourcery/source~1/bin/../lib/gcc/arm-none-eabi/4.5.2/../../../../arm-none-eabi/lib/thumb2\libc.a(lib_a-abort.o)
                                                  c:/progra~2/codesourcery/source~1/bin/../lib/gcc/arm-none-eabi/4.5.2/thumb2\libgcc.a(pr-support.o)
                                                  c:/progra~2/codesourcery/source~1/bin/../lib/gcc/arm-none-eabi/4.5.2/thumb2\libgcc.a(unwind-arm.o)
                                                  c:/progra~2/codesourcery/source~1/bin/../lib/gcc/arm-none-eabi/4.5.2/../../../../arm-none-eabi/lib/thumb2\libstdc++.a(vterminate.o)
                                                  c:/progra~2/codesourcery/source~1/bin/../lib/gcc/arm-none-eabi/4.5.2/../../../../arm-none-eabi/lib/thumb2\libstdc++.a(eh_personality.o)
                                                  c:/progra~2/codesourcery/source~1/bin/../lib/gcc/arm-none-eabi/4.5.2/../../../../arm-none-eabi/lib/thumb2\libstdc++.a(eh_terminate.o)
                                                  build\system\syscalls.o
blink_count                                       build\Motherboard.o
blink_ovfs_remaining                              build\Motherboard.o
blink_state                                       build\Motherboard.o
blinked_so_far                                    build\Motherboard.o
byte_in                                           build\UART.o
check_failed                                      build\lib\source\lpc17xx_libcfg_default.o
                                                  build\lib\source\lpc17xx_uart.o
                                                  build\lib\source\lpc17xx_timer.o
                                                  build\lib\source\lpc17xx_spi.o
                                                  build\lib\source\lpc17xx_i2c.o
                                                  build\lib\source\lpc17xx_adc.o
cleanup_glue                                      c:/progra~2/codesourcery/source~1/bin/../lib/gcc/arm-none-eabi/4.5.2/../../../../arm-none-eabi/lib/thumb2\libc.a(lib_a-reent.o)
command::buffer_data                              build\Command.o
command::command_buffer                           build\Command.o
command::delay_timeout                            build\Command.o
command::getRemainingCapacity()                   build\Command.o
                                                  build\Host.o
command::homing_timeout                           build\Command.o
command::isEmpty()                                build\Command.o
                                                  build\Host.o
command::isPaused()                               build\Command.o
                                                  build\Motherboard.o
                                                  build\Host.o
command::mode                                     build\Command.o
command::mode_temp                                build\Command.o
command::outstanding_tool_command                 build\Command.o
command::pause(bool)                              build\Command.o
                                                  build\Host.o
command::paused                                   build\Command.o
command::pop16()                                  build\Command.o
command::pop32()                                  build\Command.o
command::pop8()                                   build\Command.o
command::push(unsigned char)                      build\Command.o
                                                  build\Host.o
command::reset()                                  build\Command.o
                                                  build\Main.o
                                                  build\Host.o
                                                  build\DebugPacketProcessor.o
command::runCommandSlice()                        build\Command.o
                                                  build\Main.o
command::tool_wait_timeout                        build\Command.o
debugSlaveOut                                     build\DebugPacketProcessor.o
debug_frmwrk_init                                 build\lib\source\debug_frmwrk.o
eeprom::getEeprom16(unsigned long, unsigned short) build\EepromMap.o
eeprom::getEeprom8(unsigned long, unsigned char)  build\EepromMap.o
                                                  build\StepperInterface.o
                                                  build\Host.o
eeprom::init()                                    build\EepromMap.o
                                                  build\Main.o
enable_USB_interrupts                             build\VCOM_GV\intenable.o
errno                                             c:/progra~2/codesourcery/source~1/bin/../lib/gcc/arm-none-eabi/4.5.2/../../../../arm-none-eabi/lib/thumb2\libc.a(lib_a-readr.o)
                                                  c:/progra~2/codesourcery/source~1/bin/../lib/gcc/arm-none-eabi/4.5.2/../../../../arm-none-eabi/lib/thumb2\libc.a(lib_a-lseekr.o)
                                                  c:/progra~2/codesourcery/source~1/bin/../lib/gcc/arm-none-eabi/4.5.2/../../../../arm-none-eabi/lib/thumb2\libc.a(lib_a-isattyr.o)
                                                  c:/progra~2/codesourcery/source~1/bin/../lib/gcc/arm-none-eabi/4.5.2/../../../../arm-none-eabi/lib/thumb2\libc.a(lib_a-fstatr.o)
                                                  c:/progra~2/codesourcery/source~1/bin/../lib/gcc/arm-none-eabi/4.5.2/../../../../arm-none-eabi/lib/thumb2\libc.a(lib_a-closer.o)
                                                  c:/progra~2/codesourcery/source~1/bin/../lib/gcc/arm-none-eabi/4.5.2/../../../../arm-none-eabi/lib/thumb2\libc.a(lib_a-writer.o)
                                                  c:/progra~2/codesourcery/source~1/bin/../lib/gcc/arm-none-eabi/4.5.2/../../../../arm-none-eabi/lib/thumb2\libc.a(lib_a-signalr.o)
                                                  c:/progra~2/codesourcery/source~1/bin/../lib/gcc/arm-none-eabi/4.5.2/../../../../arm-none-eabi/lib/thumb2\libc.a(lib_a-sbrkr.o)
                                                  c:/progra~2/codesourcery/source~1/bin/../lib/gcc/arm-none-eabi/4.5.2/../../../../arm-none-eabi/lib/thumb2\libc.a(lib_a-reent.o)
                                                  build\system\syscalls.o
fat_close                                         build\lib_sd\fat.o
fat_close_dir                                     build\lib_sd\fat.o
fat_close_file                                    build\lib_sd\fat.o
                                                  build\SDCard.o
fat_create_dir                                    build\lib_sd\fat.o
fat_create_file                                   build\lib_sd\fat.o
                                                  build\SDCard.o
fat_delete_file                                   build\lib_sd\fat.o
                                                  build\SDCard.o
fat_get_dir_entry_of_path                         build\lib_sd\fat.o
                                                  build\SDCard.o
fat_get_fs_free                                   build\lib_sd\fat.o
fat_get_fs_size                                   build\lib_sd\fat.o
fat_open                                          build\lib_sd\fat.o
                                                  build\SDCard.o
fat_open_dir                                      build\lib_sd\fat.o
                                                  build\SDCard.o
fat_open_file                                     build\lib_sd\fat.o
                                                  build\SDCard.o
fat_read_dir                                      build\lib_sd\fat.o
                                                  build\SDCard.o
fat_read_file                                     build\lib_sd\fat.o
                                                  build\SDCard.o
fat_reset_dir                                     build\lib_sd\fat.o
                                                  build\SDCard.o
fat_resize_file                                   build\lib_sd\fat.o
fat_seek_file                                     build\lib_sd\fat.o
                                                  build\SDCard.o
fat_write_file                                    build\lib_sd\fat.o
                                                  build\SDCard.o
fclose                                            c:/progra~2/codesourcery/source~1/bin/../lib/gcc/arm-none-eabi/4.5.2/../../../../arm-none-eabi/lib/thumb2\libc.a(lib_a-fclose.o)
                                                  c:/progra~2/codesourcery/source~1/bin/../lib/gcc/arm-none-eabi/4.5.2/../../../../arm-none-eabi/lib/thumb2\libc.a(lib_a-findfp.o)
few_ticks                                         build\Delay.o
fflush                                            c:/progra~2/codesourcery/source~1/bin/../lib/gcc/arm-none-eabi/4.5.2/../../../../arm-none-eabi/lib/thumb2\libc.a(lib_a-fflush.o)
fifo_avail                                        build\VCOM_GV\serial_fifo.o
                                                  build\VCOM_GV\usbSerial.o
fifo_free                                         build\VCOM_GV\serial_fifo.o
                                                  build\VCOM_GV\usbSerial.o
fifo_get                                          build\VCOM_GV\serial_fifo.o
                                                  build\VCOM_GV\usbSerial.o
fifo_init                                         build\VCOM_GV\serial_fifo.o
                                                  build\VCOM_GV\usbSerial.o
fifo_put                                          build\VCOM_GV\serial_fifo.o
                                                  build\VCOM_GV\usbSerial.o
fputc                                             c:/progra~2/codesourcery/source~1/bin/../lib/gcc/arm-none-eabi/4.5.2/../../../../arm-none-eabi/lib/thumb2\libc.a(lib_a-fputc.o)
                                                  c:/progra~2/codesourcery/source~1/bin/../lib/gcc/arm-none-eabi/4.5.2/../../../../arm-none-eabi/lib/thumb2\libstdc++.a(vterminate.o)
fputs                                             c:/progra~2/codesourcery/source~1/bin/../lib/gcc/arm-none-eabi/4.5.2/../../../../arm-none-eabi/lib/thumb2\libc.a(lib_a-fputs.o)
                                                  c:/progra~2/codesourcery/source~1/bin/../lib/gcc/arm-none-eabi/4.5.2/../../../../arm-none-eabi/lib/thumb2\libstdc++.a(vterminate.o)
free                                              c:/progra~2/codesourcery/source~1/bin/../lib/gcc/arm-none-eabi/4.5.2/../../../../arm-none-eabi/lib/thumb2\libc.a(lib_a-malloc.o)
                                                  c:/progra~2/codesourcery/source~1/bin/../lib/gcc/arm-none-eabi/4.5.2/../../../../arm-none-eabi/lib/thumb2\libstdc++.a(cp-demangle.o)
                                                  c:/progra~2/codesourcery/source~1/bin/../lib/gcc/arm-none-eabi/4.5.2/../../../../arm-none-eabi/lib/thumb2\libstdc++.a(eh_alloc.o)
                                                  c:/progra~2/codesourcery/source~1/bin/../lib/gcc/arm-none-eabi/4.5.2/../../../../arm-none-eabi/lib/thumb2\libstdc++.a(vterminate.o)
                                                  build\system\mini_cpp.o
fwrite                                            c:/progra~2/codesourcery/source~1/bin/../lib/gcc/arm-none-eabi/4.5.2/../../../../arm-none-eabi/lib/thumb2\libc.a(lib_a-fwrite.o)
                                                  c:/progra~2/codesourcery/source~1/bin/../lib/gcc/arm-none-eabi/4.5.2/../../../../arm-none-eabi/lib/thumb2\libstdc++.a(vterminate.o)
get_heap_end                                      build\system\syscalls.o
get_stack_top                                     build\system\syscalls.o
host::buildName                                   build\Host.o
host::buildSteps                                  build\Host.o
host::currentState                                build\Host.o
host::doToolPause(OutPacket&)                     build\Host.o
host::do_host_reset                               build\Host.o
host::getBuildName()                              build\Host.o
                                                  build\Menu.o
host::getHostState()                              build\Host.o
                                                  build\Menu.o
                                                  build\InterfaceBoard.o
host::getMachineName()                            build\Host.o
                                                  build\Menu.o
host::handleCaptureToFile(InPacket const&, OutPacket&) build\Host.o
host::handleEndCapture(InPacket const&, OutPacket&) build\Host.o
host::handleExtendedStop(InPacket const&, OutPacket&) build\Host.o
host::handleGetBufferSize(InPacket const&, OutPacket&) build\Host.o
host::handleGetBuildName(InPacket const&, OutPacket&) build\Host.o
host::handleGetCommunicationStats(InPacket const&, OutPacket&) build\Host.o
host::handleGetPosition(InPacket const&, OutPacket&) build\Host.o
host::handleGetPositionExt(InPacket const&, OutPacket&) build\Host.o
host::handleIsFinished(InPacket const&, OutPacket&) build\Host.o
host::handleNextFilename(InPacket const&, OutPacket&) build\Host.o
host::handlePause(InPacket const&, OutPacket&)    build\Host.o
host::handlePlayback(InPacket const&, OutPacket&) build\Host.o
host::handleReadEeprom(InPacket const&, OutPacket&) build\Host.o
host::handleToolQuery(InPacket const&, OutPacket&) build\Host.o
host::handleVersion(InPacket const&, OutPacket&)  build\Host.o
host::handleWriteEeprom(InPacket const&, OutPacket&) build\Host.o
host::machineName                                 build\Host.o
host::packet_in_timeout                           build\Host.o
host::processCommandPacket(InPacket const&, OutPacket&) build\Host.o
host::processQueryPacket(InPacket const&, OutPacket&) build\Host.o
host::runHostSlice()                              build\Host.o
                                                  build\Main.o
host::startBuildFromSD()                          build\Host.o
                                                  build\Menu.o
host::stopBuild()                                 build\Host.o
                                                  build\Menu.o
interfaceboard::board                             build\Interface.o
interfaceboard::doInterrupt()                     build\Interface.o
                                                  build\Motherboard.o
interfaceboard::doUpdate()                        build\Interface.o
                                                  build\Motherboard.o
interfaceboard::getUpdateRate()                   build\Interface.o
                                                  build\Motherboard.o
interfaceboard::init()                            build\Interface.o
                                                  build\Motherboard.o
interfaceboard::isConnected()                     build\Interface.o
                                                  build\Motherboard.o
interfaceboard::popScreen()                       build\Interface.o
                                                  build\Menu.o
interfaceboard::pushScreen(Screen*)               build\Interface.o
                                                  build\Menu.o
jogger                                            build\Menu.o
listen()                                          build\UART.o
localeconv                                        c:/progra~2/codesourcery/source~1/bin/../lib/gcc/arm-none-eabi/4.5.2/../../../../arm-none-eabi/lib/thumb2\libc.a(lib_a-locale.o)
loopback_bytes                                    build\UART.o
main                                              build\Main.o
                                                  build\system\startup_LPC17xx.o
malloc                                            c:/progra~2/codesourcery/source~1/bin/../lib/gcc/arm-none-eabi/4.5.2/../../../../arm-none-eabi/lib/thumb2\libc.a(lib_a-malloc.o)
                                                  c:/progra~2/codesourcery/source~1/bin/../lib/gcc/arm-none-eabi/4.5.2/../../../../arm-none-eabi/lib/thumb2\libc.a(lib_a-mprec.o)
                                                  c:/progra~2/codesourcery/source~1/bin/../lib/gcc/arm-none-eabi/4.5.2/../../../../arm-none-eabi/lib/thumb2\libc.a(lib_a-dtoa.o)
                                                  c:/progra~2/codesourcery/source~1/bin/../lib/gcc/arm-none-eabi/4.5.2/../../../../arm-none-eabi/lib/thumb2\libc.a(lib_a-rand.o)
                                                  c:/progra~2/codesourcery/source~1/bin/../lib/gcc/arm-none-eabi/4.5.2/../../../../arm-none-eabi/lib/thumb2\libstdc++.a(eh_alloc.o)
                                                  build\system\mini_cpp.o
memchr                                            c:/progra~2/codesourcery/source~1/bin/../lib/gcc/arm-none-eabi/4.5.2/../../../../arm-none-eabi/lib/thumb2\libc.a(lib_a-memchr.o)
                                                  c:/progra~2/codesourcery/source~1/bin/../lib/gcc/arm-none-eabi/4.5.2/../../../../arm-none-eabi/lib/thumb2\libc.a(lib_a-svfiprintf.o)
                                                  c:/progra~2/codesourcery/source~1/bin/../lib/gcc/arm-none-eabi/4.5.2/../../../../arm-none-eabi/lib/thumb2\libc.a(lib_a-svfprintf.o)
                                                  c:/progra~2/codesourcery/source~1/bin/../lib/gcc/arm-none-eabi/4.5.2/../../../../arm-none-eabi/lib/thumb2\libc.a(lib_a-fvwrite.o)
memcmp                                            c:/progra~2/codesourcery/source~1/bin/../lib/gcc/arm-none-eabi/4.5.2/../../../../arm-none-eabi/lib/thumb2\libc.a(lib_a-memcmp.o)
                                                  c:/progra~2/codesourcery/source~1/bin/../lib/gcc/arm-none-eabi/4.5.2/../../../../arm-none-eabi/lib/thumb2\libstdc++.a(cp-demangle.o)
memcpy                                            c:/progra~2/codesourcery/source~1/bin/../lib/gcc/arm-none-eabi/4.5.2/../../../../arm-none-eabi/lib/thumb2\libc.a(lib_a-memcpy.o)
                                                  c:/progra~2/codesourcery/source~1/bin/../lib/gcc/arm-none-eabi/4.5.2/../../../../arm-none-eabi/lib/thumb2\libc.a(lib_a-svfiprintf.o)
                                                  c:/progra~2/codesourcery/source~1/bin/../lib/gcc/arm-none-eabi/4.5.2/../../../../arm-none-eabi/lib/thumb2\libc.a(lib_a-mprec.o)
                                                  c:/progra~2/codesourcery/source~1/bin/../lib/gcc/arm-none-eabi/4.5.2/../../../../arm-none-eabi/lib/thumb2\libc.a(lib_a-dtoa.o)
                                                  c:/progra~2/codesourcery/source~1/bin/../lib/gcc/arm-none-eabi/4.5.2/../../../../arm-none-eabi/lib/thumb2\libc.a(lib_a-fvwrite.o)
                                                  c:/progra~2/codesourcery/source~1/bin/../lib/gcc/arm-none-eabi/4.5.2/thumb2\libgcc.a(unwind-arm.o)
                                                  c:/progra~2/codesourcery/source~1/bin/../lib/gcc/arm-none-eabi/4.5.2/../../../../arm-none-eabi/lib/thumb2\libstdc++.a(cp-demangle.o)
                                                  build\Steppers.o
                                                  build\lib_sd\sd_raw.o
                                                  build\lib_sd\fat.o
memmove                                           c:/progra~2/codesourcery/source~1/bin/../lib/gcc/arm-none-eabi/4.5.2/../../../../arm-none-eabi/lib/thumb2\libc.a(lib_a-memmove.o)
                                                  c:/progra~2/codesourcery/source~1/bin/../lib/gcc/arm-none-eabi/4.5.2/../../../../arm-none-eabi/lib/thumb2\libc.a(lib_a-svfiprintf.o)
                                                  c:/progra~2/codesourcery/source~1/bin/../lib/gcc/arm-none-eabi/4.5.2/../../../../arm-none-eabi/lib/thumb2\libc.a(lib_a-reallocr.o)
                                                  c:/progra~2/codesourcery/source~1/bin/../lib/gcc/arm-none-eabi/4.5.2/../../../../arm-none-eabi/lib/thumb2\libc.a(lib_a-fvwrite.o)
memset                                            c:/progra~2/codesourcery/source~1/bin/../lib/gcc/arm-none-eabi/4.5.2/../../../../arm-none-eabi/lib/thumb2\libc.a(lib_a-memset.o)
                                                  c:/progra~2/codesourcery/source~1/bin/../lib/gcc/arm-none-eabi/4.5.2/../../../../arm-none-eabi/lib/thumb2\libc.a(lib_a-callocr.o)
                                                  c:/progra~2/codesourcery/source~1/bin/../lib/gcc/arm-none-eabi/4.5.2/../../../../arm-none-eabi/lib/thumb2\libc.a(lib_a-findfp.o)
                                                  c:/progra~2/codesourcery/source~1/bin/../lib/gcc/arm-none-eabi/4.5.2/../../../../arm-none-eabi/lib/thumb2\libstdc++.a(eh_alloc.o)
                                                  build\lib_sd\sd_raw.o
                                                  build\lib_sd\partition.o
                                                  build\lib_sd\fat.o
menu1                                             build\Tool.o
                                                  build\Motherboard.o
                                                  build\Main.o
                                                  build\EepromMap.o
menu2                                             build\Tool.o
                                                  build\Motherboard.o
                                                  build\Main.o
                                                  build\EepromMap.o
menu3                                             build\Tool.o
                                                  build\Motherboard.o
                                                  build\Main.o
                                                  build\EepromMap.o
microstep_pinout(unsigned char)                   build\EepromMap.o
microstep_port_array                              build\StepperInterface.o
                                                  build\Microsteps.o
                                                  build\Main.o
                                                  build\Host.o
                                                  build\EepromMap.o
                                                  build\Command.o
microsteps::I2CDEV_S_ADDR                         build\Microsteps.o
microsteps::Port0_I2C                             build\Microsteps.o
microsteps::Port1_I2C                             build\Microsteps.o
microsteps::init()                                build\Microsteps.o
monitorMode                                       build\Menu.o
operator delete(void*)                            build\system\mini_cpp.o
                                                  c:/progra~2/codesourcery/source~1/bin/../lib/gcc/arm-none-eabi/4.5.2/../../../../arm-none-eabi/lib/thumb2\libstdc++.a(eh_exception.o)
                                                  c:/progra~2/codesourcery/source~1/bin/../lib/gcc/arm-none-eabi/4.5.2/../../../../arm-none-eabi/lib/thumb2\libstdc++.a(tinfo.o)
                                                  c:/progra~2/codesourcery/source~1/bin/../lib/gcc/arm-none-eabi/4.5.2/../../../../arm-none-eabi/lib/thumb2\libstdc++.a(class_type_info.o)
                                                  c:/progra~2/codesourcery/source~1/bin/../lib/gcc/arm-none-eabi/4.5.2/../../../../arm-none-eabi/lib/thumb2\libstdc++.a(si_class_type_info.o)
operator new(unsigned int)                        build\system\mini_cpp.o
operator new[](unsigned int)                      build\system\mini_cpp.o
partition_close                                   build\lib_sd\partition.o
partition_open                                    build\lib_sd\partition.o
                                                  build\SDCard.o
print_menu()                                      build\Tool.o
                                                  build\Motherboard.o
                                                  build\Main.o
                                                  build\EepromMap.o
processDebugPacket(InPacket const&, OutPacket&)   build\DebugPacketProcessor.o
                                                  build\Host.o
putc                                              c:/progra~2/codesourcery/source~1/bin/../lib/gcc/arm-none-eabi/4.5.2/../../../../arm-none-eabi/lib/thumb2\libc.a(lib_a-putc.o)
queryExtruderParameter(unsigned char, OutPacket&) build\Menu.o
raise                                             c:/progra~2/codesourcery/source~1/bin/../lib/gcc/arm-none-eabi/4.5.2/../../../../arm-none-eabi/lib/thumb2\libc.a(lib_a-signal.o)
                                                  c:/progra~2/codesourcery/source~1/bin/../lib/gcc/arm-none-eabi/4.5.2/../../../../arm-none-eabi/lib/thumb2\libc.a(lib_a-abort.o)
rand                                              c:/progra~2/codesourcery/source~1/bin/../lib/gcc/arm-none-eabi/4.5.2/../../../../arm-none-eabi/lib/thumb2\libc.a(lib_a-rand.o)
                                                  build\Menu.o
read16                                            build\lib_sd\byteordering.o
read32                                            build\lib_sd\byteordering.o
read_all_from_flash()                             build\EepromMap.o
realloc                                           c:/progra~2/codesourcery/source~1/bin/../lib/gcc/arm-none-eabi/4.5.2/../../../../arm-none-eabi/lib/thumb2\libc.a(lib_a-realloc.o)
                                                  c:/progra~2/codesourcery/source~1/bin/../lib/gcc/arm-none-eabi/4.5.2/../../../../arm-none-eabi/lib/thumb2\libstdc++.a(cp-demangle.o)
reset(bool)                                       build\Main.o
                                                  build\Host.o
restore_core_regs                                 c:/progra~2/codesourcery/source~1/bin/../lib/gcc/arm-none-eabi/4.5.2/thumb2\libgcc.a(libunwind.o)
                                                  c:/progra~2/codesourcery/source~1/bin/../lib/gcc/arm-none-eabi/4.5.2/thumb2\libgcc.a(unwind-arm.o)
save_to_flash()                                   build\EepromMap.o
                                                  build\Host.o
                                                  build\Command.o
sdMenu                                            build\Menu.o
sd_raw_available                                  build\lib_sd\sd_raw.o
                                                  build\SDCard.o
sd_raw_get_info                                   build\lib_sd\sd_raw.o
sd_raw_init                                       build\lib_sd\sd_raw.o
                                                  build\SDCard.o
sd_raw_locked                                     build\lib_sd\sd_raw.o
                                                  build\SDCard.o
sd_raw_read                                       build\lib_sd\sd_raw.o
                                                  build\SDCard.o
sd_raw_read_interval                              build\lib_sd\sd_raw.o
                                                  build\SDCard.o
sd_raw_sync                                       build\lib_sd\sd_raw.o
                                                  build\SDCard.o
sd_raw_write                                      build\lib_sd\sd_raw.o
                                                  build\SDCard.o
sd_raw_write_interval                             build\lib_sd\sd_raw.o
                                                  build\SDCard.o
sdcard::capturePacket(Packet const&)              build\SDCard.o
                                                  build\Host.o
sdcard::capturedBytes                             build\SDCard.o
sdcard::capturing                                 build\SDCard.o
sdcard::createFile(char*)                         build\SDCard.o
sdcard::dd                                        build\SDCard.o
sdcard::deleteFile(char*)                         build\SDCard.o
sdcard::directoryNextEntry(char*, unsigned char)  build\SDCard.o
                                                  build\Menu.o
                                                  build\Host.o
sdcard::directoryReset()                          build\SDCard.o
                                                  build\Menu.o
                                                  build\Host.o
sdcard::fetchNextByte()                           build\SDCard.o
sdcard::file                                      build\SDCard.o
sdcard::findFileInDir(char const*, fat_dir_entry_struct*) build\SDCard.o
sdcard::finishCapture()                           build\SDCard.o
                                                  build\Host.o
sdcard::finishPlayback()                          build\SDCard.o
sdcard::fs                                        build\SDCard.o
sdcard::has_more                                  build\SDCard.o
sdcard::initCard()                                build\SDCard.o
sdcard::isCapturing()                             build\SDCard.o
                                                  build\Host.o
sdcard::isPlaying()                               build\SDCard.o
                                                  build\Command.o
sdcard::next_byte                                 build\SDCard.o
sdcard::openFile(char const*, fat_file_struct**)  build\SDCard.o
sdcard::openFilesys()                             build\SDCard.o
sdcard::openPartition()                           build\SDCard.o
sdcard::openRoot()                                build\SDCard.o
sdcard::partition                                 build\SDCard.o
sdcard::playbackHasNext()                         build\SDCard.o
                                                  build\Command.o
sdcard::playbackNext()                            build\SDCard.o
                                                  build\Command.o
sdcard::playbackRewind(unsigned char)             build\SDCard.o
sdcard::playing                                   build\SDCard.o
sdcard::reset()                                   build\SDCard.o
                                                  build\Main.o
sdcard::startCapture(char*)                       build\SDCard.o
                                                  build\Host.o
sdcard::startPlayback(char*)                      build\SDCard.o
                                                  build\Host.o
setlocale                                         c:/progra~2/codesourcery/source~1/bin/../lib/gcc/arm-none-eabi/4.5.2/../../../../arm-none-eabi/lib/thumb2\libc.a(lib_a-locale.o)
signal                                            c:/progra~2/codesourcery/source~1/bin/../lib/gcc/arm-none-eabi/4.5.2/../../../../arm-none-eabi/lib/thumb2\libc.a(lib_a-signal.o)
snake                                             build\Menu.o
speak()                                           build\UART.o
sprintf                                           c:/progra~2/codesourcery/source~1/bin/../lib/gcc/arm-none-eabi/4.5.2/../../../../arm-none-eabi/lib/thumb2\libc.a(lib_a-sprintf.o)
                                                  c:/progra~2/codesourcery/source~1/bin/../lib/gcc/arm-none-eabi/4.5.2/../../../../arm-none-eabi/lib/thumb2\libstdc++.a(cp-demangle.o)
srand                                             c:/progra~2/codesourcery/source~1/bin/../lib/gcc/arm-none-eabi/4.5.2/../../../../arm-none-eabi/lib/thumb2\libc.a(lib_a-rand.o)
std::bad_exception::what() const                  c:/progra~2/codesourcery/source~1/bin/../lib/gcc/arm-none-eabi/4.5.2/../../../../arm-none-eabi/lib/thumb2\libstdc++.a(eh_exception.o)
std::bad_exception::~bad_exception()              c:/progra~2/codesourcery/source~1/bin/../lib/gcc/arm-none-eabi/4.5.2/../../../../arm-none-eabi/lib/thumb2\libstdc++.a(eh_exception.o)
                                                  c:/progra~2/codesourcery/source~1/bin/../lib/gcc/arm-none-eabi/4.5.2/../../../../arm-none-eabi/lib/thumb2\libstdc++.a(eh_call.o)
std::bad_exception::~bad_exception()              c:/progra~2/codesourcery/source~1/bin/../lib/gcc/arm-none-eabi/4.5.2/../../../../arm-none-eabi/lib/thumb2\libstdc++.a(eh_exception.o)
std::bad_exception::~bad_exception()              c:/progra~2/codesourcery/source~1/bin/../lib/gcc/arm-none-eabi/4.5.2/../../../../arm-none-eabi/lib/thumb2\libstdc++.a(eh_exception.o)
std::exception::what() const                      c:/progra~2/codesourcery/source~1/bin/../lib/gcc/arm-none-eabi/4.5.2/../../../../arm-none-eabi/lib/thumb2\libstdc++.a(eh_exception.o)
std::exception::~exception()                      c:/progra~2/codesourcery/source~1/bin/../lib/gcc/arm-none-eabi/4.5.2/../../../../arm-none-eabi/lib/thumb2\libstdc++.a(eh_exception.o)
std::exception::~exception()                      c:/progra~2/codesourcery/source~1/bin/../lib/gcc/arm-none-eabi/4.5.2/../../../../arm-none-eabi/lib/thumb2\libstdc++.a(eh_exception.o)
std::exception::~exception()                      c:/progra~2/codesourcery/source~1/bin/../lib/gcc/arm-none-eabi/4.5.2/../../../../arm-none-eabi/lib/thumb2\libstdc++.a(eh_exception.o)
std::set_terminate(void (*)())                    c:/progra~2/codesourcery/source~1/bin/../lib/gcc/arm-none-eabi/4.5.2/../../../../arm-none-eabi/lib/thumb2\libstdc++.a(eh_terminate.o)
std::set_unexpected(void (*)())                   c:/progra~2/codesourcery/source~1/bin/../lib/gcc/arm-none-eabi/4.5.2/../../../../arm-none-eabi/lib/thumb2\libstdc++.a(eh_terminate.o)
std::terminate()                                  c:/progra~2/codesourcery/source~1/bin/../lib/gcc/arm-none-eabi/4.5.2/../../../../arm-none-eabi/lib/thumb2\libstdc++.a(eh_terminate.o)
                                                  c:/progra~2/codesourcery/source~1/bin/../lib/gcc/arm-none-eabi/4.5.2/../../../../arm-none-eabi/lib/thumb2\libstdc++.a(eh_alloc.o)
                                                  c:/progra~2/codesourcery/source~1/bin/../lib/gcc/arm-none-eabi/4.5.2/../../../../arm-none-eabi/lib/thumb2\libstdc++.a(eh_arm.o)
                                                  c:/progra~2/codesourcery/source~1/bin/../lib/gcc/arm-none-eabi/4.5.2/../../../../arm-none-eabi/lib/thumb2\libstdc++.a(eh_catch.o)
                                                  c:/progra~2/codesourcery/source~1/bin/../lib/gcc/arm-none-eabi/4.5.2/../../../../arm-none-eabi/lib/thumb2\libstdc++.a(eh_unex_handler.o)
                                                  c:/progra~2/codesourcery/source~1/bin/../lib/gcc/arm-none-eabi/4.5.2/../../../../arm-none-eabi/lib/thumb2\libstdc++.a(eh_throw.o)
                                                  c:/progra~2/codesourcery/source~1/bin/../lib/gcc/arm-none-eabi/4.5.2/../../../../arm-none-eabi/lib/thumb2\libstdc++.a(eh_personality.o)
                                                  c:/progra~2/codesourcery/source~1/bin/../lib/gcc/arm-none-eabi/4.5.2/../../../../arm-none-eabi/lib/thumb2\libstdc++.a(eh_call.o)
                                                  c:/progra~2/codesourcery/source~1/bin/../lib/gcc/arm-none-eabi/4.5.2/../../../../arm-none-eabi/lib/thumb2\libstdc++.a(pure.o)
std::type_info::__do_catch(std::type_info const*, void**, unsigned int) const c:/progra~2/codesourcery/source~1/bin/../lib/gcc/arm-none-eabi/4.5.2/../../../../arm-none-eabi/lib/thumb2\libstdc++.a(tinfo.o)
std::type_info::__do_upcast(__cxxabiv1::__class_type_info const*, void**) const c:/progra~2/codesourcery/source~1/bin/../lib/gcc/arm-none-eabi/4.5.2/../../../../arm-none-eabi/lib/thumb2\libstdc++.a(tinfo.o)
std::type_info::__is_function_p() const           c:/progra~2/codesourcery/source~1/bin/../lib/gcc/arm-none-eabi/4.5.2/../../../../arm-none-eabi/lib/thumb2\libstdc++.a(tinfo.o)
                                                  c:/progra~2/codesourcery/source~1/bin/../lib/gcc/arm-none-eabi/4.5.2/../../../../arm-none-eabi/lib/thumb2\libstdc++.a(class_type_info.o)
                                                  c:/progra~2/codesourcery/source~1/bin/../lib/gcc/arm-none-eabi/4.5.2/../../../../arm-none-eabi/lib/thumb2\libstdc++.a(si_class_type_info.o)
std::type_info::__is_pointer_p() const            c:/progra~2/codesourcery/source~1/bin/../lib/gcc/arm-none-eabi/4.5.2/../../../../arm-none-eabi/lib/thumb2\libstdc++.a(tinfo.o)
                                                  c:/progra~2/codesourcery/source~1/bin/../lib/gcc/arm-none-eabi/4.5.2/../../../../arm-none-eabi/lib/thumb2\libstdc++.a(class_type_info.o)
                                                  c:/progra~2/codesourcery/source~1/bin/../lib/gcc/arm-none-eabi/4.5.2/../../../../arm-none-eabi/lib/thumb2\libstdc++.a(si_class_type_info.o)
std::type_info::operator==(std::type_info const&) const c:/progra~2/codesourcery/source~1/bin/../lib/gcc/arm-none-eabi/4.5.2/../../../../arm-none-eabi/lib/thumb2\libstdc++.a(tinfo.o)
                                                  c:/progra~2/codesourcery/source~1/bin/../lib/gcc/arm-none-eabi/4.5.2/../../../../arm-none-eabi/lib/thumb2\libstdc++.a(class_type_info.o)
                                                  c:/progra~2/codesourcery/source~1/bin/../lib/gcc/arm-none-eabi/4.5.2/../../../../arm-none-eabi/lib/thumb2\libstdc++.a(si_class_type_info.o)
std::type_info::~type_info()                      c:/progra~2/codesourcery/source~1/bin/../lib/gcc/arm-none-eabi/4.5.2/../../../../arm-none-eabi/lib/thumb2\libstdc++.a(tinfo.o)
std::type_info::~type_info()                      c:/progra~2/codesourcery/source~1/bin/../lib/gcc/arm-none-eabi/4.5.2/../../../../arm-none-eabi/lib/thumb2\libstdc++.a(tinfo.o)
                                                  c:/progra~2/codesourcery/source~1/bin/../lib/gcc/arm-none-eabi/4.5.2/../../../../arm-none-eabi/lib/thumb2\libstdc++.a(class_type_info.o)
std::type_info::~type_info()                      c:/progra~2/codesourcery/source~1/bin/../lib/gcc/arm-none-eabi/4.5.2/../../../../arm-none-eabi/lib/thumb2\libstdc++.a(tinfo.o)
std::uncaught_exception()                         c:/progra~2/codesourcery/source~1/bin/../lib/gcc/arm-none-eabi/4.5.2/../../../../arm-none-eabi/lib/thumb2\libstdc++.a(eh_catch.o)
std::unexpected()                                 c:/progra~2/codesourcery/source~1/bin/../lib/gcc/arm-none-eabi/4.5.2/../../../../arm-none-eabi/lib/thumb2\libstdc++.a(eh_terminate.o)
                                                  c:/progra~2/codesourcery/source~1/bin/../lib/gcc/arm-none-eabi/4.5.2/../../../../arm-none-eabi/lib/thumb2\libstdc++.a(eh_personality.o)
                                                  c:/progra~2/codesourcery/source~1/bin/../lib/gcc/arm-none-eabi/4.5.2/../../../../arm-none-eabi/lib/thumb2\libstdc++.a(eh_call.o)
steppers::Axis::Axis()                            build\Steppers.o
steppers::Axis::Axis()                            build\Steppers.o
steppers::Axis::Axis(StepperInterface&)           build\Steppers.o
steppers::Axis::Axis(StepperInterface&)           build\Steppers.o
steppers::Axis::definePosition(long)              build\Steppers.o
steppers::Axis::doHoming(long)                    build\Steppers.o
steppers::Axis::doInterrupt(long)                 build\Steppers.o
steppers::Axis::enableStepper(bool)               build\Steppers.o
steppers::Axis::reset()                           build\Steppers.o
steppers::Axis::setHoming(bool)                   build\Steppers.o
steppers::Axis::setTarget(long, bool)             build\Steppers.o
steppers::abort()                                 build\Steppers.o
                                                  build\Main.o
                                                  build\Host.o
                                                  build\Command.o
steppers::axes                                    build\Steppers.o
steppers::definePosition(Point const&)            build\Steppers.o
                                                  build\Command.o
steppers::doInterrupt()                           build\Steppers.o
                                                  build\Motherboard.o
steppers::enableAxis(unsigned char, bool)         build\Steppers.o
                                                  build\Command.o
steppers::getPosition()                           build\Steppers.o
                                                  build\Menu.o
                                                  build\Host.o
                                                  build\Command.o
steppers::holdZ                                   build\Steppers.o
steppers::init(Motherboard&)                      build\Steppers.o
                                                  build\Main.o
steppers::intervals                               build\Steppers.o
steppers::intervals_remaining                     build\Steppers.o
steppers::isRunning()                             build\Steppers.o
                                                  build\Host.o
                                                  build\Command.o
steppers::is_homing                               build\Steppers.o
steppers::is_running                              build\Steppers.o
steppers::setHoldZ(bool)                          build\Steppers.o
steppers::setTarget(Point const&, long)           build\Steppers.o
                                                  build\Menu.o
                                                  build\Command.o
steppers::setTargetNew(Point const&, long, unsigned char) build\Steppers.o
                                                  build\Command.o
steppers::startHoming(bool, unsigned char, unsigned long) build\Steppers.o
                                                  build\Command.o
strchr                                            c:/progra~2/codesourcery/source~1/bin/../lib/gcc/arm-none-eabi/4.5.2/../../../../arm-none-eabi/lib/thumb2\libc.a(lib_a-strchr.o)
                                                  c:/progra~2/codesourcery/source~1/bin/../lib/gcc/arm-none-eabi/4.5.2/../../../../arm-none-eabi/lib/thumb2\libc.a(lib_a-strrchr.o)
                                                  build\lib_sd\fat.o
strcmp                                            c:/progra~2/codesourcery/source~1/bin/../lib/gcc/arm-none-eabi/4.5.2/../../../../arm-none-eabi/lib/thumb2\libc.a(lib_a-strcmp.o)
                                                  c:/progra~2/codesourcery/source~1/bin/../lib/gcc/arm-none-eabi/4.5.2/../../../../arm-none-eabi/lib/thumb2\libc.a(lib_a-locale.o)
                                                  c:/progra~2/codesourcery/source~1/bin/../lib/gcc/arm-none-eabi/4.5.2/../../../../arm-none-eabi/lib/thumb2\libstdc++.a(cp-demangle.o)
                                                  c:/progra~2/codesourcery/source~1/bin/../lib/gcc/arm-none-eabi/4.5.2/../../../../arm-none-eabi/lib/thumb2\libstdc++.a(tinfo.o)
                                                  build\SDCard.o
                                                  build\lib_sd\fat.o
strcpy                                            c:/progra~2/codesourcery/source~1/bin/../lib/gcc/arm-none-eabi/4.5.2/../../../../arm-none-eabi/lib/thumb2\libc.a(lib_a-strcpy.o)
                                                  c:/progra~2/codesourcery/source~1/bin/../lib/gcc/arm-none-eabi/4.5.2/../../../../arm-none-eabi/lib/thumb2\libstdc++.a(cp-demangle.o)
strlen                                            c:/progra~2/codesourcery/source~1/bin/../lib/gcc/arm-none-eabi/4.5.2/../../../../arm-none-eabi/lib/thumb2\libc.a(lib_a-strlen.o)
                                                  c:/progra~2/codesourcery/source~1/bin/../lib/gcc/arm-none-eabi/4.5.2/../../../../arm-none-eabi/lib/thumb2\libc.a(lib_a-svfiprintf.o)
                                                  c:/progra~2/codesourcery/source~1/bin/../lib/gcc/arm-none-eabi/4.5.2/../../../../arm-none-eabi/lib/thumb2\libc.a(lib_a-svfprintf.o)
                                                  c:/progra~2/codesourcery/source~1/bin/../lib/gcc/arm-none-eabi/4.5.2/../../../../arm-none-eabi/lib/thumb2\libc.a(lib_a-fputs.o)
                                                  c:/progra~2/codesourcery/source~1/bin/../lib/gcc/arm-none-eabi/4.5.2/../../../../arm-none-eabi/lib/thumb2\libstdc++.a(cp-demangle.o)
                                                  build\lib_sd\fat.o
strncmp                                           c:/progra~2/codesourcery/source~1/bin/../lib/gcc/arm-none-eabi/4.5.2/../../../../arm-none-eabi/lib/thumb2\libc.a(lib_a-strncmp.o)
                                                  c:/progra~2/codesourcery/source~1/bin/../lib/gcc/arm-none-eabi/4.5.2/../../../../arm-none-eabi/lib/thumb2\libstdc++.a(cp-demangle.o)
                                                  build\lib_sd\fat.o
strncpy                                           c:/progra~2/codesourcery/source~1/bin/../lib/gcc/arm-none-eabi/4.5.2/../../../../arm-none-eabi/lib/thumb2\libc.a(lib_a-strncpy.o)
                                                  build\lib_sd\fat.o
strrchr                                           c:/progra~2/codesourcery/source~1/bin/../lib/gcc/arm-none-eabi/4.5.2/../../../../arm-none-eabi/lib/thumb2\libc.a(lib_a-strrchr.o)
                                                  build\lib_sd\fat.o
test_led(unsigned char)                           build\Tool.o
                                                  build\Motherboard.o
                                                  build\Main.o
                                                  build\EepromMap.o
test_led2(unsigned char)                          build\Tool.o
                                                  build\Motherboard.o
                                                  build\Main.o
                                                  build\EepromMap.o
test_led3(unsigned char)                          build\Tool.o
                                                  build\Motherboard.o
                                                  build\Main.o
                                                  build\EepromMap.o
test_u()                                          build\Tool.o
                                                  build\Motherboard.o
                                                  build\Main.o
                                                  build\EepromMap.o
test_uart()                                       build\Tool.o
                                                  build\Motherboard.o
                                                  build\Main.o
                                                  build\EepromMap.o
tool::getInPacket()                               build\Tool.o
                                                  build\Menu.o
                                                  build\Host.o
                                                  build\DebugPacketProcessor.o
                                                  build\Command.o
tool::getLock()                                   build\Tool.o
                                                  build\Menu.o
                                                  build\Host.o
                                                  build\DebugPacketProcessor.o
                                                  build\Command.o
tool::getNoiseByteCount()                         build\Tool.o
                                                  build\Host.o
tool::getOutPacket()                              build\Tool.o
                                                  build\Menu.o
                                                  build\Host.o
                                                  build\DebugPacketProcessor.o
                                                  build\Command.o
tool::getPacketFailureCount()                     build\Tool.o
                                                  build\Host.o
tool::getRetryCount()                             build\Tool.o
                                                  build\Host.o
tool::getSentPacketCount()                        build\Tool.o
                                                  build\Host.o
tool::getToolVersion()                            build\Tool.o
tool::isTransactionDone()                         build\Tool.o
                                                  build\Menu.o
                                                  build\Host.o
                                                  build\DebugPacketProcessor.o
                                                  build\Command.o
tool::locked                                      build\Tool.o
tool::noise_byte_count                            build\Tool.o
tool::packet_failure_count                        build\Tool.o
tool::packet_retry_count                          build\Tool.o
tool::releaseLock()                               build\Tool.o
                                                  build\Menu.o
                                                  build\Host.o
                                                  build\DebugPacketProcessor.o
                                                  build\Command.o
tool::reset()                                     build\Tool.o
                                                  build\Main.o
tool::retries                                     build\Tool.o
tool::runToolSlice()                              build\Tool.o
                                                  build\Menu.o
                                                  build\Main.o
                                                  build\Host.o
                                                  build\DebugPacketProcessor.o
                                                  build\Command.o
tool::sent_packet_count                           build\Tool.o
tool::setToolIndicatorLED()                       build\Tool.o
tool::startTransaction()                          build\Tool.o
                                                  build\Menu.o
                                                  build\Host.o
                                                  build\DebugPacketProcessor.o
                                                  build\Command.o
tool::timeout                                     build\Tool.o
tool::tool_index                                  build\Tool.o
                                                  build\Host.o
                                                  build\Command.o
tool::transaction_active                          build\Tool.o
typeinfo for CancelBuildMenu                      build\Menu.o
typeinfo for JogMode                              build\Menu.o
typeinfo for LiquidCrystal                        build\LiquidCrystal.o
typeinfo for MainMenu                             build\Menu.o
typeinfo for Menu                                 build\Menu.o
typeinfo for MonitorMode                          build\Menu.o
typeinfo for SDMenu                               build\Menu.o
typeinfo for Screen                               build\InterfaceBoard.o
                                                  build\Menu.o
typeinfo for SnakeMode                            build\Menu.o
typeinfo for SplashScreen                         build\Menu.o
typeinfo for __cxxabiv1::__class_type_info        c:/progra~2/codesourcery/source~1/bin/../lib/gcc/arm-none-eabi/4.5.2/../../../../arm-none-eabi/lib/thumb2\libstdc++.a(class_type_info.o)
                                                  c:/progra~2/codesourcery/source~1/bin/../lib/gcc/arm-none-eabi/4.5.2/../../../../arm-none-eabi/lib/thumb2\libstdc++.a(si_class_type_info.o)
typeinfo for __cxxabiv1::__forced_unwind          c:/progra~2/codesourcery/source~1/bin/../lib/gcc/arm-none-eabi/4.5.2/../../../../arm-none-eabi/lib/thumb2\libstdc++.a(eh_exception.o)
                                                  c:/progra~2/codesourcery/source~1/bin/../lib/gcc/arm-none-eabi/4.5.2/../../../../arm-none-eabi/lib/thumb2\libstdc++.a(eh_arm.o)
typeinfo for __cxxabiv1::__foreign_exception      c:/progra~2/codesourcery/source~1/bin/../lib/gcc/arm-none-eabi/4.5.2/../../../../arm-none-eabi/lib/thumb2\libstdc++.a(eh_exception.o)
                                                  c:/progra~2/codesourcery/source~1/bin/../lib/gcc/arm-none-eabi/4.5.2/../../../../arm-none-eabi/lib/thumb2\libstdc++.a(eh_arm.o)
typeinfo for __cxxabiv1::__si_class_type_info     c:/progra~2/codesourcery/source~1/bin/../lib/gcc/arm-none-eabi/4.5.2/../../../../arm-none-eabi/lib/thumb2\libstdc++.a(si_class_type_info.o)
typeinfo for std::bad_exception                   c:/progra~2/codesourcery/source~1/bin/../lib/gcc/arm-none-eabi/4.5.2/../../../../arm-none-eabi/lib/thumb2\libstdc++.a(eh_exception.o)
                                                  c:/progra~2/codesourcery/source~1/bin/../lib/gcc/arm-none-eabi/4.5.2/../../../../arm-none-eabi/lib/thumb2\libstdc++.a(eh_call.o)
typeinfo for std::exception                       c:/progra~2/codesourcery/source~1/bin/../lib/gcc/arm-none-eabi/4.5.2/../../../../arm-none-eabi/lib/thumb2\libstdc++.a(eh_exception.o)
                                                  c:/progra~2/codesourcery/source~1/bin/../lib/gcc/arm-none-eabi/4.5.2/../../../../arm-none-eabi/lib/thumb2\libstdc++.a(vterminate.o)
typeinfo for std::type_info                       c:/progra~2/codesourcery/source~1/bin/../lib/gcc/arm-none-eabi/4.5.2/../../../../arm-none-eabi/lib/thumb2\libstdc++.a(tinfo.o)
                                                  c:/progra~2/codesourcery/source~1/bin/../lib/gcc/arm-none-eabi/4.5.2/../../../../arm-none-eabi/lib/thumb2\libstdc++.a(class_type_info.o)
typeinfo name for CancelBuildMenu                 build\Menu.o
typeinfo name for JogMode                         build\Menu.o
typeinfo name for LiquidCrystal                   build\LiquidCrystal.o
typeinfo name for MainMenu                        build\Menu.o
typeinfo name for Menu                            build\Menu.o
typeinfo name for MonitorMode                     build\Menu.o
typeinfo name for SDMenu                          build\Menu.o
typeinfo name for Screen                          build\InterfaceBoard.o
                                                  build\Menu.o
typeinfo name for SnakeMode                       build\Menu.o
typeinfo name for SplashScreen                    build\Menu.o
typeinfo name for __cxxabiv1::__class_type_info   c:/progra~2/codesourcery/source~1/bin/../lib/gcc/arm-none-eabi/4.5.2/../../../../arm-none-eabi/lib/thumb2\libstdc++.a(class_type_info.o)
typeinfo name for __cxxabiv1::__forced_unwind     c:/progra~2/codesourcery/source~1/bin/../lib/gcc/arm-none-eabi/4.5.2/../../../../arm-none-eabi/lib/thumb2\libstdc++.a(eh_exception.o)
typeinfo name for __cxxabiv1::__foreign_exception c:/progra~2/codesourcery/source~1/bin/../lib/gcc/arm-none-eabi/4.5.2/../../../../arm-none-eabi/lib/thumb2\libstdc++.a(eh_exception.o)
typeinfo name for __cxxabiv1::__si_class_type_info c:/progra~2/codesourcery/source~1/bin/../lib/gcc/arm-none-eabi/4.5.2/../../../../arm-none-eabi/lib/thumb2\libstdc++.a(si_class_type_info.o)
typeinfo name for std::bad_exception              c:/progra~2/codesourcery/source~1/bin/../lib/gcc/arm-none-eabi/4.5.2/../../../../arm-none-eabi/lib/thumb2\libstdc++.a(eh_exception.o)
typeinfo name for std::exception                  c:/progra~2/codesourcery/source~1/bin/../lib/gcc/arm-none-eabi/4.5.2/../../../../arm-none-eabi/lib/thumb2\libstdc++.a(eh_exception.o)
typeinfo name for std::type_info                  c:/progra~2/codesourcery/source~1/bin/../lib/gcc/arm-none-eabi/4.5.2/../../../../arm-none-eabi/lib/thumb2\libstdc++.a(tinfo.o)
usbSerialInit                                     build\VCOM_GV\usbSerial.o
                                                  build\UART.o
vtable for CancelBuildMenu                        build\Menu.o
vtable for JogMode                                build\Menu.o
vtable for LiquidCrystal                          build\LiquidCrystal.o
vtable for MainMenu                               build\Menu.o
vtable for Menu                                   build\Menu.o
vtable for MonitorMode                            build\Menu.o
                                                  build\InterfaceBoard.o
vtable for SDMenu                                 build\Menu.o
vtable for Screen                                 build\InterfaceBoard.o
                                                  build\Menu.o
vtable for SnakeMode                              build\Menu.o
vtable for SplashScreen                           build\Menu.o
                                                  build\InterfaceBoard.o
vtable for __cxxabiv1::__class_type_info          c:/progra~2/codesourcery/source~1/bin/../lib/gcc/arm-none-eabi/4.5.2/../../../../arm-none-eabi/lib/thumb2\libstdc++.a(class_type_info.o)
                                                  c:/progra~2/codesourcery/source~1/bin/../lib/gcc/arm-none-eabi/4.5.2/../../../../arm-none-eabi/lib/thumb2\libstdc++.a(eh_exception.o)
                                                  c:/progra~2/codesourcery/source~1/bin/../lib/gcc/arm-none-eabi/4.5.2/../../../../arm-none-eabi/lib/thumb2\libstdc++.a(tinfo.o)
                                                  build\Menu.o
                                                  build\LiquidCrystal.o
                                                  build\InterfaceBoard.o
vtable for __cxxabiv1::__forced_unwind            c:/progra~2/codesourcery/source~1/bin/../lib/gcc/arm-none-eabi/4.5.2/../../../../arm-none-eabi/lib/thumb2\libstdc++.a(eh_exception.o)
vtable for __cxxabiv1::__foreign_exception        c:/progra~2/codesourcery/source~1/bin/../lib/gcc/arm-none-eabi/4.5.2/../../../../arm-none-eabi/lib/thumb2\libstdc++.a(eh_exception.o)
vtable for __cxxabiv1::__si_class_type_info       c:/progra~2/codesourcery/source~1/bin/../lib/gcc/arm-none-eabi/4.5.2/../../../../arm-none-eabi/lib/thumb2\libstdc++.a(si_class_type_info.o)
                                                  c:/progra~2/codesourcery/source~1/bin/../lib/gcc/arm-none-eabi/4.5.2/../../../../arm-none-eabi/lib/thumb2\libstdc++.a(eh_exception.o)
                                                  c:/progra~2/codesourcery/source~1/bin/../lib/gcc/arm-none-eabi/4.5.2/../../../../arm-none-eabi/lib/thumb2\libstdc++.a(class_type_info.o)
                                                  build\Menu.o
vtable for std::bad_exception                     c:/progra~2/codesourcery/source~1/bin/../lib/gcc/arm-none-eabi/4.5.2/../../../../arm-none-eabi/lib/thumb2\libstdc++.a(eh_exception.o)
                                                  c:/progra~2/codesourcery/source~1/bin/../lib/gcc/arm-none-eabi/4.5.2/../../../../arm-none-eabi/lib/thumb2\libstdc++.a(eh_call.o)
vtable for std::exception                         c:/progra~2/codesourcery/source~1/bin/../lib/gcc/arm-none-eabi/4.5.2/../../../../arm-none-eabi/lib/thumb2\libstdc++.a(eh_exception.o)
vtable for std::type_info                         c:/progra~2/codesourcery/source~1/bin/../lib/gcc/arm-none-eabi/4.5.2/../../../../arm-none-eabi/lib/thumb2\libstdc++.a(tinfo.o)
write                                             c:/progra~2/codesourcery/source~1/bin/../lib/gcc/arm-none-eabi/4.5.2/../../../../arm-none-eabi/lib/thumb2\libc.a(lib_a-syswrite.o)
                                                  c:/progra~2/codesourcery/source~1/bin/../lib/gcc/arm-none-eabi/4.5.2/../../../../arm-none-eabi/lib/thumb2\libstdc++.a(pure.o)
write16                                           build\lib_sd\byteordering.o
write32                                           build\lib_sd\byteordering.o
xatoi                                             build\VCOM_GV\usbSerial.o
xitoa                                             build\VCOM_GV\usbSerial.o
