Archive member included because of file (symbol)

c:/progra~2/codesourcery/source~1/bin/../lib/gcc/arm-none-eabi/4.6.1/../../../../arm-none-eabi/lib/thumb2\libstdc++.a(si_class_type_info.o)
                              build\Menu.o (vtable for __cxxabiv1::__si_class_type_info)
c:/progra~2/codesourcery/source~1/bin/../lib/gcc/arm-none-eabi/4.6.1/../../../../arm-none-eabi/lib/thumb2\libstdc++.a(pure.o)
                              build\Menu.o (__cxa_pure_virtual)
c:/progra~2/codesourcery/source~1/bin/../lib/gcc/arm-none-eabi/4.6.1/../../../../arm-none-eabi/lib/thumb2\libstdc++.a(eh_terminate.o)
                              c:/progra~2/codesourcery/source~1/bin/../lib/gcc/arm-none-eabi/4.6.1/../../../../arm-none-eabi/lib/thumb2\libstdc++.a(pure.o) (std::terminate())
c:/progra~2/codesourcery/source~1/bin/../lib/gcc/arm-none-eabi/4.6.1/../../../../arm-none-eabi/lib/thumb2\libstdc++.a(class_type_info.o)
                              c:/progra~2/codesourcery/source~1/bin/../lib/gcc/arm-none-eabi/4.6.1/../../../../arm-none-eabi/lib/thumb2\libstdc++.a(si_class_type_info.o) (__cxxabiv1::__class_type_info::__do_upcast(__cxxabiv1::__class_type_info const*, void**) const)
c:/progra~2/codesourcery/source~1/bin/../lib/gcc/arm-none-eabi/4.6.1/../../../../arm-none-eabi/lib/thumb2\libstdc++.a(eh_unex_handler.o)
                              c:/progra~2/codesourcery/source~1/bin/../lib/gcc/arm-none-eabi/4.6.1/../../../../arm-none-eabi/lib/thumb2\libstdc++.a(eh_terminate.o) (__cxxabiv1::__unexpected_handler)
c:/progra~2/codesourcery/source~1/bin/../lib/gcc/arm-none-eabi/4.6.1/../../../../arm-none-eabi/lib/thumb2\libstdc++.a(eh_call.o)
                              c:/progra~2/codesourcery/source~1/bin/../lib/gcc/arm-none-eabi/4.6.1/../../../../arm-none-eabi/lib/thumb2\libstdc++.a(eh_terminate.o) (__cxa_call_unexpected)
c:/progra~2/codesourcery/source~1/bin/../lib/gcc/arm-none-eabi/4.6.1/../../../../arm-none-eabi/lib/thumb2\libstdc++.a(eh_throw.o)
                              c:/progra~2/codesourcery/source~1/bin/../lib/gcc/arm-none-eabi/4.6.1/../../../../arm-none-eabi/lib/thumb2\libstdc++.a(eh_call.o) (__cxa_throw)
c:/progra~2/codesourcery/source~1/bin/../lib/gcc/arm-none-eabi/4.6.1/../../../../arm-none-eabi/lib/thumb2\libstdc++.a(eh_arm.o)
                              c:/progra~2/codesourcery/source~1/bin/../lib/gcc/arm-none-eabi/4.6.1/../../../../arm-none-eabi/lib/thumb2\libstdc++.a(eh_terminate.o) (__cxa_end_cleanup)
c:/progra~2/codesourcery/source~1/bin/../lib/gcc/arm-none-eabi/4.6.1/../../../../arm-none-eabi/lib/thumb2\libstdc++.a(eh_exception.o)
                              c:/progra~2/codesourcery/source~1/bin/../lib/gcc/arm-none-eabi/4.6.1/../../../../arm-none-eabi/lib/thumb2\libstdc++.a(eh_call.o) (typeinfo for std::bad_exception)
c:/progra~2/codesourcery/source~1/bin/../lib/gcc/arm-none-eabi/4.6.1/../../../../arm-none-eabi/lib/thumb2\libstdc++.a(eh_alloc.o)
                              c:/progra~2/codesourcery/source~1/bin/../lib/gcc/arm-none-eabi/4.6.1/../../../../arm-none-eabi/lib/thumb2\libstdc++.a(eh_call.o) (__cxa_allocate_exception)
c:/progra~2/codesourcery/source~1/bin/../lib/gcc/arm-none-eabi/4.6.1/../../../../arm-none-eabi/lib/thumb2\libstdc++.a(eh_globals.o)
                              c:/progra~2/codesourcery/source~1/bin/../lib/gcc/arm-none-eabi/4.6.1/../../../../arm-none-eabi/lib/thumb2\libstdc++.a(eh_call.o) (__cxa_get_globals_fast)
c:/progra~2/codesourcery/source~1/bin/../lib/gcc/arm-none-eabi/4.6.1/../../../../arm-none-eabi/lib/thumb2\libstdc++.a(tinfo.o)
                              c:/progra~2/codesourcery/source~1/bin/../lib/gcc/arm-none-eabi/4.6.1/../../../../arm-none-eabi/lib/thumb2\libstdc++.a(class_type_info.o) (std::type_info::~type_info())
c:/progra~2/codesourcery/source~1/bin/../lib/gcc/arm-none-eabi/4.6.1/../../../../arm-none-eabi/lib/thumb2\libstdc++.a(eh_personality.o)
                              c:/progra~2/codesourcery/source~1/bin/../lib/gcc/arm-none-eabi/4.6.1/../../../../arm-none-eabi/lib/thumb2\libstdc++.a(eh_terminate.o) (__gxx_personality_v0)
c:/progra~2/codesourcery/source~1/bin/../lib/gcc/arm-none-eabi/4.6.1/../../../../arm-none-eabi/lib/thumb2\libstdc++.a(eh_term_handler.o)
                              c:/progra~2/codesourcery/source~1/bin/../lib/gcc/arm-none-eabi/4.6.1/../../../../arm-none-eabi/lib/thumb2\libstdc++.a(eh_terminate.o) (__cxxabiv1::__terminate_handler)
c:/progra~2/codesourcery/source~1/bin/../lib/gcc/arm-none-eabi/4.6.1/../../../../arm-none-eabi/lib/thumb2\libstdc++.a(eh_catch.o)
                              c:/progra~2/codesourcery/source~1/bin/../lib/gcc/arm-none-eabi/4.6.1/../../../../arm-none-eabi/lib/thumb2\libstdc++.a(eh_terminate.o) (__cxa_begin_catch)
c:/progra~2/codesourcery/source~1/bin/../lib/gcc/arm-none-eabi/4.6.1/../../../../arm-none-eabi/lib/thumb2\libstdc++.a(vterminate.o)
                              c:/progra~2/codesourcery/source~1/bin/../lib/gcc/arm-none-eabi/4.6.1/../../../../arm-none-eabi/lib/thumb2\libstdc++.a(eh_term_handler.o) (__gnu_cxx::__verbose_terminate_handler())
c:/progra~2/codesourcery/source~1/bin/../lib/gcc/arm-none-eabi/4.6.1/../../../../arm-none-eabi/lib/thumb2\libstdc++.a(cp-demangle.o)
                              c:/progra~2/codesourcery/source~1/bin/../lib/gcc/arm-none-eabi/4.6.1/../../../../arm-none-eabi/lib/thumb2\libstdc++.a(vterminate.o) (__cxa_demangle)
c:/progra~2/codesourcery/source~1/bin/../lib/gcc/arm-none-eabi/4.6.1/../../../../arm-none-eabi/lib/thumb2\libstdc++.a(eh_type.o)
                              c:/progra~2/codesourcery/source~1/bin/../lib/gcc/arm-none-eabi/4.6.1/../../../../arm-none-eabi/lib/thumb2\libstdc++.a(vterminate.o) (__cxa_current_exception_type)
c:/progra~2/codesourcery/source~1/bin/../lib/gcc/arm-none-eabi/4.6.1/thumb2\libgcc.a(_arm_addsubsf3.o)
                              build\PID.o (__aeabi_fsub)
c:/progra~2/codesourcery/source~1/bin/../lib/gcc/arm-none-eabi/4.6.1/thumb2\libgcc.a(_arm_muldivsf3.o)
                              build\PID.o (__aeabi_fmul)
c:/progra~2/codesourcery/source~1/bin/../lib/gcc/arm-none-eabi/4.6.1/thumb2\libgcc.a(_arm_fixsfsi.o)
                              build\PID.o (__aeabi_f2iz)
c:/progra~2/codesourcery/source~1/bin/../lib/gcc/arm-none-eabi/4.6.1/thumb2\libgcc.a(_aeabi_uldivmod.o)
                              build\lib\source\lpc17xx_timer.o (__aeabi_uldivmod)
c:/progra~2/codesourcery/source~1/bin/../lib/gcc/arm-none-eabi/4.6.1/thumb2\libgcc.a(bpabi.o)
                              c:/progra~2/codesourcery/source~1/bin/../lib/gcc/arm-none-eabi/4.6.1/thumb2\libgcc.a(_aeabi_uldivmod.o) (__gnu_uldivmod_helper)
c:/progra~2/codesourcery/source~1/bin/../lib/gcc/arm-none-eabi/4.6.1/thumb2\libgcc.a(unwind-arm.o)
                              build\Command.o (__aeabi_unwind_cpp_pr0)
c:/progra~2/codesourcery/source~1/bin/../lib/gcc/arm-none-eabi/4.6.1/thumb2\libgcc.a(libunwind.o)
                              c:/progra~2/codesourcery/source~1/bin/../lib/gcc/arm-none-eabi/4.6.1/thumb2\libgcc.a(unwind-arm.o) (restore_core_regs)
c:/progra~2/codesourcery/source~1/bin/../lib/gcc/arm-none-eabi/4.6.1/thumb2\libgcc.a(pr-support.o)
                              c:/progra~2/codesourcery/source~1/bin/../lib/gcc/arm-none-eabi/4.6.1/thumb2\libgcc.a(unwind-arm.o) (__gnu_unwind_execute)
c:/progra~2/codesourcery/source~1/bin/../lib/gcc/arm-none-eabi/4.6.1/thumb2\libgcc.a(_dvmd_tls.o)
                              c:/progra~2/codesourcery/source~1/bin/../lib/gcc/arm-none-eabi/4.6.1/thumb2\libgcc.a(_aeabi_uldivmod.o) (__aeabi_ldiv0)
c:/progra~2/codesourcery/source~1/bin/../lib/gcc/arm-none-eabi/4.6.1/thumb2\libgcc.a(_divdi3.o)
                              c:/progra~2/codesourcery/source~1/bin/../lib/gcc/arm-none-eabi/4.6.1/thumb2\libgcc.a(bpabi.o) (__divdi3)
c:/progra~2/codesourcery/source~1/bin/../lib/gcc/arm-none-eabi/4.6.1/thumb2\libgcc.a(_udivdi3.o)
                              c:/progra~2/codesourcery/source~1/bin/../lib/gcc/arm-none-eabi/4.6.1/thumb2\libgcc.a(bpabi.o) (__udivdi3)
c:/progra~2/codesourcery/source~1/bin/../lib/gcc/arm-none-eabi/4.6.1/thumb2\libgcc.a(_udivsi3.o)
                              c:/progra~2/codesourcery/source~1/bin/../lib/gcc/arm-none-eabi/4.6.1/thumb2\libgcc.a(_divdi3.o) (__aeabi_uidiv)
c:/progra~2/codesourcery/source~1/bin/../lib/gcc/arm-none-eabi/4.6.1/../../../../arm-none-eabi/lib/thumb2\libc.a(lib_a-abort.o)
                              build\system\syscalls.o (abort)
c:/progra~2/codesourcery/source~1/bin/../lib/gcc/arm-none-eabi/4.6.1/../../../../arm-none-eabi/lib/thumb2\libc.a(lib_a-fputc.o)
                              c:/progra~2/codesourcery/source~1/bin/../lib/gcc/arm-none-eabi/4.6.1/../../../../arm-none-eabi/lib/thumb2\libstdc++.a(vterminate.o) (fputc)
c:/progra~2/codesourcery/source~1/bin/../lib/gcc/arm-none-eabi/4.6.1/../../../../arm-none-eabi/lib/thumb2\libc.a(lib_a-fputs.o)
                              c:/progra~2/codesourcery/source~1/bin/../lib/gcc/arm-none-eabi/4.6.1/../../../../arm-none-eabi/lib/thumb2\libstdc++.a(vterminate.o) (fputs)
c:/progra~2/codesourcery/source~1/bin/../lib/gcc/arm-none-eabi/4.6.1/../../../../arm-none-eabi/lib/thumb2\libc.a(lib_a-fvwrite.o)
                              c:/progra~2/codesourcery/source~1/bin/../lib/gcc/arm-none-eabi/4.6.1/../../../../arm-none-eabi/lib/thumb2\libc.a(lib_a-fputs.o) (__sfvwrite_r)
c:/progra~2/codesourcery/source~1/bin/../lib/gcc/arm-none-eabi/4.6.1/../../../../arm-none-eabi/lib/thumb2\libc.a(lib_a-fwrite.o)
                              c:/progra~2/codesourcery/source~1/bin/../lib/gcc/arm-none-eabi/4.6.1/../../../../arm-none-eabi/lib/thumb2\libstdc++.a(vterminate.o) (fwrite)
c:/progra~2/codesourcery/source~1/bin/../lib/gcc/arm-none-eabi/4.6.1/../../../../arm-none-eabi/lib/thumb2\libc.a(lib_a-impure.o)
                              c:/progra~2/codesourcery/source~1/bin/../lib/gcc/arm-none-eabi/4.6.1/../../../../arm-none-eabi/lib/thumb2\libstdc++.a(vterminate.o) (_impure_ptr)
c:/progra~2/codesourcery/source~1/bin/../lib/gcc/arm-none-eabi/4.6.1/../../../../arm-none-eabi/lib/thumb2\libc.a(lib_a-init.o)
                              build\system\startup_LPC17xx.o (__libc_init_array)
c:/progra~2/codesourcery/source~1/bin/../lib/gcc/arm-none-eabi/4.6.1/../../../../arm-none-eabi/lib/thumb2\libc.a(lib_a-malloc.o)
                              build\system\mini_cpp.o (malloc)
c:/progra~2/codesourcery/source~1/bin/../lib/gcc/arm-none-eabi/4.6.1/../../../../arm-none-eabi/lib/thumb2\libc.a(lib_a-mallocr.o)
                              c:/progra~2/codesourcery/source~1/bin/../lib/gcc/arm-none-eabi/4.6.1/../../../../arm-none-eabi/lib/thumb2\libc.a(lib_a-fvwrite.o) (_malloc_r)
c:/progra~2/codesourcery/source~1/bin/../lib/gcc/arm-none-eabi/4.6.1/../../../../arm-none-eabi/lib/thumb2\libc.a(lib_a-memchr.o)
                              c:/progra~2/codesourcery/source~1/bin/../lib/gcc/arm-none-eabi/4.6.1/../../../../arm-none-eabi/lib/thumb2\libc.a(lib_a-fvwrite.o) (memchr)
c:/progra~2/codesourcery/source~1/bin/../lib/gcc/arm-none-eabi/4.6.1/../../../../arm-none-eabi/lib/thumb2\libc.a(lib_a-memcmp.o)
                              c:/progra~2/codesourcery/source~1/bin/../lib/gcc/arm-none-eabi/4.6.1/../../../../arm-none-eabi/lib/thumb2\libstdc++.a(cp-demangle.o) (memcmp)
c:/progra~2/codesourcery/source~1/bin/../lib/gcc/arm-none-eabi/4.6.1/../../../../arm-none-eabi/lib/thumb2\libc.a(lib_a-memcpy.o)
                              build\lib_sd\fat.o (memcpy)
c:/progra~2/codesourcery/source~1/bin/../lib/gcc/arm-none-eabi/4.6.1/../../../../arm-none-eabi/lib/thumb2\libc.a(lib_a-memmove.o)
                              c:/progra~2/codesourcery/source~1/bin/../lib/gcc/arm-none-eabi/4.6.1/../../../../arm-none-eabi/lib/thumb2\libc.a(lib_a-fvwrite.o) (memmove)
c:/progra~2/codesourcery/source~1/bin/../lib/gcc/arm-none-eabi/4.6.1/../../../../arm-none-eabi/lib/thumb2\libc.a(lib_a-memset.o)
                              build\lib_sd\fat.o (memset)
c:/progra~2/codesourcery/source~1/bin/../lib/gcc/arm-none-eabi/4.6.1/../../../../arm-none-eabi/lib/thumb2\libc.a(lib_a-mlock.o)
                              c:/progra~2/codesourcery/source~1/bin/../lib/gcc/arm-none-eabi/4.6.1/../../../../arm-none-eabi/lib/thumb2\libc.a(lib_a-mallocr.o) (__malloc_lock)
c:/progra~2/codesourcery/source~1/bin/../lib/gcc/arm-none-eabi/4.6.1/../../../../arm-none-eabi/lib/thumb2\libc.a(lib_a-putc.o)
                              c:/progra~2/codesourcery/source~1/bin/../lib/gcc/arm-none-eabi/4.6.1/../../../../arm-none-eabi/lib/thumb2\libc.a(lib_a-fputc.o) (_putc_r)
c:/progra~2/codesourcery/source~1/bin/../lib/gcc/arm-none-eabi/4.6.1/../../../../arm-none-eabi/lib/thumb2\libc.a(lib_a-rand.o)
                              build\Menu.o (rand)
c:/progra~2/codesourcery/source~1/bin/../lib/gcc/arm-none-eabi/4.6.1/../../../../arm-none-eabi/lib/thumb2\libc.a(lib_a-realloc.o)
                              c:/progra~2/codesourcery/source~1/bin/../lib/gcc/arm-none-eabi/4.6.1/../../../../arm-none-eabi/lib/thumb2\libstdc++.a(cp-demangle.o) (realloc)
c:/progra~2/codesourcery/source~1/bin/../lib/gcc/arm-none-eabi/4.6.1/../../../../arm-none-eabi/lib/thumb2\libc.a(lib_a-reallocr.o)
                              c:/progra~2/codesourcery/source~1/bin/../lib/gcc/arm-none-eabi/4.6.1/../../../../arm-none-eabi/lib/thumb2\libc.a(lib_a-fvwrite.o) (_realloc_r)
c:/progra~2/codesourcery/source~1/bin/../lib/gcc/arm-none-eabi/4.6.1/../../../../arm-none-eabi/lib/thumb2\libc.a(lib_a-reent.o)
                              build\system\syscalls.o (errno)
c:/progra~2/codesourcery/source~1/bin/../lib/gcc/arm-none-eabi/4.6.1/../../../../arm-none-eabi/lib/thumb2\libc.a(lib_a-sbrkr.o)
                              c:/progra~2/codesourcery/source~1/bin/../lib/gcc/arm-none-eabi/4.6.1/../../../../arm-none-eabi/lib/thumb2\libc.a(lib_a-mallocr.o) (_sbrk_r)
c:/progra~2/codesourcery/source~1/bin/../lib/gcc/arm-none-eabi/4.6.1/../../../../arm-none-eabi/lib/thumb2\libc.a(lib_a-signal.o)
                              c:/progra~2/codesourcery/source~1/bin/../lib/gcc/arm-none-eabi/4.6.1/../../../../arm-none-eabi/lib/thumb2\libc.a(lib_a-abort.o) (raise)
c:/progra~2/codesourcery/source~1/bin/../lib/gcc/arm-none-eabi/4.6.1/../../../../arm-none-eabi/lib/thumb2\libc.a(lib_a-signalr.o)
                              c:/progra~2/codesourcery/source~1/bin/../lib/gcc/arm-none-eabi/4.6.1/../../../../arm-none-eabi/lib/thumb2\libc.a(lib_a-signal.o) (_kill_r)
c:/progra~2/codesourcery/source~1/bin/../lib/gcc/arm-none-eabi/4.6.1/../../../../arm-none-eabi/lib/thumb2\libc.a(lib_a-sprintf.o)
                              c:/progra~2/codesourcery/source~1/bin/../lib/gcc/arm-none-eabi/4.6.1/../../../../arm-none-eabi/lib/thumb2\libstdc++.a(cp-demangle.o) (sprintf)
c:/progra~2/codesourcery/source~1/bin/../lib/gcc/arm-none-eabi/4.6.1/../../../../arm-none-eabi/lib/thumb2\libc.a(lib_a-strchr.o)
                              build\lib_sd\fat.o (strchr)
c:/progra~2/codesourcery/source~1/bin/../lib/gcc/arm-none-eabi/4.6.1/../../../../arm-none-eabi/lib/thumb2\libc.a(lib_a-strcmp.o)
                              build\lib_sd\fat.o (strcmp)
c:/progra~2/codesourcery/source~1/bin/../lib/gcc/arm-none-eabi/4.6.1/../../../../arm-none-eabi/lib/thumb2\libc.a(lib_a-strcpy.o)
                              c:/progra~2/codesourcery/source~1/bin/../lib/gcc/arm-none-eabi/4.6.1/../../../../arm-none-eabi/lib/thumb2\libstdc++.a(cp-demangle.o) (strcpy)
c:/progra~2/codesourcery/source~1/bin/../lib/gcc/arm-none-eabi/4.6.1/../../../../arm-none-eabi/lib/thumb2\libc.a(lib_a-strlen.o)
                              build\lib_sd\fat.o (strlen)
c:/progra~2/codesourcery/source~1/bin/../lib/gcc/arm-none-eabi/4.6.1/../../../../arm-none-eabi/lib/thumb2\libc.a(lib_a-strncmp.o)
                              build\lib_sd\fat.o (strncmp)
c:/progra~2/codesourcery/source~1/bin/../lib/gcc/arm-none-eabi/4.6.1/../../../../arm-none-eabi/lib/thumb2\libc.a(lib_a-strncpy.o)
                              build\lib_sd\fat.o (strncpy)
c:/progra~2/codesourcery/source~1/bin/../lib/gcc/arm-none-eabi/4.6.1/../../../../arm-none-eabi/lib/thumb2\libc.a(lib_a-strrchr.o)
                              build\lib_sd\fat.o (strrchr)
c:/progra~2/codesourcery/source~1/bin/../lib/gcc/arm-none-eabi/4.6.1/../../../../arm-none-eabi/lib/thumb2\libc.a(lib_a-svfprintf.o)
                              c:/progra~2/codesourcery/source~1/bin/../lib/gcc/arm-none-eabi/4.6.1/../../../../arm-none-eabi/lib/thumb2\libc.a(lib_a-sprintf.o) (_svfprintf_r)
c:/progra~2/codesourcery/source~1/bin/../lib/gcc/arm-none-eabi/4.6.1/../../../../arm-none-eabi/lib/thumb2\libc.a(lib_a-syswrite.o)
                              c:/progra~2/codesourcery/source~1/bin/../lib/gcc/arm-none-eabi/4.6.1/../../../../arm-none-eabi/lib/thumb2\libstdc++.a(pure.o) (write)
c:/progra~2/codesourcery/source~1/bin/../lib/gcc/arm-none-eabi/4.6.1/../../../../arm-none-eabi/lib/thumb2\libc.a(lib_a-wbuf.o)
                              c:/progra~2/codesourcery/source~1/bin/../lib/gcc/arm-none-eabi/4.6.1/../../../../arm-none-eabi/lib/thumb2\libc.a(lib_a-putc.o) (__swbuf_r)
c:/progra~2/codesourcery/source~1/bin/../lib/gcc/arm-none-eabi/4.6.1/../../../../arm-none-eabi/lib/thumb2\libc.a(lib_a-writer.o)
                              c:/progra~2/codesourcery/source~1/bin/../lib/gcc/arm-none-eabi/4.6.1/../../../../arm-none-eabi/lib/thumb2\libc.a(lib_a-syswrite.o) (_write_r)
c:/progra~2/codesourcery/source~1/bin/../lib/gcc/arm-none-eabi/4.6.1/../../../../arm-none-eabi/lib/thumb2\libc.a(lib_a-wsetup.o)
                              c:/progra~2/codesourcery/source~1/bin/../lib/gcc/arm-none-eabi/4.6.1/../../../../arm-none-eabi/lib/thumb2\libc.a(lib_a-fvwrite.o) (__swsetup_r)
c:/progra~2/codesourcery/source~1/bin/../lib/gcc/arm-none-eabi/4.6.1/../../../../arm-none-eabi/lib/thumb2\libc.a(lib_a-dtoa.o)
                              c:/progra~2/codesourcery/source~1/bin/../lib/gcc/arm-none-eabi/4.6.1/../../../../arm-none-eabi/lib/thumb2\libc.a(lib_a-svfprintf.o) (_dtoa_r)
c:/progra~2/codesourcery/source~1/bin/../lib/gcc/arm-none-eabi/4.6.1/../../../../arm-none-eabi/lib/thumb2\libc.a(lib_a-fflush.o)
                              c:/progra~2/codesourcery/source~1/bin/../lib/gcc/arm-none-eabi/4.6.1/../../../../arm-none-eabi/lib/thumb2\libc.a(lib_a-fvwrite.o) (_fflush_r)
c:/progra~2/codesourcery/source~1/bin/../lib/gcc/arm-none-eabi/4.6.1/../../../../arm-none-eabi/lib/thumb2\libc.a(lib_a-findfp.o)
                              c:/progra~2/codesourcery/source~1/bin/../lib/gcc/arm-none-eabi/4.6.1/../../../../arm-none-eabi/lib/thumb2\libc.a(lib_a-fputc.o) (__sinit)
c:/progra~2/codesourcery/source~1/bin/../lib/gcc/arm-none-eabi/4.6.1/../../../../arm-none-eabi/lib/thumb2\libc.a(lib_a-freer.o)
                              c:/progra~2/codesourcery/source~1/bin/../lib/gcc/arm-none-eabi/4.6.1/../../../../arm-none-eabi/lib/thumb2\libc.a(lib_a-fvwrite.o) (_free_r)
c:/progra~2/codesourcery/source~1/bin/../lib/gcc/arm-none-eabi/4.6.1/../../../../arm-none-eabi/lib/thumb2\libc.a(lib_a-fwalk.o)
                              c:/progra~2/codesourcery/source~1/bin/../lib/gcc/arm-none-eabi/4.6.1/../../../../arm-none-eabi/lib/thumb2\libc.a(lib_a-findfp.o) (_fwalk)
c:/progra~2/codesourcery/source~1/bin/../lib/gcc/arm-none-eabi/4.6.1/../../../../arm-none-eabi/lib/thumb2\libc.a(lib_a-locale.o)
                              c:/progra~2/codesourcery/source~1/bin/../lib/gcc/arm-none-eabi/4.6.1/../../../../arm-none-eabi/lib/thumb2\libc.a(lib_a-svfprintf.o) (_localeconv_r)
c:/progra~2/codesourcery/source~1/bin/../lib/gcc/arm-none-eabi/4.6.1/../../../../arm-none-eabi/lib/thumb2\libc.a(lib_a-makebuf.o)
                              c:/progra~2/codesourcery/source~1/bin/../lib/gcc/arm-none-eabi/4.6.1/../../../../arm-none-eabi/lib/thumb2\libc.a(lib_a-wsetup.o) (__smakebuf_r)
c:/progra~2/codesourcery/source~1/bin/../lib/gcc/arm-none-eabi/4.6.1/../../../../arm-none-eabi/lib/thumb2\libc.a(lib_a-mprec.o)
                              c:/progra~2/codesourcery/source~1/bin/../lib/gcc/arm-none-eabi/4.6.1/../../../../arm-none-eabi/lib/thumb2\libc.a(lib_a-dtoa.o) (_Balloc)
c:/progra~2/codesourcery/source~1/bin/../lib/gcc/arm-none-eabi/4.6.1/../../../../arm-none-eabi/lib/thumb2\libc.a(lib_a-s_fpclassify.o)
                              c:/progra~2/codesourcery/source~1/bin/../lib/gcc/arm-none-eabi/4.6.1/../../../../arm-none-eabi/lib/thumb2\libc.a(lib_a-svfprintf.o) (__fpclassifyd)
c:/progra~2/codesourcery/source~1/bin/../lib/gcc/arm-none-eabi/4.6.1/../../../../arm-none-eabi/lib/thumb2\libc.a(lib_a-stdio.o)
                              c:/progra~2/codesourcery/source~1/bin/../lib/gcc/arm-none-eabi/4.6.1/../../../../arm-none-eabi/lib/thumb2\libc.a(lib_a-findfp.o) (__sread)
c:/progra~2/codesourcery/source~1/bin/../lib/gcc/arm-none-eabi/4.6.1/../../../../arm-none-eabi/lib/thumb2\libc.a(lib_a-svfiprintf.o)
                              c:/progra~2/codesourcery/source~1/bin/../lib/gcc/arm-none-eabi/4.6.1/../../../../arm-none-eabi/lib/thumb2\libc.a(lib_a-svfprintf.o) (__ssprint_r)
c:/progra~2/codesourcery/source~1/bin/../lib/gcc/arm-none-eabi/4.6.1/../../../../arm-none-eabi/lib/thumb2\libc.a(lib_a-callocr.o)
                              c:/progra~2/codesourcery/source~1/bin/../lib/gcc/arm-none-eabi/4.6.1/../../../../arm-none-eabi/lib/thumb2\libc.a(lib_a-mprec.o) (_calloc_r)
c:/progra~2/codesourcery/source~1/bin/../lib/gcc/arm-none-eabi/4.6.1/../../../../arm-none-eabi/lib/thumb2\libc.a(lib_a-closer.o)
                              c:/progra~2/codesourcery/source~1/bin/../lib/gcc/arm-none-eabi/4.6.1/../../../../arm-none-eabi/lib/thumb2\libc.a(lib_a-stdio.o) (_close_r)
c:/progra~2/codesourcery/source~1/bin/../lib/gcc/arm-none-eabi/4.6.1/../../../../arm-none-eabi/lib/thumb2\libc.a(lib_a-fclose.o)
                              c:/progra~2/codesourcery/source~1/bin/../lib/gcc/arm-none-eabi/4.6.1/../../../../arm-none-eabi/lib/thumb2\libc.a(lib_a-findfp.o) (fclose)
c:/progra~2/codesourcery/source~1/bin/../lib/gcc/arm-none-eabi/4.6.1/../../../../arm-none-eabi/lib/thumb2\libc.a(lib_a-fstatr.o)
                              c:/progra~2/codesourcery/source~1/bin/../lib/gcc/arm-none-eabi/4.6.1/../../../../arm-none-eabi/lib/thumb2\libc.a(lib_a-makebuf.o) (_fstat_r)
c:/progra~2/codesourcery/source~1/bin/../lib/gcc/arm-none-eabi/4.6.1/../../../../arm-none-eabi/lib/thumb2\libc.a(lib_a-isattyr.o)
                              c:/progra~2/codesourcery/source~1/bin/../lib/gcc/arm-none-eabi/4.6.1/../../../../arm-none-eabi/lib/thumb2\libc.a(lib_a-makebuf.o) (_isatty_r)
c:/progra~2/codesourcery/source~1/bin/../lib/gcc/arm-none-eabi/4.6.1/../../../../arm-none-eabi/lib/thumb2\libc.a(lib_a-lseekr.o)
                              c:/progra~2/codesourcery/source~1/bin/../lib/gcc/arm-none-eabi/4.6.1/../../../../arm-none-eabi/lib/thumb2\libc.a(lib_a-stdio.o) (_lseek_r)
c:/progra~2/codesourcery/source~1/bin/../lib/gcc/arm-none-eabi/4.6.1/../../../../arm-none-eabi/lib/thumb2\libc.a(lib_a-readr.o)
                              c:/progra~2/codesourcery/source~1/bin/../lib/gcc/arm-none-eabi/4.6.1/../../../../arm-none-eabi/lib/thumb2\libc.a(lib_a-stdio.o) (_read_r)
c:/progra~2/codesourcery/source~1/bin/../lib/gcc/arm-none-eabi/4.6.1/thumb2\libgcc.a(_arm_addsubdf3.o)
                              c:/progra~2/codesourcery/source~1/bin/../lib/gcc/arm-none-eabi/4.6.1/../../../../arm-none-eabi/lib/thumb2\libc.a(lib_a-dtoa.o) (__aeabi_dsub)
c:/progra~2/codesourcery/source~1/bin/../lib/gcc/arm-none-eabi/4.6.1/thumb2\libgcc.a(_arm_muldivdf3.o)
                              c:/progra~2/codesourcery/source~1/bin/../lib/gcc/arm-none-eabi/4.6.1/../../../../arm-none-eabi/lib/thumb2\libc.a(lib_a-dtoa.o) (__aeabi_dmul)
c:/progra~2/codesourcery/source~1/bin/../lib/gcc/arm-none-eabi/4.6.1/thumb2\libgcc.a(_arm_cmpdf2.o)
                              c:/progra~2/codesourcery/source~1/bin/../lib/gcc/arm-none-eabi/4.6.1/../../../../arm-none-eabi/lib/thumb2\libc.a(lib_a-svfprintf.o) (__aeabi_dcmpeq)
c:/progra~2/codesourcery/source~1/bin/../lib/gcc/arm-none-eabi/4.6.1/thumb2\libgcc.a(_arm_fixdfsi.o)
                              c:/progra~2/codesourcery/source~1/bin/../lib/gcc/arm-none-eabi/4.6.1/../../../../arm-none-eabi/lib/thumb2\libc.a(lib_a-dtoa.o) (__aeabi_d2iz)

Allocating common symbols
Common symbol       size              file

errno               0x4               c:/progra~2/codesourcery/source~1/bin/../lib/gcc/arm-none-eabi/4.6.1/../../../../arm-none-eabi/lib/thumb2\libc.a(lib_a-reent.o)

Discarded input sections

 .text          0x00000000        0x0 c:/progra~2/codesourcery/source~1/bin/../lib/gcc/arm-none-eabi/4.6.1/thumb2/crti.o
 .data          0x00000000        0x0 c:/progra~2/codesourcery/source~1/bin/../lib/gcc/arm-none-eabi/4.6.1/thumb2/crti.o
 .bss           0x00000000        0x0 c:/progra~2/codesourcery/source~1/bin/../lib/gcc/arm-none-eabi/4.6.1/thumb2/crti.o
 .data          0x00000000        0x4 c:/progra~2/codesourcery/source~1/bin/../lib/gcc/arm-none-eabi/4.6.1/thumb2/crtbegin.o
 .text          0x00000000        0x0 build\system\core_cm3.o
 .data          0x00000000        0x0 build\system\core_cm3.o
 .bss           0x00000000        0x0 build\system\core_cm3.o
 .debug_info    0x00000000       0x70 build\system\core_cm3.o
 .debug_abbrev  0x00000000       0x2c build\system\core_cm3.o
 .debug_line    0x00000000      0x104 build\system\core_cm3.o
 .debug_macinfo
                0x00000000     0x2b8d build\system\core_cm3.o
 .debug_str     0x00000000       0xc9 build\system\core_cm3.o
 .comment       0x00000000       0x31 build\system\core_cm3.o
 .ARM.attributes
                0x00000000       0x33 build\system\core_cm3.o
 .data          0x00000000        0x0 build\system\startup_LPC17xx.o
 .bss           0x00000000        0x0 build\system\startup_LPC17xx.o
 .data          0x00000000        0x0 build\system\syscalls.o
 .bss           0x00000000        0x0 build\system\system_LPC17xx.o
 .data          0x00000000        0x0 build\system\mini_cpp.o
 .bss           0x00000000        0x0 build\system\mini_cpp.o
 .ARM.extab     0x00000000        0x0 build\system\mini_cpp.o
 .data          0x00000000        0x0 build\lib\source\Uart32.o
 .bss           0x00000000        0x0 build\lib\source\Uart32.o
 .text          0x00000000      0x56c build\lib\source\lpc17xx_adc.o
 .data          0x00000000        0x0 build\lib\source\lpc17xx_adc.o
 .bss           0x00000000        0x0 build\lib\source\lpc17xx_adc.o
 .rodata        0x00000000       0x20 build\lib\source\lpc17xx_adc.o
 .debug_info    0x00000000      0x613 build\lib\source\lpc17xx_adc.o
 .debug_abbrev  0x00000000      0x13d build\lib\source\lpc17xx_adc.o
 .debug_loc     0x00000000      0x2d8 build\lib\source\lpc17xx_adc.o
 .debug_aranges
                0x00000000       0x20 build\lib\source\lpc17xx_adc.o
 .debug_line    0x00000000      0x333 build\lib\source\lpc17xx_adc.o
 .debug_macinfo
                0x00000000     0x8f75 build\lib\source\lpc17xx_adc.o
 .debug_str     0x00000000      0x494 build\lib\source\lpc17xx_adc.o
 .comment       0x00000000       0x31 build\lib\source\lpc17xx_adc.o
 .ARM.attributes
                0x00000000       0x33 build\lib\source\lpc17xx_adc.o
 .debug_frame   0x00000000      0x1ac build\lib\source\lpc17xx_adc.o
 .data          0x00000000        0x0 build\lib\source\lpc17xx_clkpwr.o
 .bss           0x00000000        0x0 build\lib\source\lpc17xx_clkpwr.o
 .data          0x00000000        0x0 build\lib\source\lpc17xx_gpio.o
 .bss           0x00000000        0x0 build\lib\source\lpc17xx_gpio.o
 .text          0x00000000     0x144c build\lib\source\lpc17xx_i2c.o
 .data          0x00000000        0x0 build\lib\source\lpc17xx_i2c.o
 .bss           0x00000000       0x34 build\lib\source\lpc17xx_i2c.o
 .rodata        0x00000000       0x20 build\lib\source\lpc17xx_i2c.o
 .debug_info    0x00000000      0xdb1 build\lib\source\lpc17xx_i2c.o
 .debug_abbrev  0x00000000      0x1fd build\lib\source\lpc17xx_i2c.o
 .debug_loc     0x00000000      0x508 build\lib\source\lpc17xx_i2c.o
 .debug_aranges
                0x00000000       0x20 build\lib\source\lpc17xx_i2c.o
 .debug_line    0x00000000      0x597 build\lib\source\lpc17xx_i2c.o
 .debug_macinfo
                0x00000000     0x9606 build\lib\source\lpc17xx_i2c.o
 .debug_str     0x00000000      0x841 build\lib\source\lpc17xx_i2c.o
 .comment       0x00000000       0x31 build\lib\source\lpc17xx_i2c.o
 .ARM.attributes
                0x00000000       0x33 build\lib\source\lpc17xx_i2c.o
 .debug_frame   0x00000000      0x2d0 build\lib\source\lpc17xx_i2c.o
 .data          0x00000000        0x0 build\lib\source\lpc17xx_libcfg_default.o
 .bss           0x00000000        0x0 build\lib\source\lpc17xx_libcfg_default.o
 .text          0x00000000      0x158 build\lib\source\lpc17xx_nvic.o
 .data          0x00000000        0x0 build\lib\source\lpc17xx_nvic.o
 .bss           0x00000000        0x0 build\lib\source\lpc17xx_nvic.o
 .debug_info    0x00000000      0x413 build\lib\source\lpc17xx_nvic.o
 .debug_abbrev  0x00000000      0x10b build\lib\source\lpc17xx_nvic.o
 .debug_loc     0x00000000       0xa8 build\lib\source\lpc17xx_nvic.o
 .debug_aranges
                0x00000000       0x20 build\lib\source\lpc17xx_nvic.o
 .debug_line    0x00000000      0x1e9 build\lib\source\lpc17xx_nvic.o
 .debug_macinfo
                0x00000000     0x731d build\lib\source\lpc17xx_nvic.o
 .debug_str     0x00000000      0x1dc build\lib\source\lpc17xx_nvic.o
 .comment       0x00000000       0x31 build\lib\source\lpc17xx_nvic.o
 .ARM.attributes
                0x00000000       0x33 build\lib\source\lpc17xx_nvic.o
 .debug_frame   0x00000000       0x64 build\lib\source\lpc17xx_nvic.o
 .data          0x00000000        0x0 build\lib\source\lpc17xx_pinsel.o
 .bss           0x00000000        0x0 build\lib\source\lpc17xx_pinsel.o
 .data          0x00000000        0x0 build\lib\source\lpc17xx_spi.o
 .bss           0x00000000        0x0 build\lib\source\lpc17xx_spi.o
 .data          0x00000000        0x0 build\lib\source\lpc17xx_timer.o
 .bss           0x00000000        0x0 build\lib\source\lpc17xx_timer.o
 .data          0x00000000        0x0 build\lib\source\lpc17xx_uart.o
 .bss           0x00000000        0x0 build\lib\source\lpc17xx_uart.o
 .text          0x00000000       0xf4 build\lib_sd\byteordering.o
 .data          0x00000000        0x0 build\lib_sd\byteordering.o
 .bss           0x00000000        0x0 build\lib_sd\byteordering.o
 .debug_info    0x00000000      0x156 build\lib_sd\byteordering.o
 .debug_abbrev  0x00000000       0x9d build\lib_sd\byteordering.o
 .debug_loc     0x00000000       0xe0 build\lib_sd\byteordering.o
 .debug_aranges
                0x00000000       0x20 build\lib_sd\byteordering.o
 .debug_line    0x00000000      0x155 build\lib_sd\byteordering.o
 .debug_macinfo
                0x00000000     0x2d41 build\lib_sd\byteordering.o
 .debug_str     0x00000000      0x105 build\lib_sd\byteordering.o
 .comment       0x00000000       0x31 build\lib_sd\byteordering.o
 .ARM.attributes
                0x00000000       0x33 build\lib_sd\byteordering.o
 .debug_frame   0x00000000       0x80 build\lib_sd\byteordering.o
 .data          0x00000000        0x0 build\lib_sd\fat.o
 .data          0x00000000        0x0 build\lib_sd\partition.o
 .data          0x00000000        0x0 build\lib_sd\sd_raw.o
 .data          0x00000000        0x0 build\IAP_internal_flash_write\IAP.o
 .bss           0x00000000        0x0 build\IAP_internal_flash_write\IAP.o
 .data          0x00000000        0x0 build\USBCDC\serial.o
 .data          0x00000000        0x0 build\USBCDC\usbcore.o
 .text          0x00000000        0x0 build\USBCDC\usbdesc.o
 .data          0x00000000        0x0 build\USBCDC\usbdesc.o
 .bss           0x00000000        0x0 build\USBCDC\usbdesc.o
 .data          0x00000000        0x0 build\USBCDC\usbhw.o
 .bss           0x00000000        0x0 build\USBCDC\usbhw.o
 .data          0x00000000        0x0 build\USBCDC\usbuser.o
 .data          0x00000000        0x0 build\USBCDC\vcomdemo.o
 .bss           0x00000000        0x6 build\USBCDC\vcomdemo.o
 .bss           0x00000000        0x0 build\Atomic.o
 .ARM.extab     0x00000000        0x0 build\Atomic.o
 .group         0x00000000       0x10 build\ButtonArray.o
 .data          0x00000000        0x1 build\ButtonArray.o
 .group         0x00000000       0x10 build\Command.o
 .group         0x00000000       0x10 build\Command.o
 .group         0x00000000       0x10 build\Command.o
 .group         0x00000000       0x10 build\Command.o
 .group         0x00000000       0x10 build\Command.o
 .group         0x00000000       0x10 build\Command.o
 .group         0x00000000       0x10 build\Command.o
 .group         0x00000000       0x10 build\Command.o
 .group         0x00000000       0x10 build\Command.o
 .group         0x00000000       0x10 build\Command.o
 .group         0x00000000       0x10 build\Command.o
 .group         0x00000000       0x10 build\Command.o
 .group         0x00000000       0x10 build\Command.o
 .group         0x00000000       0x10 build\Command.o
 .data          0x00000000        0x1 build\Command.o
 .text._ZN10Port_ClassC2Ev
                0x00000000       0x20 build\Command.o
 .ARM.extab.text._ZN10Port_ClassC2Ev
                0x00000000        0x0 build\Command.o
 .ARM.exidx.text._ZN10Port_ClassC2Ev
                0x00000000        0x8 build\Command.o
 .group         0x00000000       0x10 build\DebugPacketProcessor.o
 .group         0x00000000       0x10 build\DebugPacketProcessor.o
 .group         0x00000000       0x10 build\DebugPacketProcessor.o
 .data          0x00000000        0x0 build\DebugPacketProcessor.o
 .text._ZN10Port_ClassC2Ev
                0x00000000       0x20 build\DebugPacketProcessor.o
 .ARM.extab.text._ZN10Port_ClassC2Ev
                0x00000000        0x0 build\DebugPacketProcessor.o
 .ARM.exidx.text._ZN10Port_ClassC2Ev
                0x00000000        0x8 build\DebugPacketProcessor.o
 .data          0x00000000        0x0 build\Delay.o
 .bss           0x00000000        0x0 build\Delay.o
 .ARM.extab     0x00000000        0x0 build\Delay.o
 .group         0x00000000       0x10 build\EepromMap.o
 .bss           0x00000000        0x0 build\EepromMap.o
 .group         0x00000000       0x10 build\Host.o
 .group         0x00000000       0x10 build\Host.o
 .group         0x00000000       0x10 build\Host.o
 .group         0x00000000       0x10 build\Host.o
 .group         0x00000000       0x10 build\Host.o
 .group         0x00000000       0x10 build\Host.o
 .group         0x00000000       0x10 build\Host.o
 .group         0x00000000       0x10 build\Host.o
 .group         0x00000000       0x10 build\Host.o
 .group         0x00000000       0x10 build\Host.o
 .group         0x00000000       0x10 build\Host.o
 .group         0x00000000       0x10 build\Host.o
 .group         0x00000000       0x10 build\Host.o
 .group         0x00000000       0x10 build\Host.o
 .group         0x00000000       0x10 build\Host.o
 .group         0x00000000       0x10 build\Host.o
 .group         0x00000000       0x10 build\Host.o
 .group         0x00000000       0x10 build\Host.o
 .group         0x00000000       0x10 build\Host.o
 .group         0x00000000       0x10 build\Host.o
 .group         0x00000000       0x10 build\Host.o
 .group         0x00000000       0x10 build\Host.o
 .group         0x00000000       0x10 build\Host.o
 .group         0x00000000       0x10 build\Host.o
 .group         0x00000000       0x10 build\Host.o
 .group         0x00000000       0x10 build\Host.o
 .group         0x00000000       0x10 build\Host.o
 .group         0x00000000       0x10 build\Host.o
 .group         0x00000000       0x10 build\Host.o
 .group         0x00000000       0x10 build\Host.o
 .group         0x00000000       0x10 build\Host.o
 .text._ZNK6Packet9getLengthEv
                0x00000000       0x1c build\Host.o
 .ARM.extab.text._ZNK6Packet9getLengthEv
                0x00000000        0x0 build\Host.o
 .ARM.exidx.text._ZNK6Packet9getLengthEv
                0x00000000        0x8 build\Host.o
 .text._ZNK6Packet8hasErrorEv
                0x00000000       0x28 build\Host.o
 .ARM.extab.text._ZNK6Packet8hasErrorEv
                0x00000000        0x0 build\Host.o
 .ARM.exidx.text._ZNK6Packet8hasErrorEv
                0x00000000        0x8 build\Host.o
 .text._ZN10Port_ClassC2Ev
                0x00000000       0x20 build\Host.o
 .ARM.extab.text._ZN10Port_ClassC2Ev
                0x00000000        0x0 build\Host.o
 .ARM.exidx.text._ZN10Port_ClassC2Ev
                0x00000000        0x8 build\Host.o
 .text._ZNK5PointixEj
                0x00000000       0x20 build\Host.o
 .ARM.extab.text._ZNK5PointixEj
                0x00000000        0x0 build\Host.o
 .ARM.exidx.text._ZNK5PointixEj
                0x00000000        0x8 build\Host.o
 .text._ZN11Motherboard8getBoardEv
                0x00000000       0x14 build\Host.o
 .ARM.extab.text._ZN11Motherboard8getBoardEv
                0x00000000        0x0 build\Host.o
 .ARM.exidx.text._ZN11Motherboard8getBoardEv
                0x00000000        0x8 build\Host.o
 .group         0x00000000       0x10 build\Interface.o
 .group         0x00000000       0x10 build\Interface.o
 .group         0x00000000       0x10 build\Interface.o
 .group         0x00000000       0x10 build\Interface.o
 .group         0x00000000       0x10 build\Interface.o
 .group         0x00000000       0x10 build\Interface.o
 .group         0x00000000       0x10 build\Interface.o
 .group         0x00000000       0x10 build\Interface.o
 .group         0x00000000       0x10 build\Interface.o
 .data          0x00000000        0x0 build\Interface.o
 .text._ZN10Port_ClassC2Ev
                0x00000000       0x20 build\Interface.o
 .ARM.extab.text._ZN10Port_ClassC2Ev
                0x00000000        0x0 build\Interface.o
 .ARM.exidx.text._ZN10Port_ClassC2Ev
                0x00000000        0x8 build\Interface.o
 .group         0x00000000       0x10 build\InterfaceBoard.o
 .group         0x00000000       0x10 build\InterfaceBoard.o
 .group         0x00000000       0x10 build\InterfaceBoard.o
 .group         0x00000000       0x10 build\InterfaceBoard.o
 .group         0x00000000       0x10 build\InterfaceBoard.o
 .data          0x00000000        0x0 build\InterfaceBoard.o
 .text._ZN10Port_ClassC2Ev
                0x00000000       0x20 build\InterfaceBoard.o
 .ARM.extab.text._ZN10Port_ClassC2Ev
                0x00000000        0x0 build\InterfaceBoard.o
 .ARM.exidx.text._ZN10Port_ClassC2Ev
                0x00000000        0x8 build\InterfaceBoard.o
 .text._ZN10Port_Class15setPinDirectionEhb
                0x00000000       0x74 build\InterfaceBoard.o
 .ARM.extab.text._ZN10Port_Class15setPinDirectionEhb
                0x00000000        0xc build\InterfaceBoard.o
 .ARM.exidx.text._ZN10Port_Class15setPinDirectionEhb
                0x00000000        0x8 build\InterfaceBoard.o
 .text._ZN10Port_Class6setPinEhb
                0x00000000       0x4c build\InterfaceBoard.o
 .ARM.extab.text._ZN10Port_Class6setPinEhb
                0x00000000        0xc build\InterfaceBoard.o
 .ARM.exidx.text._ZN10Port_Class6setPinEhb
                0x00000000        0x8 build\InterfaceBoard.o
 .text._ZN3Pin12setDirectionEb
                0x00000000       0x28 build\InterfaceBoard.o
 .ARM.extab.text._ZN3Pin12setDirectionEb
                0x00000000        0xc build\InterfaceBoard.o
 .ARM.exidx.text._ZN3Pin12setDirectionEb
                0x00000000        0x8 build\InterfaceBoard.o
 .text._ZN3Pin8setValueEb
                0x00000000       0x28 build\InterfaceBoard.o
 .ARM.extab.text._ZN3Pin8setValueEb
                0x00000000        0xc build\InterfaceBoard.o
 .ARM.exidx.text._ZN3Pin8setValueEb
                0x00000000        0x8 build\InterfaceBoard.o
 .rodata        0x00000000        0x8 build\InterfaceBoard.o
 .text          0x00000000        0x0 build\LPCPort.o
 .data          0x00000000        0x0 build\LPCPort.o
 .bss           0x00000000        0x0 build\LPCPort.o
 .debug_info    0x00000000       0x29 build\LPCPort.o
 .debug_abbrev  0x00000000       0x16 build\LPCPort.o
 .debug_line    0x00000000       0x31 build\LPCPort.o
 .debug_macinfo
                0x00000000     0x2324 build\LPCPort.o
 .debug_str     0x00000000       0x40 build\LPCPort.o
 .comment       0x00000000       0x31 build\LPCPort.o
 .ARM.attributes
                0x00000000       0x33 build\LPCPort.o
 .group         0x00000000       0x10 build\LiquidCrystal.o
 .group         0x00000000       0x10 build\LiquidCrystal.o
 .group         0x00000000       0x10 build\LiquidCrystal.o
 .group         0x00000000       0x10 build\LiquidCrystal.o
 .group         0x00000000       0x10 build\LiquidCrystal.o
 .group         0x00000000       0x10 build\LiquidCrystal.o
 .group         0x00000000       0x10 build\LiquidCrystal.o
 .group         0x00000000       0x10 build\LiquidCrystal.o
 .group         0x00000000       0x10 build\LiquidCrystal.o
 .group         0x00000000       0x10 build\LiquidCrystal.o
 .group         0x00000000       0x10 build\LiquidCrystal.o
 .group         0x00000000        0x8 build\LiquidCrystal.o
 .group         0x00000000        0x8 build\LiquidCrystal.o
 .group         0x00000000        0x8 build\LiquidCrystal.o
 .data          0x00000000        0x0 build\LiquidCrystal.o
 .bss           0x00000000        0x4 build\LiquidCrystal.o
 .text._ZN10Port_ClassC2Ev
                0x00000000       0x20 build\LiquidCrystal.o
 .ARM.extab.text._ZN10Port_ClassC2Ev
                0x00000000        0x0 build\LiquidCrystal.o
 .ARM.exidx.text._ZN10Port_ClassC2Ev
                0x00000000        0x8 build\LiquidCrystal.o
 .text._ZN10Port_ClassC2E8portname
                0x00000000       0x20 build\LiquidCrystal.o
 .ARM.extab.text._ZN10Port_ClassC2E8portname
                0x00000000        0x0 build\LiquidCrystal.o
 .ARM.exidx.text._ZN10Port_ClassC2E8portname
                0x00000000        0x8 build\LiquidCrystal.o
 .text._ZN10Port_Class15setPinDirectionEhb
                0x00000000       0x74 build\LiquidCrystal.o
 .ARM.extab.text._ZN10Port_Class15setPinDirectionEhb
                0x00000000        0xc build\LiquidCrystal.o
 .ARM.exidx.text._ZN10Port_Class15setPinDirectionEhb
                0x00000000        0x8 build\LiquidCrystal.o
 .text._ZN10Port_Class6setPinEhb
                0x00000000       0x4c build\LiquidCrystal.o
 .ARM.extab.text._ZN10Port_Class6setPinEhb
                0x00000000        0xc build\LiquidCrystal.o
 .ARM.exidx.text._ZN10Port_Class6setPinEhb
                0x00000000        0x8 build\LiquidCrystal.o
 .text._ZN3Pin12setDirectionEb
                0x00000000       0x28 build\LiquidCrystal.o
 .ARM.extab.text._ZN3Pin12setDirectionEb
                0x00000000        0xc build\LiquidCrystal.o
 .ARM.exidx.text._ZN3Pin12setDirectionEb
                0x00000000        0x8 build\LiquidCrystal.o
 .text._ZN3Pin8setValueEb
                0x00000000       0x28 build\LiquidCrystal.o
 .ARM.extab.text._ZN3Pin8setValueEb
                0x00000000        0xc build\LiquidCrystal.o
 .ARM.exidx.text._ZN3Pin8setValueEb
                0x00000000        0x8 build\LiquidCrystal.o
 .group         0x00000000       0x10 build\Main.o
 .group         0x00000000       0x10 build\Main.o
 .group         0x00000000       0x10 build\Main.o
 .group         0x00000000       0x10 build\Main.o
 .group         0x00000000       0x10 build\Main.o
 .group         0x00000000       0x10 build\Main.o
 .group         0x00000000       0x10 build\Main.o
 .group         0x00000000       0x10 build\Main.o
 .data          0x00000000        0x1 build\Main.o
 .bss           0x00000000        0x4 build\Main.o
 .text._ZN10Port_ClassC2Ev
                0x00000000       0x20 build\Main.o
 .ARM.extab.text._ZN10Port_ClassC2Ev
                0x00000000        0x0 build\Main.o
 .ARM.exidx.text._ZN10Port_ClassC2Ev
                0x00000000        0x8 build\Main.o
 .text._ZN10Port_ClassC2E8portname
                0x00000000       0x20 build\Main.o
 .ARM.extab.text._ZN10Port_ClassC2E8portname
                0x00000000        0x0 build\Main.o
 .ARM.exidx.text._ZN10Port_ClassC2E8portname
                0x00000000        0x8 build\Main.o
 .text._ZN10Port_Class15setPinDirectionEhb
                0x00000000       0x74 build\Main.o
 .ARM.extab.text._ZN10Port_Class15setPinDirectionEhb
                0x00000000        0xc build\Main.o
 .ARM.exidx.text._ZN10Port_Class15setPinDirectionEhb
                0x00000000        0x8 build\Main.o
 .text._ZN10Port_Class6setPinEhb
                0x00000000       0x4c build\Main.o
 .ARM.extab.text._ZN10Port_Class6setPinEhb
                0x00000000        0xc build\Main.o
 .ARM.exidx.text._ZN10Port_Class6setPinEhb
                0x00000000        0x8 build\Main.o
 .text._ZN3PinC2E8portnameh
                0x00000000       0x30 build\Main.o
 .ARM.extab.text._ZN3PinC2E8portnameh
                0x00000000        0x0 build\Main.o
 .ARM.exidx.text._ZN3PinC2E8portnameh
                0x00000000        0x8 build\Main.o
 .text._ZN3Pin12setDirectionEb
                0x00000000       0x28 build\Main.o
 .ARM.extab.text._ZN3Pin12setDirectionEb
                0x00000000        0xc build\Main.o
 .ARM.exidx.text._ZN3Pin12setDirectionEb
                0x00000000        0x8 build\Main.o
 .text._ZN3Pin8setValueEb
                0x00000000       0x28 build\Main.o
 .ARM.extab.text._ZN3Pin8setValueEb
                0x00000000        0xc build\Main.o
 .ARM.exidx.text._ZN3Pin8setValueEb
                0x00000000        0x8 build\Main.o
 .text._ZN11Motherboard8getBoardEv
                0x00000000       0x14 build\Main.o
 .ARM.extab.text._ZN11Motherboard8getBoardEv
                0x00000000        0x0 build\Main.o
 .ARM.exidx.text._ZN11Motherboard8getBoardEv
                0x00000000        0x8 build\Main.o
 .group         0x00000000       0x10 build\Menu.o
 .group         0x00000000       0x10 build\Menu.o
 .group         0x00000000       0x10 build\Menu.o
 .group         0x00000000       0x10 build\Menu.o
 .group         0x00000000       0x10 build\Menu.o
 .group         0x00000000       0x10 build\Menu.o
 .group         0x00000000       0x10 build\Menu.o
 .group         0x00000000       0x10 build\Menu.o
 .group         0x00000000       0x10 build\Menu.o
 .group         0x00000000       0x10 build\Menu.o
 .group         0x00000000       0x10 build\Menu.o
 .group         0x00000000       0x10 build\Menu.o
 .group         0x00000000       0x10 build\Menu.o
 .group         0x00000000       0x10 build\Menu.o
 .group         0x00000000       0x10 build\Menu.o
 .group         0x00000000        0x8 build\Menu.o
 .group         0x00000000        0x8 build\Menu.o
 .group         0x00000000        0x8 build\Menu.o
 .data          0x00000000        0x0 build\Menu.o
 .bss           0x00000000        0x4 build\Menu.o
 .text._ZN10Port_ClassC2Ev
                0x00000000       0x20 build\Menu.o
 .ARM.extab.text._ZN10Port_ClassC2Ev
                0x00000000        0x0 build\Menu.o
 .ARM.exidx.text._ZN10Port_ClassC2Ev
                0x00000000        0x8 build\Menu.o
 .text._ZN5PointixEj
                0x00000000       0x20 build\Menu.o
 .ARM.extab.text._ZN5PointixEj
                0x00000000        0x0 build\Menu.o
 .ARM.exidx.text._ZN5PointixEj
                0x00000000        0x8 build\Menu.o
 .text._ZNK6Packet9getLengthEv
                0x00000000       0x1c build\Menu.o
 .ARM.extab.text._ZNK6Packet9getLengthEv
                0x00000000        0x0 build\Menu.o
 .ARM.exidx.text._ZNK6Packet9getLengthEv
                0x00000000        0x8 build\Menu.o
 .text._ZNK6Packet12getErrorCodeEv
                0x00000000       0x1c build\Menu.o
 .ARM.extab.text._ZNK6Packet12getErrorCodeEv
                0x00000000        0x0 build\Menu.o
 .ARM.exidx.text._ZNK6Packet12getErrorCodeEv
                0x00000000        0x8 build\Menu.o
 .text          0x00000000      0x108 build\Microsteps.o
 .data          0x00000000        0x4 build\Microsteps.o
 .bss           0x00000000        0x2 build\Microsteps.o
 .ARM.extab     0x00000000        0xc build\Microsteps.o
 .ARM.exidx     0x00000000        0x8 build\Microsteps.o
 .debug_info    0x00000000      0x3f5 build\Microsteps.o
 .debug_abbrev  0x00000000      0x148 build\Microsteps.o
 .debug_loc     0x00000000       0x3a build\Microsteps.o
 .debug_aranges
                0x00000000       0x20 build\Microsteps.o
 .debug_line    0x00000000      0x204 build\Microsteps.o
 .debug_macinfo
                0x00000000     0x8405 build\Microsteps.o
 .debug_str     0x00000000      0x3c6 build\Microsteps.o
 .comment       0x00000000       0x31 build\Microsteps.o
 .ARM.attributes
                0x00000000       0x33 build\Microsteps.o
 .debug_frame   0x00000000       0x30 build\Microsteps.o
 .group         0x00000000       0x10 build\Motherboard.o
 .group         0x00000000       0x10 build\Motherboard.o
 .group         0x00000000       0x10 build\Motherboard.o
 .group         0x00000000       0x10 build\Motherboard.o
 .group         0x00000000       0x10 build\Motherboard.o
 .group         0x00000000       0x10 build\Motherboard.o
 .group         0x00000000       0x10 build\Motherboard.o
 .group         0x00000000       0x10 build\Motherboard.o
 .group         0x00000000       0x10 build\Motherboard.o
 .group         0x00000000       0x10 build\Motherboard.o
 .group         0x00000000       0x10 build\Motherboard.o
 .group         0x00000000       0x10 build\Motherboard.o
 .group         0x00000000       0x10 build\Motherboard.o
 .group         0x00000000        0x8 build\Motherboard.o
 .group         0x00000000        0x8 build\Motherboard.o
 .group         0x00000000        0x8 build\Motherboard.o
 .data          0x00000000        0x0 build\Motherboard.o
 .text._ZN10Port_ClassC2Ev
                0x00000000       0x20 build\Motherboard.o
 .ARM.extab.text._ZN10Port_ClassC2Ev
                0x00000000        0x0 build\Motherboard.o
 .ARM.exidx.text._ZN10Port_ClassC2Ev
                0x00000000        0x8 build\Motherboard.o
 .text._ZN10Port_ClassC2E8portname
                0x00000000       0x20 build\Motherboard.o
 .ARM.extab.text._ZN10Port_ClassC2E8portname
                0x00000000        0x0 build\Motherboard.o
 .ARM.exidx.text._ZN10Port_ClassC2E8portname
                0x00000000        0x8 build\Motherboard.o
 .text._ZN10Port_Class6setPinEhb
                0x00000000       0x4c build\Motherboard.o
 .ARM.extab.text._ZN10Port_Class6setPinEhb
                0x00000000        0xc build\Motherboard.o
 .ARM.exidx.text._ZN10Port_Class6setPinEhb
                0x00000000        0x8 build\Motherboard.o
 .text._ZN3PinC2Ev
                0x00000000       0x2c build\Motherboard.o
 .ARM.extab.text._ZN3PinC2Ev
                0x00000000        0x0 build\Motherboard.o
 .ARM.exidx.text._ZN3PinC2Ev
                0x00000000        0x8 build\Motherboard.o
 .text._ZN3PinC2E8portnameh
                0x00000000       0x30 build\Motherboard.o
 .ARM.extab.text._ZN3PinC2E8portnameh
                0x00000000        0x0 build\Motherboard.o
 .ARM.exidx.text._ZN3PinC2E8portnameh
                0x00000000        0x8 build\Motherboard.o
 .text._ZN3Pin8setValueEb
                0x00000000       0x28 build\Motherboard.o
 .ARM.extab.text._ZN3Pin8setValueEb
                0x00000000        0xc build\Motherboard.o
 .ARM.exidx.text._ZN3Pin8setValueEb
                0x00000000        0x8 build\Motherboard.o
 .text._ZN4UART11getHostUARTEv
                0x00000000       0x14 build\Motherboard.o
 .ARM.extab.text._ZN4UART11getHostUARTEv
                0x00000000        0x0 build\Motherboard.o
 .ARM.exidx.text._ZN4UART11getHostUARTEv
                0x00000000        0x8 build\Motherboard.o
 .text._ZN11Motherboard8getBoardEv
                0x00000000       0x14 build\Motherboard.o
 .ARM.extab.text._ZN11Motherboard8getBoardEv
                0x00000000        0x0 build\Motherboard.o
 .ARM.exidx.text._ZN11Motherboard8getBoardEv
                0x00000000        0x8 build\Motherboard.o
 .text._ZN6ScreenC2Ev
                0x00000000       0x20 build\Motherboard.o
 .ARM.extab.text._ZN6ScreenC2Ev
                0x00000000        0x0 build\Motherboard.o
 .ARM.exidx.text._ZN6ScreenC2Ev
                0x00000000        0x8 build\Motherboard.o
 .text._ZN11MonitorModeC2Ev
                0x00000000       0x34 build\Motherboard.o
 .ARM.extab.text._ZN11MonitorModeC2Ev
                0x00000000        0xc build\Motherboard.o
 .ARM.exidx.text._ZN11MonitorModeC2Ev
                0x00000000        0x8 build\Motherboard.o
 .rodata._ZTV6Screen
                0x00000000       0x18 build\Motherboard.o
 .rodata._ZTS6Screen
                0x00000000        0x8 build\Motherboard.o
 .rodata._ZTI6Screen
                0x00000000        0x8 build\Motherboard.o
 .text          0x00000000      0x284 build\PID.o
 .data          0x00000000        0x0 build\PID.o
 .bss           0x00000000        0x0 build\PID.o
 .ARM.extab     0x00000000        0x0 build\PID.o
 .ARM.exidx     0x00000000       0x38 build\PID.o
 .debug_info    0x00000000      0x441 build\PID.o
 .debug_abbrev  0x00000000      0x16f build\PID.o
 .debug_loc     0x00000000      0x188 build\PID.o
 .debug_aranges
                0x00000000       0x20 build\PID.o
 .debug_line    0x00000000      0x15a build\PID.o
 .debug_macinfo
                0x00000000     0x2c59 build\PID.o
 .debug_str     0x00000000      0x2ab build\PID.o
 .comment       0x00000000       0x31 build\PID.o
 .ARM.attributes
                0x00000000       0x33 build\PID.o
 .debug_frame   0x00000000       0xe4 build\PID.o
 .group         0x00000000       0x10 build\Packet.o
 .group         0x00000000       0x10 build\Packet.o
 .data          0x00000000        0x0 build\Packet.o
 .bss           0x00000000        0x0 build\Packet.o
 .text._ZN6Packet5errorEh
                0x00000000       0x24 build\Packet.o
 .ARM.extab.text._ZN6Packet5errorEh
                0x00000000        0x0 build\Packet.o
 .ARM.exidx.text._ZN6Packet5errorEh
                0x00000000        0x8 build\Packet.o
 .ARM.extab     0x00000000        0x0 build\Packet.o
 .group         0x00000000       0x10 build\SDCard.o
 .group         0x00000000       0x10 build\SDCard.o
 .data          0x00000000        0x0 build\SDCard.o
 .text._ZNK6Packet9getLengthEv
                0x00000000       0x1c build\SDCard.o
 .ARM.extab.text._ZNK6Packet9getLengthEv
                0x00000000        0x0 build\SDCard.o
 .ARM.exidx.text._ZNK6Packet9getLengthEv
                0x00000000        0x8 build\SDCard.o
 .text._ZNK6Packet7getDataEv
                0x00000000       0x1c build\SDCard.o
 .ARM.extab.text._ZNK6Packet7getDataEv
                0x00000000        0x0 build\SDCard.o
 .ARM.exidx.text._ZNK6Packet7getDataEv
                0x00000000        0x8 build\SDCard.o
 .group         0x00000000       0x10 build\StepperAxis.o
 .group         0x00000000       0x10 build\StepperAxis.o
 .data          0x00000000        0x0 build\StepperAxis.o
 .bss           0x00000000        0x4 build\StepperAxis.o
 .text._ZN10Port_ClassC2Ev
                0x00000000       0x20 build\StepperAxis.o
 .ARM.extab.text._ZN10Port_ClassC2Ev
                0x00000000        0x0 build\StepperAxis.o
 .ARM.exidx.text._ZN10Port_ClassC2Ev
                0x00000000        0x8 build\StepperAxis.o
 .group         0x00000000       0x10 build\StepperInterface.o
 .group         0x00000000       0x10 build\StepperInterface.o
 .group         0x00000000       0x10 build\StepperInterface.o
 .group         0x00000000       0x10 build\StepperInterface.o
 .group         0x00000000       0x10 build\StepperInterface.o
 .group         0x00000000       0x10 build\StepperInterface.o
 .group         0x00000000       0x10 build\StepperInterface.o
 .group         0x00000000       0x10 build\StepperInterface.o
 .group         0x00000000       0x10 build\StepperInterface.o
 .data          0x00000000        0x0 build\StepperInterface.o
 .bss           0x00000000        0x4 build\StepperInterface.o
 .text._ZN10Port_ClassC2Ev
                0x00000000       0x20 build\StepperInterface.o
 .ARM.extab.text._ZN10Port_ClassC2Ev
                0x00000000        0x0 build\StepperInterface.o
 .ARM.exidx.text._ZN10Port_ClassC2Ev
                0x00000000        0x8 build\StepperInterface.o
 .text._ZN10Port_Class6isNullEv
                0x00000000       0x24 build\StepperInterface.o
 .ARM.extab.text._ZN10Port_Class6isNullEv
                0x00000000        0x0 build\StepperInterface.o
 .ARM.exidx.text._ZN10Port_Class6isNullEv
                0x00000000        0x8 build\StepperInterface.o
 .text._ZN10Port_Class15setPinDirectionEhb
                0x00000000       0x74 build\StepperInterface.o
 .ARM.extab.text._ZN10Port_Class15setPinDirectionEhb
                0x00000000        0xc build\StepperInterface.o
 .ARM.exidx.text._ZN10Port_Class15setPinDirectionEhb
                0x00000000        0x8 build\StepperInterface.o
 .text._ZN10Port_Class6getPinEh
                0x00000000       0x3c build\StepperInterface.o
 .ARM.extab.text._ZN10Port_Class6getPinEh
                0x00000000        0xc build\StepperInterface.o
 .ARM.exidx.text._ZN10Port_Class6getPinEh
                0x00000000        0x8 build\StepperInterface.o
 .text._ZN10Port_Class6setPinEhb
                0x00000000       0x4c build\StepperInterface.o
 .ARM.extab.text._ZN10Port_Class6setPinEhb
                0x00000000        0xc build\StepperInterface.o
 .ARM.exidx.text._ZN10Port_Class6setPinEhb
                0x00000000        0x8 build\StepperInterface.o
 .text._ZN3Pin6isNullEv
                0x00000000       0x1c build\StepperInterface.o
 .ARM.extab.text._ZN3Pin6isNullEv
                0x00000000        0x0 build\StepperInterface.o
 .ARM.exidx.text._ZN3Pin6isNullEv
                0x00000000        0x8 build\StepperInterface.o
 .text._ZN3Pin12setDirectionEb
                0x00000000       0x28 build\StepperInterface.o
 .ARM.extab.text._ZN3Pin12setDirectionEb
                0x00000000        0xc build\StepperInterface.o
 .ARM.exidx.text._ZN3Pin12setDirectionEb
                0x00000000        0x8 build\StepperInterface.o
 .text._ZN3Pin8getValueEv
                0x00000000       0x24 build\StepperInterface.o
 .ARM.extab.text._ZN3Pin8getValueEv
                0x00000000        0xc build\StepperInterface.o
 .ARM.exidx.text._ZN3Pin8getValueEv
                0x00000000        0x8 build\StepperInterface.o
 .text._ZN3Pin8setValueEb
                0x00000000       0x28 build\StepperInterface.o
 .ARM.extab.text._ZN3Pin8setValueEb
                0x00000000        0xc build\StepperInterface.o
 .ARM.exidx.text._ZN3Pin8setValueEb
                0x00000000        0x8 build\StepperInterface.o
 .group         0x00000000       0x10 build\Steppers.o
 .group         0x00000000       0x10 build\Steppers.o
 .group         0x00000000       0x10 build\Steppers.o
 .group         0x00000000       0x10 build\Steppers.o
 .data          0x00000000        0x0 build\Steppers.o
 .text._ZN10Port_ClassC2Ev
                0x00000000       0x20 build\Steppers.o
 .ARM.extab.text._ZN10Port_ClassC2Ev
                0x00000000        0x0 build\Steppers.o
 .ARM.exidx.text._ZN10Port_ClassC2Ev
                0x00000000        0x8 build\Steppers.o
 .text._ZN5PointC2Elllll
                0x00000000       0x3c build\Steppers.o
 .ARM.extab.text._ZN5PointC2Elllll
                0x00000000        0x0 build\Steppers.o
 .ARM.exidx.text._ZN5PointC2Elllll
                0x00000000        0x8 build\Steppers.o
 .text._ZNK5PointixEj
                0x00000000       0x20 build\Steppers.o
 .ARM.extab.text._ZNK5PointixEj
                0x00000000        0x0 build\Steppers.o
 .ARM.exidx.text._ZNK5PointixEj
                0x00000000        0x8 build\Steppers.o
 .text._ZN11Motherboard19getStepperInterfaceEi
                0x00000000       0x28 build\Steppers.o
 .ARM.extab.text._ZN11Motherboard19getStepperInterfaceEi
                0x00000000        0x0 build\Steppers.o
 .ARM.exidx.text._ZN11Motherboard19getStepperInterfaceEi
                0x00000000        0x8 build\Steppers.o
 .group         0x00000000       0x10 build\Timeout.o
 .group         0x00000000       0x10 build\Timeout.o
 .data          0x00000000        0x0 build\Timeout.o
 .bss           0x00000000        0x4 build\Timeout.o
 .text._ZN10Port_ClassC2Ev
                0x00000000       0x20 build\Timeout.o
 .ARM.extab.text._ZN10Port_ClassC2Ev
                0x00000000        0x0 build\Timeout.o
 .ARM.exidx.text._ZN10Port_ClassC2Ev
                0x00000000        0x8 build\Timeout.o
 .text._ZN11Motherboard8getBoardEv
                0x00000000       0x14 build\Timeout.o
 .ARM.extab.text._ZN11Motherboard8getBoardEv
                0x00000000        0x0 build\Timeout.o
 .ARM.exidx.text._ZN11Motherboard8getBoardEv
                0x00000000        0x8 build\Timeout.o
 .group         0x00000000       0x10 build\Tool.o
 .group         0x00000000       0x10 build\Tool.o
 .group         0x00000000       0x10 build\Tool.o
 .group         0x00000000       0x10 build\Tool.o
 .group         0x00000000       0x10 build\Tool.o
 .group         0x00000000       0x10 build\Tool.o
 .group         0x00000000       0x10 build\Tool.o
 .group         0x00000000       0x10 build\Tool.o
 .text._ZN6Packet5errorEh
                0x00000000       0x24 build\Tool.o
 .ARM.extab.text._ZN6Packet5errorEh
                0x00000000        0xc build\Tool.o
 .ARM.exidx.text._ZN6Packet5errorEh
                0x00000000        0x8 build\Tool.o
 .text._ZNK6Packet8hasErrorEv
                0x00000000       0x28 build\Tool.o
 .ARM.extab.text._ZNK6Packet8hasErrorEv
                0x00000000        0x0 build\Tool.o
 .ARM.exidx.text._ZNK6Packet8hasErrorEv
                0x00000000        0x8 build\Tool.o
 .text._ZNK6Packet12getErrorCodeEv
                0x00000000       0x1c build\Tool.o
 .ARM.extab.text._ZNK6Packet12getErrorCodeEv
                0x00000000        0x0 build\Tool.o
 .ARM.exidx.text._ZNK6Packet12getErrorCodeEv
                0x00000000        0x8 build\Tool.o
 .text._ZNK8InPacket10isFinishedEv
                0x00000000       0x28 build\Tool.o
 .ARM.extab.text._ZNK8InPacket10isFinishedEv
                0x00000000        0x0 build\Tool.o
 .ARM.exidx.text._ZNK8InPacket10isFinishedEv
                0x00000000        0x8 build\Tool.o
 .text._ZN8InPacket7timeoutEv
                0x00000000       0x1c build\Tool.o
 .ARM.extab.text._ZN8InPacket7timeoutEv
                0x00000000        0xc build\Tool.o
 .ARM.exidx.text._ZN8InPacket7timeoutEv
                0x00000000        0x8 build\Tool.o
 .text._ZN10Port_ClassC2Ev
                0x00000000       0x20 build\Tool.o
 .ARM.extab.text._ZN10Port_ClassC2Ev
                0x00000000        0x0 build\Tool.o
 .ARM.exidx.text._ZN10Port_ClassC2Ev
                0x00000000        0x8 build\Tool.o
 .text._ZN4UART12getSlaveUARTEv
                0x00000000       0x14 build\Tool.o
 .ARM.extab.text._ZN4UART12getSlaveUARTEv
                0x00000000        0x0 build\Tool.o
 .ARM.exidx.text._ZN4UART12getSlaveUARTEv
                0x00000000        0x8 build\Tool.o
 .text._ZN11Motherboard8getBoardEv
                0x00000000       0x14 build\Tool.o
 .ARM.extab.text._ZN11Motherboard8getBoardEv
                0x00000000        0x0 build\Tool.o
 .ARM.exidx.text._ZN11Motherboard8getBoardEv
                0x00000000        0x8 build\Tool.o
 .group         0x00000000       0x10 build\UART.o
 .group         0x00000000       0x10 build\UART.o
 .group         0x00000000       0x10 build\UART.o
 .group         0x00000000       0x10 build\UART.o
 .group         0x00000000       0x10 build\UART.o
 .group         0x00000000       0x10 build\UART.o
 .group         0x00000000       0x10 build\UART.o
 .group         0x00000000       0x10 build\UART.o
 .group         0x00000000       0x10 build\UART.o
 .group         0x00000000       0x10 build\UART.o
 .group         0x00000000       0x10 build\UART.o
 .group         0x00000000       0x10 build\UART.o
 .data          0x00000000        0x0 build\UART.o
 .text._ZNK9OutPacket9isSendingEv
                0x00000000       0x38 build\UART.o
 .ARM.extab.text._ZNK9OutPacket9isSendingEv
                0x00000000        0x0 build\UART.o
 .ARM.exidx.text._ZNK9OutPacket9isSendingEv
                0x00000000        0x8 build\UART.o
 .text._ZN10Port_ClassC2Ev
                0x00000000       0x20 build\UART.o
 .ARM.extab.text._ZN10Port_ClassC2Ev
                0x00000000        0x0 build\UART.o
 .ARM.exidx.text._ZN10Port_ClassC2Ev
                0x00000000        0x8 build\UART.o
 .text._ZN10Port_ClassC2E8portname
                0x00000000       0x20 build\UART.o
 .ARM.extab.text._ZN10Port_ClassC2E8portname
                0x00000000        0x0 build\UART.o
 .ARM.exidx.text._ZN10Port_ClassC2E8portname
                0x00000000        0x8 build\UART.o
 .text._ZN10Port_Class15setPinDirectionEhb
                0x00000000       0x74 build\UART.o
 .ARM.extab.text._ZN10Port_Class15setPinDirectionEhb
                0x00000000        0xc build\UART.o
 .ARM.exidx.text._ZN10Port_Class15setPinDirectionEhb
                0x00000000        0x8 build\UART.o
 .text._ZN10Port_Class6setPinEhb
                0x00000000       0x4c build\UART.o
 .ARM.extab.text._ZN10Port_Class6setPinEhb
                0x00000000        0xc build\UART.o
 .ARM.exidx.text._ZN10Port_Class6setPinEhb
                0x00000000        0x8 build\UART.o
 .text._ZN3PinC2E8portnameh
                0x00000000       0x30 build\UART.o
 .ARM.extab.text._ZN3PinC2E8portnameh
                0x00000000        0x0 build\UART.o
 .ARM.exidx.text._ZN3PinC2E8portnameh
                0x00000000        0x8 build\UART.o
 .text._ZN3Pin12setDirectionEb
                0x00000000       0x28 build\UART.o
 .ARM.extab.text._ZN3Pin12setDirectionEb
                0x00000000        0xc build\UART.o
 .ARM.exidx.text._ZN3Pin12setDirectionEb
                0x00000000        0x8 build\UART.o
 .text._ZN3Pin8setValueEb
                0x00000000       0x28 build\UART.o
 .ARM.extab.text._ZN3Pin8setValueEb
                0x00000000        0xc build\UART.o
 .ARM.exidx.text._ZN3Pin8setValueEb
                0x00000000        0x8 build\UART.o
 .text._ZN4UART11getHostUARTEv
                0x00000000       0x14 build\UART.o
 .ARM.extab.text._ZN4UART11getHostUARTEv
                0x00000000        0x0 build\UART.o
 .ARM.exidx.text._ZN4UART11getHostUARTEv
                0x00000000        0x8 build\UART.o
 .text._ZN4UART12getSlaveUARTEv
                0x00000000       0x14 build\UART.o
 .ARM.extab.text._ZN4UART12getSlaveUARTEv
                0x00000000        0x0 build\UART.o
 .ARM.exidx.text._ZN4UART12getSlaveUARTEv
                0x00000000        0x8 build\UART.o
 .text          0x00000000      0x190 build\test.o
 .data          0x00000000        0x0 build\test.o
 .bss           0x00000000        0x0 build\test.o
 .rodata        0x00000000       0x20 build\test.o
 .ARM.extab     0x00000000        0xc build\test.o
 .ARM.exidx     0x00000000        0x8 build\test.o
 .debug_info    0x00000000      0x548 build\test.o
 .debug_abbrev  0x00000000      0x155 build\test.o
 .debug_loc     0x00000000       0x3a build\test.o
 .debug_aranges
                0x00000000       0x20 build\test.o
 .debug_line    0x00000000      0x1f0 build\test.o
 .debug_macinfo
                0x00000000     0x914a build\test.o
 .debug_str     0x00000000      0x4a5 build\test.o
 .comment       0x00000000       0x31 build\test.o
 .ARM.attributes
                0x00000000       0x33 build\test.o
 .debug_frame   0x00000000       0x34 build\test.o
 .text          0x00000000      0x18c build\test_led.o
 .data          0x00000000        0x0 build\test_led.o
 .bss           0x00000000        0x0 build\test_led.o
 .ARM.extab     0x00000000       0x24 build\test_led.o
 .ARM.exidx     0x00000000       0x18 build\test_led.o
 .debug_info    0x00000000      0x4a8 build\test_led.o
 .debug_abbrev  0x00000000      0x123 build\test_led.o
 .debug_loc     0x00000000       0xa8 build\test_led.o
 .debug_aranges
                0x00000000       0x20 build\test_led.o
 .debug_line    0x00000000      0x232 build\test_led.o
 .debug_macinfo
                0x00000000     0x8c47 build\test_led.o
 .debug_str     0x00000000      0x296 build\test_led.o
 .comment       0x00000000       0x31 build\test_led.o
 .ARM.attributes
                0x00000000       0x33 build\test_led.o
 .debug_frame   0x00000000       0x70 build\test_led.o
 .data          0x00000000        0x0 build\test_u.o
 .bss           0x00000000        0x0 build\test_u.o
 .text          0x00000000        0x0 c:/progra~2/codesourcery/source~1/bin/../lib/gcc/arm-none-eabi/4.6.1/../../../../arm-none-eabi/lib/thumb2\libstdc++.a(si_class_type_info.o)
 .data          0x00000000        0x0 c:/progra~2/codesourcery/source~1/bin/../lib/gcc/arm-none-eabi/4.6.1/../../../../arm-none-eabi/lib/thumb2\libstdc++.a(si_class_type_info.o)
 .bss           0x00000000        0x0 c:/progra~2/codesourcery/source~1/bin/../lib/gcc/arm-none-eabi/4.6.1/../../../../arm-none-eabi/lib/thumb2\libstdc++.a(si_class_type_info.o)
 .ARM.extab.text._ZN10__cxxabiv120__si_class_type_infoD2Ev
                0x00000000        0x0 c:/progra~2/codesourcery/source~1/bin/../lib/gcc/arm-none-eabi/4.6.1/../../../../arm-none-eabi/lib/thumb2\libstdc++.a(si_class_type_info.o)
 .ARM.extab.text._ZN10__cxxabiv120__si_class_type_infoD0Ev
                0x00000000        0x0 c:/progra~2/codesourcery/source~1/bin/../lib/gcc/arm-none-eabi/4.6.1/../../../../arm-none-eabi/lib/thumb2\libstdc++.a(si_class_type_info.o)
 .ARM.extab.text._ZNK10__cxxabiv120__si_class_type_info11__do_upcastEPKNS_17__class_type_infoEPKvRNS1_15__upcast_resultE
                0x00000000        0x0 c:/progra~2/codesourcery/source~1/bin/../lib/gcc/arm-none-eabi/4.6.1/../../../../arm-none-eabi/lib/thumb2\libstdc++.a(si_class_type_info.o)
 .ARM.extab.text._ZNK10__cxxabiv120__si_class_type_info12__do_dyncastEiNS_17__class_type_info10__sub_kindEPKS1_PKvS4_S6_RNS1_16__dyncast_resultE
                0x00000000        0x0 c:/progra~2/codesourcery/source~1/bin/../lib/gcc/arm-none-eabi/4.6.1/../../../../arm-none-eabi/lib/thumb2\libstdc++.a(si_class_type_info.o)
 .ARM.extab.text._ZNK10__cxxabiv120__si_class_type_info20__do_find_public_srcEiPKvPKNS_17__class_type_infoES2_
                0x00000000        0x0 c:/progra~2/codesourcery/source~1/bin/../lib/gcc/arm-none-eabi/4.6.1/../../../../arm-none-eabi/lib/thumb2\libstdc++.a(si_class_type_info.o)
 .text          0x00000000        0x0 c:/progra~2/codesourcery/source~1/bin/../lib/gcc/arm-none-eabi/4.6.1/../../../../arm-none-eabi/lib/thumb2\libstdc++.a(pure.o)
 .data          0x00000000        0x0 c:/progra~2/codesourcery/source~1/bin/../lib/gcc/arm-none-eabi/4.6.1/../../../../arm-none-eabi/lib/thumb2\libstdc++.a(pure.o)
 .bss           0x00000000        0x0 c:/progra~2/codesourcery/source~1/bin/../lib/gcc/arm-none-eabi/4.6.1/../../../../arm-none-eabi/lib/thumb2\libstdc++.a(pure.o)
 .text          0x00000000        0x0 c:/progra~2/codesourcery/source~1/bin/../lib/gcc/arm-none-eabi/4.6.1/../../../../arm-none-eabi/lib/thumb2\libstdc++.a(eh_terminate.o)
 .data          0x00000000        0x0 c:/progra~2/codesourcery/source~1/bin/../lib/gcc/arm-none-eabi/4.6.1/../../../../arm-none-eabi/lib/thumb2\libstdc++.a(eh_terminate.o)
 .bss           0x00000000        0x0 c:/progra~2/codesourcery/source~1/bin/../lib/gcc/arm-none-eabi/4.6.1/../../../../arm-none-eabi/lib/thumb2\libstdc++.a(eh_terminate.o)
 .ARM.extab.text._ZSt9terminatev
                0x00000000        0x0 c:/progra~2/codesourcery/source~1/bin/../lib/gcc/arm-none-eabi/4.6.1/../../../../arm-none-eabi/lib/thumb2\libstdc++.a(eh_terminate.o)
 .text._ZSt13set_terminatePFvvE
                0x00000000       0x10 c:/progra~2/codesourcery/source~1/bin/../lib/gcc/arm-none-eabi/4.6.1/../../../../arm-none-eabi/lib/thumb2\libstdc++.a(eh_terminate.o)
 .ARM.extab.text._ZSt13set_terminatePFvvE
                0x00000000        0x0 c:/progra~2/codesourcery/source~1/bin/../lib/gcc/arm-none-eabi/4.6.1/../../../../arm-none-eabi/lib/thumb2\libstdc++.a(eh_terminate.o)
 .ARM.exidx.text._ZSt13set_terminatePFvvE
                0x00000000        0x8 c:/progra~2/codesourcery/source~1/bin/../lib/gcc/arm-none-eabi/4.6.1/../../../../arm-none-eabi/lib/thumb2\libstdc++.a(eh_terminate.o)
 .text._ZSt14set_unexpectedPFvvE
                0x00000000       0x10 c:/progra~2/codesourcery/source~1/bin/../lib/gcc/arm-none-eabi/4.6.1/../../../../arm-none-eabi/lib/thumb2\libstdc++.a(eh_terminate.o)
 .ARM.extab.text._ZSt14set_unexpectedPFvvE
                0x00000000        0x0 c:/progra~2/codesourcery/source~1/bin/../lib/gcc/arm-none-eabi/4.6.1/../../../../arm-none-eabi/lib/thumb2\libstdc++.a(eh_terminate.o)
 .ARM.exidx.text._ZSt14set_unexpectedPFvvE
                0x00000000        0x8 c:/progra~2/codesourcery/source~1/bin/../lib/gcc/arm-none-eabi/4.6.1/../../../../arm-none-eabi/lib/thumb2\libstdc++.a(eh_terminate.o)
 .text          0x00000000        0x0 c:/progra~2/codesourcery/source~1/bin/../lib/gcc/arm-none-eabi/4.6.1/../../../../arm-none-eabi/lib/thumb2\libstdc++.a(class_type_info.o)
 .data          0x00000000        0x0 c:/progra~2/codesourcery/source~1/bin/../lib/gcc/arm-none-eabi/4.6.1/../../../../arm-none-eabi/lib/thumb2\libstdc++.a(class_type_info.o)
 .bss           0x00000000        0x0 c:/progra~2/codesourcery/source~1/bin/../lib/gcc/arm-none-eabi/4.6.1/../../../../arm-none-eabi/lib/thumb2\libstdc++.a(class_type_info.o)
 .ARM.extab.text._ZNK10__cxxabiv117__class_type_info11__do_upcastEPKS0_PPv
                0x00000000        0x0 c:/progra~2/codesourcery/source~1/bin/../lib/gcc/arm-none-eabi/4.6.1/../../../../arm-none-eabi/lib/thumb2\libstdc++.a(class_type_info.o)
 .ARM.extab.text._ZNK10__cxxabiv117__class_type_info20__do_find_public_srcEiPKvPKS0_S2_
                0x00000000        0x0 c:/progra~2/codesourcery/source~1/bin/../lib/gcc/arm-none-eabi/4.6.1/../../../../arm-none-eabi/lib/thumb2\libstdc++.a(class_type_info.o)
 .ARM.extab.text._ZNK10__cxxabiv117__class_type_info11__do_upcastEPKS0_PKvRNS0_15__upcast_resultE
                0x00000000        0x0 c:/progra~2/codesourcery/source~1/bin/../lib/gcc/arm-none-eabi/4.6.1/../../../../arm-none-eabi/lib/thumb2\libstdc++.a(class_type_info.o)
 .ARM.extab.text._ZN10__cxxabiv117__class_type_infoD2Ev
                0x00000000        0x0 c:/progra~2/codesourcery/source~1/bin/../lib/gcc/arm-none-eabi/4.6.1/../../../../arm-none-eabi/lib/thumb2\libstdc++.a(class_type_info.o)
 .ARM.extab.text._ZN10__cxxabiv117__class_type_infoD0Ev
                0x00000000        0x0 c:/progra~2/codesourcery/source~1/bin/../lib/gcc/arm-none-eabi/4.6.1/../../../../arm-none-eabi/lib/thumb2\libstdc++.a(class_type_info.o)
 .ARM.extab.text._ZNK10__cxxabiv117__class_type_info12__do_dyncastEiNS0_10__sub_kindEPKS0_PKvS3_S5_RNS0_16__dyncast_resultE
                0x00000000        0x0 c:/progra~2/codesourcery/source~1/bin/../lib/gcc/arm-none-eabi/4.6.1/../../../../arm-none-eabi/lib/thumb2\libstdc++.a(class_type_info.o)
 .ARM.extab.text._ZNK10__cxxabiv117__class_type_info10__do_catchEPKSt9type_infoPPvj
                0x00000000        0x0 c:/progra~2/codesourcery/source~1/bin/../lib/gcc/arm-none-eabi/4.6.1/../../../../arm-none-eabi/lib/thumb2\libstdc++.a(class_type_info.o)
 .text          0x00000000        0x0 c:/progra~2/codesourcery/source~1/bin/../lib/gcc/arm-none-eabi/4.6.1/../../../../arm-none-eabi/lib/thumb2\libstdc++.a(eh_unex_handler.o)
 .data          0x00000000        0x0 c:/progra~2/codesourcery/source~1/bin/../lib/gcc/arm-none-eabi/4.6.1/../../../../arm-none-eabi/lib/thumb2\libstdc++.a(eh_unex_handler.o)
 .bss           0x00000000        0x0 c:/progra~2/codesourcery/source~1/bin/../lib/gcc/arm-none-eabi/4.6.1/../../../../arm-none-eabi/lib/thumb2\libstdc++.a(eh_unex_handler.o)
 .text          0x00000000        0x0 c:/progra~2/codesourcery/source~1/bin/../lib/gcc/arm-none-eabi/4.6.1/../../../../arm-none-eabi/lib/thumb2\libstdc++.a(eh_call.o)
 .data          0x00000000        0x0 c:/progra~2/codesourcery/source~1/bin/../lib/gcc/arm-none-eabi/4.6.1/../../../../arm-none-eabi/lib/thumb2\libstdc++.a(eh_call.o)
 .bss           0x00000000        0x0 c:/progra~2/codesourcery/source~1/bin/../lib/gcc/arm-none-eabi/4.6.1/../../../../arm-none-eabi/lib/thumb2\libstdc++.a(eh_call.o)
 .ARM.extab.text.__cxa_call_terminate
                0x00000000        0x0 c:/progra~2/codesourcery/source~1/bin/../lib/gcc/arm-none-eabi/4.6.1/../../../../arm-none-eabi/lib/thumb2\libstdc++.a(eh_call.o)
 .text          0x00000000        0x0 c:/progra~2/codesourcery/source~1/bin/../lib/gcc/arm-none-eabi/4.6.1/../../../../arm-none-eabi/lib/thumb2\libstdc++.a(eh_throw.o)
 .data          0x00000000        0x0 c:/progra~2/codesourcery/source~1/bin/../lib/gcc/arm-none-eabi/4.6.1/../../../../arm-none-eabi/lib/thumb2\libstdc++.a(eh_throw.o)
 .bss           0x00000000        0x0 c:/progra~2/codesourcery/source~1/bin/../lib/gcc/arm-none-eabi/4.6.1/../../../../arm-none-eabi/lib/thumb2\libstdc++.a(eh_throw.o)
 .ARM.extab.text._ZL23__gxx_exception_cleanup19_Unwind_Reason_CodeP21_Unwind_Control_Block
                0x00000000        0x0 c:/progra~2/codesourcery/source~1/bin/../lib/gcc/arm-none-eabi/4.6.1/../../../../arm-none-eabi/lib/thumb2\libstdc++.a(eh_throw.o)
 .ARM.extab.text.__cxa_throw
                0x00000000        0x0 c:/progra~2/codesourcery/source~1/bin/../lib/gcc/arm-none-eabi/4.6.1/../../../../arm-none-eabi/lib/thumb2\libstdc++.a(eh_throw.o)
 .ARM.extab.text.__cxa_rethrow
                0x00000000        0x0 c:/progra~2/codesourcery/source~1/bin/../lib/gcc/arm-none-eabi/4.6.1/../../../../arm-none-eabi/lib/thumb2\libstdc++.a(eh_throw.o)
 .text          0x00000000        0x0 c:/progra~2/codesourcery/source~1/bin/../lib/gcc/arm-none-eabi/4.6.1/../../../../arm-none-eabi/lib/thumb2\libstdc++.a(eh_arm.o)
 .data          0x00000000        0x0 c:/progra~2/codesourcery/source~1/bin/../lib/gcc/arm-none-eabi/4.6.1/../../../../arm-none-eabi/lib/thumb2\libstdc++.a(eh_arm.o)
 .bss           0x00000000        0x0 c:/progra~2/codesourcery/source~1/bin/../lib/gcc/arm-none-eabi/4.6.1/../../../../arm-none-eabi/lib/thumb2\libstdc++.a(eh_arm.o)
 .ARM.extab.text.__cxa_type_match
                0x00000000        0x0 c:/progra~2/codesourcery/source~1/bin/../lib/gcc/arm-none-eabi/4.6.1/../../../../arm-none-eabi/lib/thumb2\libstdc++.a(eh_arm.o)
 .ARM.extab.text.__cxa_begin_cleanup
                0x00000000        0x0 c:/progra~2/codesourcery/source~1/bin/../lib/gcc/arm-none-eabi/4.6.1/../../../../arm-none-eabi/lib/thumb2\libstdc++.a(eh_arm.o)
 .ARM.extab.text.__gnu_end_cleanup
                0x00000000        0x0 c:/progra~2/codesourcery/source~1/bin/../lib/gcc/arm-none-eabi/4.6.1/../../../../arm-none-eabi/lib/thumb2\libstdc++.a(eh_arm.o)
 .text          0x00000000        0x0 c:/progra~2/codesourcery/source~1/bin/../lib/gcc/arm-none-eabi/4.6.1/../../../../arm-none-eabi/lib/thumb2\libstdc++.a(eh_exception.o)
 .data          0x00000000        0x0 c:/progra~2/codesourcery/source~1/bin/../lib/gcc/arm-none-eabi/4.6.1/../../../../arm-none-eabi/lib/thumb2\libstdc++.a(eh_exception.o)
 .bss           0x00000000        0x0 c:/progra~2/codesourcery/source~1/bin/../lib/gcc/arm-none-eabi/4.6.1/../../../../arm-none-eabi/lib/thumb2\libstdc++.a(eh_exception.o)
 .ARM.extab.text._ZNSt9exceptionD2Ev
                0x00000000        0x0 c:/progra~2/codesourcery/source~1/bin/../lib/gcc/arm-none-eabi/4.6.1/../../../../arm-none-eabi/lib/thumb2\libstdc++.a(eh_exception.o)
 .ARM.extab.text._ZNSt13bad_exceptionD2Ev
                0x00000000        0x0 c:/progra~2/codesourcery/source~1/bin/../lib/gcc/arm-none-eabi/4.6.1/../../../../arm-none-eabi/lib/thumb2\libstdc++.a(eh_exception.o)
 .text._ZN10__cxxabiv115__forced_unwindD2Ev
                0x00000000        0xc c:/progra~2/codesourcery/source~1/bin/../lib/gcc/arm-none-eabi/4.6.1/../../../../arm-none-eabi/lib/thumb2\libstdc++.a(eh_exception.o)
 .ARM.extab.text._ZN10__cxxabiv115__forced_unwindD2Ev
                0x00000000        0x0 c:/progra~2/codesourcery/source~1/bin/../lib/gcc/arm-none-eabi/4.6.1/../../../../arm-none-eabi/lib/thumb2\libstdc++.a(eh_exception.o)
 .ARM.exidx.text._ZN10__cxxabiv115__forced_unwindD2Ev
                0x00000000        0x8 c:/progra~2/codesourcery/source~1/bin/../lib/gcc/arm-none-eabi/4.6.1/../../../../arm-none-eabi/lib/thumb2\libstdc++.a(eh_exception.o)
 .text._ZN10__cxxabiv119__foreign_exceptionD2Ev
                0x00000000        0xc c:/progra~2/codesourcery/source~1/bin/../lib/gcc/arm-none-eabi/4.6.1/../../../../arm-none-eabi/lib/thumb2\libstdc++.a(eh_exception.o)
 .ARM.extab.text._ZN10__cxxabiv119__foreign_exceptionD2Ev
                0x00000000        0x0 c:/progra~2/codesourcery/source~1/bin/../lib/gcc/arm-none-eabi/4.6.1/../../../../arm-none-eabi/lib/thumb2\libstdc++.a(eh_exception.o)
 .ARM.exidx.text._ZN10__cxxabiv119__foreign_exceptionD2Ev
                0x00000000        0x8 c:/progra~2/codesourcery/source~1/bin/../lib/gcc/arm-none-eabi/4.6.1/../../../../arm-none-eabi/lib/thumb2\libstdc++.a(eh_exception.o)
 .ARM.extab.text._ZNKSt9exception4whatEv
                0x00000000        0x0 c:/progra~2/codesourcery/source~1/bin/../lib/gcc/arm-none-eabi/4.6.1/../../../../arm-none-eabi/lib/thumb2\libstdc++.a(eh_exception.o)
 .ARM.extab.text._ZNKSt13bad_exception4whatEv
                0x00000000        0x0 c:/progra~2/codesourcery/source~1/bin/../lib/gcc/arm-none-eabi/4.6.1/../../../../arm-none-eabi/lib/thumb2\libstdc++.a(eh_exception.o)
 .text._ZN10__cxxabiv119__foreign_exceptionD0Ev
                0x00000000       0x14 c:/progra~2/codesourcery/source~1/bin/../lib/gcc/arm-none-eabi/4.6.1/../../../../arm-none-eabi/lib/thumb2\libstdc++.a(eh_exception.o)
 .ARM.extab.text._ZN10__cxxabiv119__foreign_exceptionD0Ev
                0x00000000        0x0 c:/progra~2/codesourcery/source~1/bin/../lib/gcc/arm-none-eabi/4.6.1/../../../../arm-none-eabi/lib/thumb2\libstdc++.a(eh_exception.o)
 .ARM.exidx.text._ZN10__cxxabiv119__foreign_exceptionD0Ev
                0x00000000        0x8 c:/progra~2/codesourcery/source~1/bin/../lib/gcc/arm-none-eabi/4.6.1/../../../../arm-none-eabi/lib/thumb2\libstdc++.a(eh_exception.o)
 .text._ZN10__cxxabiv115__forced_unwindD0Ev
                0x00000000       0x14 c:/progra~2/codesourcery/source~1/bin/../lib/gcc/arm-none-eabi/4.6.1/../../../../arm-none-eabi/lib/thumb2\libstdc++.a(eh_exception.o)
 .ARM.extab.text._ZN10__cxxabiv115__forced_unwindD0Ev
                0x00000000        0x0 c:/progra~2/codesourcery/source~1/bin/../lib/gcc/arm-none-eabi/4.6.1/../../../../arm-none-eabi/lib/thumb2\libstdc++.a(eh_exception.o)
 .ARM.exidx.text._ZN10__cxxabiv115__forced_unwindD0Ev
                0x00000000        0x8 c:/progra~2/codesourcery/source~1/bin/../lib/gcc/arm-none-eabi/4.6.1/../../../../arm-none-eabi/lib/thumb2\libstdc++.a(eh_exception.o)
 .ARM.extab.text._ZNSt13bad_exceptionD0Ev
                0x00000000        0x0 c:/progra~2/codesourcery/source~1/bin/../lib/gcc/arm-none-eabi/4.6.1/../../../../arm-none-eabi/lib/thumb2\libstdc++.a(eh_exception.o)
 .ARM.extab.text._ZNSt9exceptionD0Ev
                0x00000000        0x0 c:/progra~2/codesourcery/source~1/bin/../lib/gcc/arm-none-eabi/4.6.1/../../../../arm-none-eabi/lib/thumb2\libstdc++.a(eh_exception.o)
 .rodata._ZTVN10__cxxabiv115__forced_unwindE
                0x00000000       0x18 c:/progra~2/codesourcery/source~1/bin/../lib/gcc/arm-none-eabi/4.6.1/../../../../arm-none-eabi/lib/thumb2\libstdc++.a(eh_exception.o)
 .rodata._ZTVN10__cxxabiv119__foreign_exceptionE
                0x00000000       0x18 c:/progra~2/codesourcery/source~1/bin/../lib/gcc/arm-none-eabi/4.6.1/../../../../arm-none-eabi/lib/thumb2\libstdc++.a(eh_exception.o)
 .text          0x00000000        0x0 c:/progra~2/codesourcery/source~1/bin/../lib/gcc/arm-none-eabi/4.6.1/../../../../arm-none-eabi/lib/thumb2\libstdc++.a(eh_alloc.o)
 .data          0x00000000        0x0 c:/progra~2/codesourcery/source~1/bin/../lib/gcc/arm-none-eabi/4.6.1/../../../../arm-none-eabi/lib/thumb2\libstdc++.a(eh_alloc.o)
 .bss           0x00000000        0x0 c:/progra~2/codesourcery/source~1/bin/../lib/gcc/arm-none-eabi/4.6.1/../../../../arm-none-eabi/lib/thumb2\libstdc++.a(eh_alloc.o)
 .ARM.extab.text.__cxa_allocate_exception
                0x00000000        0x0 c:/progra~2/codesourcery/source~1/bin/../lib/gcc/arm-none-eabi/4.6.1/../../../../arm-none-eabi/lib/thumb2\libstdc++.a(eh_alloc.o)
 .ARM.extab.text.__cxa_free_exception
                0x00000000        0x0 c:/progra~2/codesourcery/source~1/bin/../lib/gcc/arm-none-eabi/4.6.1/../../../../arm-none-eabi/lib/thumb2\libstdc++.a(eh_alloc.o)
 .text.__cxa_allocate_dependent_exception
                0x00000000       0x70 c:/progra~2/codesourcery/source~1/bin/../lib/gcc/arm-none-eabi/4.6.1/../../../../arm-none-eabi/lib/thumb2\libstdc++.a(eh_alloc.o)
 .ARM.extab.text.__cxa_allocate_dependent_exception
                0x00000000        0x0 c:/progra~2/codesourcery/source~1/bin/../lib/gcc/arm-none-eabi/4.6.1/../../../../arm-none-eabi/lib/thumb2\libstdc++.a(eh_alloc.o)
 .ARM.exidx.text.__cxa_allocate_dependent_exception
                0x00000000        0x8 c:/progra~2/codesourcery/source~1/bin/../lib/gcc/arm-none-eabi/4.6.1/../../../../arm-none-eabi/lib/thumb2\libstdc++.a(eh_alloc.o)
 .text.__cxa_free_dependent_exception
                0x00000000       0x4c c:/progra~2/codesourcery/source~1/bin/../lib/gcc/arm-none-eabi/4.6.1/../../../../arm-none-eabi/lib/thumb2\libstdc++.a(eh_alloc.o)
 .ARM.extab.text.__cxa_free_dependent_exception
                0x00000000        0x0 c:/progra~2/codesourcery/source~1/bin/../lib/gcc/arm-none-eabi/4.6.1/../../../../arm-none-eabi/lib/thumb2\libstdc++.a(eh_alloc.o)
 .ARM.exidx.text.__cxa_free_dependent_exception
                0x00000000        0x8 c:/progra~2/codesourcery/source~1/bin/../lib/gcc/arm-none-eabi/4.6.1/../../../../arm-none-eabi/lib/thumb2\libstdc++.a(eh_alloc.o)
 .bss._ZL15dependents_used
                0x00000000        0x4 c:/progra~2/codesourcery/source~1/bin/../lib/gcc/arm-none-eabi/4.6.1/../../../../arm-none-eabi/lib/thumb2\libstdc++.a(eh_alloc.o)
 .bss._ZL17dependents_buffer
                0x00000000      0x1e0 c:/progra~2/codesourcery/source~1/bin/../lib/gcc/arm-none-eabi/4.6.1/../../../../arm-none-eabi/lib/thumb2\libstdc++.a(eh_alloc.o)
 .text          0x00000000        0x0 c:/progra~2/codesourcery/source~1/bin/../lib/gcc/arm-none-eabi/4.6.1/../../../../arm-none-eabi/lib/thumb2\libstdc++.a(eh_globals.o)
 .data          0x00000000        0x0 c:/progra~2/codesourcery/source~1/bin/../lib/gcc/arm-none-eabi/4.6.1/../../../../arm-none-eabi/lib/thumb2\libstdc++.a(eh_globals.o)
 .bss           0x00000000        0x0 c:/progra~2/codesourcery/source~1/bin/../lib/gcc/arm-none-eabi/4.6.1/../../../../arm-none-eabi/lib/thumb2\libstdc++.a(eh_globals.o)
 .ARM.extab.text.__cxa_get_globals_fast
                0x00000000        0x0 c:/progra~2/codesourcery/source~1/bin/../lib/gcc/arm-none-eabi/4.6.1/../../../../arm-none-eabi/lib/thumb2\libstdc++.a(eh_globals.o)
 .ARM.extab.text.__cxa_get_globals
                0x00000000        0x0 c:/progra~2/codesourcery/source~1/bin/../lib/gcc/arm-none-eabi/4.6.1/../../../../arm-none-eabi/lib/thumb2\libstdc++.a(eh_globals.o)
 .text          0x00000000        0x0 c:/progra~2/codesourcery/source~1/bin/../lib/gcc/arm-none-eabi/4.6.1/../../../../arm-none-eabi/lib/thumb2\libstdc++.a(tinfo.o)
 .data          0x00000000        0x0 c:/progra~2/codesourcery/source~1/bin/../lib/gcc/arm-none-eabi/4.6.1/../../../../arm-none-eabi/lib/thumb2\libstdc++.a(tinfo.o)
 .bss           0x00000000        0x0 c:/progra~2/codesourcery/source~1/bin/../lib/gcc/arm-none-eabi/4.6.1/../../../../arm-none-eabi/lib/thumb2\libstdc++.a(tinfo.o)
 .ARM.extab.text._ZNSt9type_infoD2Ev
                0x00000000        0x0 c:/progra~2/codesourcery/source~1/bin/../lib/gcc/arm-none-eabi/4.6.1/../../../../arm-none-eabi/lib/thumb2\libstdc++.a(tinfo.o)
 .ARM.extab.text._ZNKSt9type_info14__is_pointer_pEv
                0x00000000        0x0 c:/progra~2/codesourcery/source~1/bin/../lib/gcc/arm-none-eabi/4.6.1/../../../../arm-none-eabi/lib/thumb2\libstdc++.a(tinfo.o)
 .ARM.extab.text._ZNKSt9type_info15__is_function_pEv
                0x00000000        0x0 c:/progra~2/codesourcery/source~1/bin/../lib/gcc/arm-none-eabi/4.6.1/../../../../arm-none-eabi/lib/thumb2\libstdc++.a(tinfo.o)
 .ARM.extab.text._ZNKSt9type_info11__do_upcastEPKN10__cxxabiv117__class_type_infoEPPv
                0x00000000        0x0 c:/progra~2/codesourcery/source~1/bin/../lib/gcc/arm-none-eabi/4.6.1/../../../../arm-none-eabi/lib/thumb2\libstdc++.a(tinfo.o)
 .ARM.extab.text._ZNSt9type_infoD0Ev
                0x00000000        0x0 c:/progra~2/codesourcery/source~1/bin/../lib/gcc/arm-none-eabi/4.6.1/../../../../arm-none-eabi/lib/thumb2\libstdc++.a(tinfo.o)
 .ARM.extab.text._ZNKSt9type_infoeqERKS_
                0x00000000        0x0 c:/progra~2/codesourcery/source~1/bin/../lib/gcc/arm-none-eabi/4.6.1/../../../../arm-none-eabi/lib/thumb2\libstdc++.a(tinfo.o)
 .ARM.extab.text._ZNKSt9type_info10__do_catchEPKS_PPvj
                0x00000000        0x0 c:/progra~2/codesourcery/source~1/bin/../lib/gcc/arm-none-eabi/4.6.1/../../../../arm-none-eabi/lib/thumb2\libstdc++.a(tinfo.o)
 .text          0x00000000        0x0 c:/progra~2/codesourcery/source~1/bin/../lib/gcc/arm-none-eabi/4.6.1/../../../../arm-none-eabi/lib/thumb2\libstdc++.a(eh_personality.o)
 .data          0x00000000        0x0 c:/progra~2/codesourcery/source~1/bin/../lib/gcc/arm-none-eabi/4.6.1/../../../../arm-none-eabi/lib/thumb2\libstdc++.a(eh_personality.o)
 .bss           0x00000000        0x0 c:/progra~2/codesourcery/source~1/bin/../lib/gcc/arm-none-eabi/4.6.1/../../../../arm-none-eabi/lib/thumb2\libstdc++.a(eh_personality.o)
 .ARM.extab.text._ZL12read_sleb128PKhPl
                0x00000000        0x0 c:/progra~2/codesourcery/source~1/bin/../lib/gcc/arm-none-eabi/4.6.1/../../../../arm-none-eabi/lib/thumb2\libstdc++.a(eh_personality.o)
 .ARM.extab.text._ZL28read_encoded_value_with_basehjPKhPj
                0x00000000        0x0 c:/progra~2/codesourcery/source~1/bin/../lib/gcc/arm-none-eabi/4.6.1/../../../../arm-none-eabi/lib/thumb2\libstdc++.a(eh_personality.o)
 .ARM.extab.text._ZL17parse_lsda_headerP15_Unwind_ContextPKhP16lsda_header_info.constprop.4
                0x00000000        0x0 c:/progra~2/codesourcery/source~1/bin/../lib/gcc/arm-none-eabi/4.6.1/../../../../arm-none-eabi/lib/thumb2\libstdc++.a(eh_personality.o)
 .ARM.attributes
                0x00000000       0x2b c:/progra~2/codesourcery/source~1/bin/../lib/gcc/arm-none-eabi/4.6.1/../../../../arm-none-eabi/lib/thumb2\libstdc++.a(eh_personality.o)
 .debug_frame   0x00000000       0xac c:/progra~2/codesourcery/source~1/bin/../lib/gcc/arm-none-eabi/4.6.1/../../../../arm-none-eabi/lib/thumb2\libstdc++.a(eh_personality.o)
 .text          0x00000000        0x0 c:/progra~2/codesourcery/source~1/bin/../lib/gcc/arm-none-eabi/4.6.1/../../../../arm-none-eabi/lib/thumb2\libstdc++.a(eh_term_handler.o)
 .data          0x00000000        0x0 c:/progra~2/codesourcery/source~1/bin/../lib/gcc/arm-none-eabi/4.6.1/../../../../arm-none-eabi/lib/thumb2\libstdc++.a(eh_term_handler.o)
 .bss           0x00000000        0x0 c:/progra~2/codesourcery/source~1/bin/../lib/gcc/arm-none-eabi/4.6.1/../../../../arm-none-eabi/lib/thumb2\libstdc++.a(eh_term_handler.o)
 .text          0x00000000        0x0 c:/progra~2/codesourcery/source~1/bin/../lib/gcc/arm-none-eabi/4.6.1/../../../../arm-none-eabi/lib/thumb2\libstdc++.a(eh_catch.o)
 .data          0x00000000        0x0 c:/progra~2/codesourcery/source~1/bin/../lib/gcc/arm-none-eabi/4.6.1/../../../../arm-none-eabi/lib/thumb2\libstdc++.a(eh_catch.o)
 .bss           0x00000000        0x0 c:/progra~2/codesourcery/source~1/bin/../lib/gcc/arm-none-eabi/4.6.1/../../../../arm-none-eabi/lib/thumb2\libstdc++.a(eh_catch.o)
 .text.__cxa_get_exception_ptr
                0x00000000        0x4 c:/progra~2/codesourcery/source~1/bin/../lib/gcc/arm-none-eabi/4.6.1/../../../../arm-none-eabi/lib/thumb2\libstdc++.a(eh_catch.o)
 .ARM.extab.text.__cxa_get_exception_ptr
                0x00000000        0x0 c:/progra~2/codesourcery/source~1/bin/../lib/gcc/arm-none-eabi/4.6.1/../../../../arm-none-eabi/lib/thumb2\libstdc++.a(eh_catch.o)
 .ARM.exidx.text.__cxa_get_exception_ptr
                0x00000000        0x8 c:/progra~2/codesourcery/source~1/bin/../lib/gcc/arm-none-eabi/4.6.1/../../../../arm-none-eabi/lib/thumb2\libstdc++.a(eh_catch.o)
 .ARM.extab.text.__cxa_end_catch
                0x00000000        0x0 c:/progra~2/codesourcery/source~1/bin/../lib/gcc/arm-none-eabi/4.6.1/../../../../arm-none-eabi/lib/thumb2\libstdc++.a(eh_catch.o)
 .text._ZSt18uncaught_exceptionv
                0x00000000       0x10 c:/progra~2/codesourcery/source~1/bin/../lib/gcc/arm-none-eabi/4.6.1/../../../../arm-none-eabi/lib/thumb2\libstdc++.a(eh_catch.o)
 .ARM.extab.text._ZSt18uncaught_exceptionv
                0x00000000        0x0 c:/progra~2/codesourcery/source~1/bin/../lib/gcc/arm-none-eabi/4.6.1/../../../../arm-none-eabi/lib/thumb2\libstdc++.a(eh_catch.o)
 .ARM.exidx.text._ZSt18uncaught_exceptionv
                0x00000000        0x8 c:/progra~2/codesourcery/source~1/bin/../lib/gcc/arm-none-eabi/4.6.1/../../../../arm-none-eabi/lib/thumb2\libstdc++.a(eh_catch.o)
 .text          0x00000000        0x0 c:/progra~2/codesourcery/source~1/bin/../lib/gcc/arm-none-eabi/4.6.1/../../../../arm-none-eabi/lib/thumb2\libstdc++.a(vterminate.o)
 .data          0x00000000        0x0 c:/progra~2/codesourcery/source~1/bin/../lib/gcc/arm-none-eabi/4.6.1/../../../../arm-none-eabi/lib/thumb2\libstdc++.a(vterminate.o)
 .bss           0x00000000        0x0 c:/progra~2/codesourcery/source~1/bin/../lib/gcc/arm-none-eabi/4.6.1/../../../../arm-none-eabi/lib/thumb2\libstdc++.a(vterminate.o)
 .data          0x00000000        0x0 c:/progra~2/codesourcery/source~1/bin/../lib/gcc/arm-none-eabi/4.6.1/../../../../arm-none-eabi/lib/thumb2\libstdc++.a(cp-demangle.o)
 .bss           0x00000000        0x0 c:/progra~2/codesourcery/source~1/bin/../lib/gcc/arm-none-eabi/4.6.1/../../../../arm-none-eabi/lib/thumb2\libstdc++.a(cp-demangle.o)
 .text          0x00000000        0x0 c:/progra~2/codesourcery/source~1/bin/../lib/gcc/arm-none-eabi/4.6.1/../../../../arm-none-eabi/lib/thumb2\libstdc++.a(eh_type.o)
 .data          0x00000000        0x0 c:/progra~2/codesourcery/source~1/bin/../lib/gcc/arm-none-eabi/4.6.1/../../../../arm-none-eabi/lib/thumb2\libstdc++.a(eh_type.o)
 .bss           0x00000000        0x0 c:/progra~2/codesourcery/source~1/bin/../lib/gcc/arm-none-eabi/4.6.1/../../../../arm-none-eabi/lib/thumb2\libstdc++.a(eh_type.o)
 .ARM.extab.text.__cxa_current_exception_type
                0x00000000        0x0 c:/progra~2/codesourcery/source~1/bin/../lib/gcc/arm-none-eabi/4.6.1/../../../../arm-none-eabi/lib/thumb2\libstdc++.a(eh_type.o)
 .text          0x00000000      0x21c c:/progra~2/codesourcery/source~1/bin/../lib/gcc/arm-none-eabi/4.6.1/thumb2\libgcc.a(_arm_addsubsf3.o)
 .data          0x00000000        0x0 c:/progra~2/codesourcery/source~1/bin/../lib/gcc/arm-none-eabi/4.6.1/thumb2\libgcc.a(_arm_addsubsf3.o)
 .bss           0x00000000        0x0 c:/progra~2/codesourcery/source~1/bin/../lib/gcc/arm-none-eabi/4.6.1/thumb2\libgcc.a(_arm_addsubsf3.o)
 .ARM.attributes
                0x00000000       0x1b c:/progra~2/codesourcery/source~1/bin/../lib/gcc/arm-none-eabi/4.6.1/thumb2\libgcc.a(_arm_addsubsf3.o)
 .text          0x00000000      0x2a0 c:/progra~2/codesourcery/source~1/bin/../lib/gcc/arm-none-eabi/4.6.1/thumb2\libgcc.a(_arm_muldivsf3.o)
 .data          0x00000000        0x0 c:/progra~2/codesourcery/source~1/bin/../lib/gcc/arm-none-eabi/4.6.1/thumb2\libgcc.a(_arm_muldivsf3.o)
 .bss           0x00000000        0x0 c:/progra~2/codesourcery/source~1/bin/../lib/gcc/arm-none-eabi/4.6.1/thumb2\libgcc.a(_arm_muldivsf3.o)
 .ARM.attributes
                0x00000000       0x1b c:/progra~2/codesourcery/source~1/bin/../lib/gcc/arm-none-eabi/4.6.1/thumb2\libgcc.a(_arm_muldivsf3.o)
 .text          0x00000000       0x4c c:/progra~2/codesourcery/source~1/bin/../lib/gcc/arm-none-eabi/4.6.1/thumb2\libgcc.a(_arm_fixsfsi.o)
 .data          0x00000000        0x0 c:/progra~2/codesourcery/source~1/bin/../lib/gcc/arm-none-eabi/4.6.1/thumb2\libgcc.a(_arm_fixsfsi.o)
 .bss           0x00000000        0x0 c:/progra~2/codesourcery/source~1/bin/../lib/gcc/arm-none-eabi/4.6.1/thumb2\libgcc.a(_arm_fixsfsi.o)
 .ARM.attributes
                0x00000000       0x1b c:/progra~2/codesourcery/source~1/bin/../lib/gcc/arm-none-eabi/4.6.1/thumb2\libgcc.a(_arm_fixsfsi.o)
 .data          0x00000000        0x0 c:/progra~2/codesourcery/source~1/bin/../lib/gcc/arm-none-eabi/4.6.1/thumb2\libgcc.a(_aeabi_uldivmod.o)
 .bss           0x00000000        0x0 c:/progra~2/codesourcery/source~1/bin/../lib/gcc/arm-none-eabi/4.6.1/thumb2\libgcc.a(_aeabi_uldivmod.o)
 .data          0x00000000        0x0 c:/progra~2/codesourcery/source~1/bin/../lib/gcc/arm-none-eabi/4.6.1/thumb2\libgcc.a(bpabi.o)
 .bss           0x00000000        0x0 c:/progra~2/codesourcery/source~1/bin/../lib/gcc/arm-none-eabi/4.6.1/thumb2\libgcc.a(bpabi.o)
 .data          0x00000000        0x0 c:/progra~2/codesourcery/source~1/bin/../lib/gcc/arm-none-eabi/4.6.1/thumb2\libgcc.a(unwind-arm.o)
 .bss           0x00000000        0x0 c:/progra~2/codesourcery/source~1/bin/../lib/gcc/arm-none-eabi/4.6.1/thumb2\libgcc.a(unwind-arm.o)
 .data          0x00000000        0x0 c:/progra~2/codesourcery/source~1/bin/../lib/gcc/arm-none-eabi/4.6.1/thumb2\libgcc.a(libunwind.o)
 .bss           0x00000000        0x0 c:/progra~2/codesourcery/source~1/bin/../lib/gcc/arm-none-eabi/4.6.1/thumb2\libgcc.a(libunwind.o)
 .data          0x00000000        0x0 c:/progra~2/codesourcery/source~1/bin/../lib/gcc/arm-none-eabi/4.6.1/thumb2\libgcc.a(pr-support.o)
 .bss           0x00000000        0x0 c:/progra~2/codesourcery/source~1/bin/../lib/gcc/arm-none-eabi/4.6.1/thumb2\libgcc.a(pr-support.o)
 .data          0x00000000        0x0 c:/progra~2/codesourcery/source~1/bin/../lib/gcc/arm-none-eabi/4.6.1/thumb2\libgcc.a(_dvmd_tls.o)
 .bss           0x00000000        0x0 c:/progra~2/codesourcery/source~1/bin/../lib/gcc/arm-none-eabi/4.6.1/thumb2\libgcc.a(_dvmd_tls.o)
 .data          0x00000000        0x0 c:/progra~2/codesourcery/source~1/bin/../lib/gcc/arm-none-eabi/4.6.1/thumb2\libgcc.a(_divdi3.o)
 .bss           0x00000000        0x0 c:/progra~2/codesourcery/source~1/bin/../lib/gcc/arm-none-eabi/4.6.1/thumb2\libgcc.a(_divdi3.o)
 .ARM.extab     0x00000000        0x0 c:/progra~2/codesourcery/source~1/bin/../lib/gcc/arm-none-eabi/4.6.1/thumb2\libgcc.a(_divdi3.o)
 .data          0x00000000        0x0 c:/progra~2/codesourcery/source~1/bin/../lib/gcc/arm-none-eabi/4.6.1/thumb2\libgcc.a(_udivdi3.o)
 .bss           0x00000000        0x0 c:/progra~2/codesourcery/source~1/bin/../lib/gcc/arm-none-eabi/4.6.1/thumb2\libgcc.a(_udivdi3.o)
 .ARM.extab     0x00000000        0x0 c:/progra~2/codesourcery/source~1/bin/../lib/gcc/arm-none-eabi/4.6.1/thumb2\libgcc.a(_udivdi3.o)
 .data          0x00000000        0x0 c:/progra~2/codesourcery/source~1/bin/../lib/gcc/arm-none-eabi/4.6.1/thumb2\libgcc.a(_udivsi3.o)
 .bss           0x00000000        0x0 c:/progra~2/codesourcery/source~1/bin/../lib/gcc/arm-none-eabi/4.6.1/thumb2\libgcc.a(_udivsi3.o)
 .data          0x00000000        0x0 c:/progra~2/codesourcery/source~1/bin/../lib/gcc/arm-none-eabi/4.6.1/../../../../arm-none-eabi/lib/thumb2\libc.a(lib_a-abort.o)
 .bss           0x00000000        0x0 c:/progra~2/codesourcery/source~1/bin/../lib/gcc/arm-none-eabi/4.6.1/../../../../arm-none-eabi/lib/thumb2\libc.a(lib_a-abort.o)
 .data          0x00000000        0x0 c:/progra~2/codesourcery/source~1/bin/../lib/gcc/arm-none-eabi/4.6.1/../../../../arm-none-eabi/lib/thumb2\libc.a(lib_a-fputc.o)
 .bss           0x00000000        0x0 c:/progra~2/codesourcery/source~1/bin/../lib/gcc/arm-none-eabi/4.6.1/../../../../arm-none-eabi/lib/thumb2\libc.a(lib_a-fputc.o)
 .data          0x00000000        0x0 c:/progra~2/codesourcery/source~1/bin/../lib/gcc/arm-none-eabi/4.6.1/../../../../arm-none-eabi/lib/thumb2\libc.a(lib_a-fputs.o)
 .bss           0x00000000        0x0 c:/progra~2/codesourcery/source~1/bin/../lib/gcc/arm-none-eabi/4.6.1/../../../../arm-none-eabi/lib/thumb2\libc.a(lib_a-fputs.o)
 .data          0x00000000        0x0 c:/progra~2/codesourcery/source~1/bin/../lib/gcc/arm-none-eabi/4.6.1/../../../../arm-none-eabi/lib/thumb2\libc.a(lib_a-fvwrite.o)
 .bss           0x00000000        0x0 c:/progra~2/codesourcery/source~1/bin/../lib/gcc/arm-none-eabi/4.6.1/../../../../arm-none-eabi/lib/thumb2\libc.a(lib_a-fvwrite.o)
 .data          0x00000000        0x0 c:/progra~2/codesourcery/source~1/bin/../lib/gcc/arm-none-eabi/4.6.1/../../../../arm-none-eabi/lib/thumb2\libc.a(lib_a-fwrite.o)
 .bss           0x00000000        0x0 c:/progra~2/codesourcery/source~1/bin/../lib/gcc/arm-none-eabi/4.6.1/../../../../arm-none-eabi/lib/thumb2\libc.a(lib_a-fwrite.o)
 .text          0x00000000        0x0 c:/progra~2/codesourcery/source~1/bin/../lib/gcc/arm-none-eabi/4.6.1/../../../../arm-none-eabi/lib/thumb2\libc.a(lib_a-impure.o)
 .bss           0x00000000        0x0 c:/progra~2/codesourcery/source~1/bin/../lib/gcc/arm-none-eabi/4.6.1/../../../../arm-none-eabi/lib/thumb2\libc.a(lib_a-impure.o)
 .data          0x00000000        0x0 c:/progra~2/codesourcery/source~1/bin/../lib/gcc/arm-none-eabi/4.6.1/../../../../arm-none-eabi/lib/thumb2\libc.a(lib_a-init.o)
 .bss           0x00000000        0x0 c:/progra~2/codesourcery/source~1/bin/../lib/gcc/arm-none-eabi/4.6.1/../../../../arm-none-eabi/lib/thumb2\libc.a(lib_a-init.o)
 .data          0x00000000        0x0 c:/progra~2/codesourcery/source~1/bin/../lib/gcc/arm-none-eabi/4.6.1/../../../../arm-none-eabi/lib/thumb2\libc.a(lib_a-malloc.o)
 .bss           0x00000000        0x0 c:/progra~2/codesourcery/source~1/bin/../lib/gcc/arm-none-eabi/4.6.1/../../../../arm-none-eabi/lib/thumb2\libc.a(lib_a-malloc.o)
 .data          0x00000000        0x0 c:/progra~2/codesourcery/source~1/bin/../lib/gcc/arm-none-eabi/4.6.1/../../../../arm-none-eabi/lib/thumb2\libc.a(lib_a-memchr.o)
 .bss           0x00000000        0x0 c:/progra~2/codesourcery/source~1/bin/../lib/gcc/arm-none-eabi/4.6.1/../../../../arm-none-eabi/lib/thumb2\libc.a(lib_a-memchr.o)
 .data          0x00000000        0x0 c:/progra~2/codesourcery/source~1/bin/../lib/gcc/arm-none-eabi/4.6.1/../../../../arm-none-eabi/lib/thumb2\libc.a(lib_a-memcmp.o)
 .bss           0x00000000        0x0 c:/progra~2/codesourcery/source~1/bin/../lib/gcc/arm-none-eabi/4.6.1/../../../../arm-none-eabi/lib/thumb2\libc.a(lib_a-memcmp.o)
 .data          0x00000000        0x0 c:/progra~2/codesourcery/source~1/bin/../lib/gcc/arm-none-eabi/4.6.1/../../../../arm-none-eabi/lib/thumb2\libc.a(lib_a-memcpy.o)
 .bss           0x00000000        0x0 c:/progra~2/codesourcery/source~1/bin/../lib/gcc/arm-none-eabi/4.6.1/../../../../arm-none-eabi/lib/thumb2\libc.a(lib_a-memcpy.o)
 .data          0x00000000        0x0 c:/progra~2/codesourcery/source~1/bin/../lib/gcc/arm-none-eabi/4.6.1/../../../../arm-none-eabi/lib/thumb2\libc.a(lib_a-memmove.o)
 .bss           0x00000000        0x0 c:/progra~2/codesourcery/source~1/bin/../lib/gcc/arm-none-eabi/4.6.1/../../../../arm-none-eabi/lib/thumb2\libc.a(lib_a-memmove.o)
 .data          0x00000000        0x0 c:/progra~2/codesourcery/source~1/bin/../lib/gcc/arm-none-eabi/4.6.1/../../../../arm-none-eabi/lib/thumb2\libc.a(lib_a-memset.o)
 .bss           0x00000000        0x0 c:/progra~2/codesourcery/source~1/bin/../lib/gcc/arm-none-eabi/4.6.1/../../../../arm-none-eabi/lib/thumb2\libc.a(lib_a-memset.o)
 .data          0x00000000        0x0 c:/progra~2/codesourcery/source~1/bin/../lib/gcc/arm-none-eabi/4.6.1/../../../../arm-none-eabi/lib/thumb2\libc.a(lib_a-mlock.o)
 .bss           0x00000000        0x0 c:/progra~2/codesourcery/source~1/bin/../lib/gcc/arm-none-eabi/4.6.1/../../../../arm-none-eabi/lib/thumb2\libc.a(lib_a-mlock.o)
 .data          0x00000000        0x0 c:/progra~2/codesourcery/source~1/bin/../lib/gcc/arm-none-eabi/4.6.1/../../../../arm-none-eabi/lib/thumb2\libc.a(lib_a-putc.o)
 .bss           0x00000000        0x0 c:/progra~2/codesourcery/source~1/bin/../lib/gcc/arm-none-eabi/4.6.1/../../../../arm-none-eabi/lib/thumb2\libc.a(lib_a-putc.o)
 .data          0x00000000        0x0 c:/progra~2/codesourcery/source~1/bin/../lib/gcc/arm-none-eabi/4.6.1/../../../../arm-none-eabi/lib/thumb2\libc.a(lib_a-rand.o)
 .bss           0x00000000        0x0 c:/progra~2/codesourcery/source~1/bin/../lib/gcc/arm-none-eabi/4.6.1/../../../../arm-none-eabi/lib/thumb2\libc.a(lib_a-rand.o)
 .data          0x00000000        0x0 c:/progra~2/codesourcery/source~1/bin/../lib/gcc/arm-none-eabi/4.6.1/../../../../arm-none-eabi/lib/thumb2\libc.a(lib_a-realloc.o)
 .bss           0x00000000        0x0 c:/progra~2/codesourcery/source~1/bin/../lib/gcc/arm-none-eabi/4.6.1/../../../../arm-none-eabi/lib/thumb2\libc.a(lib_a-realloc.o)
 .data          0x00000000        0x0 c:/progra~2/codesourcery/source~1/bin/../lib/gcc/arm-none-eabi/4.6.1/../../../../arm-none-eabi/lib/thumb2\libc.a(lib_a-reallocr.o)
 .bss           0x00000000        0x0 c:/progra~2/codesourcery/source~1/bin/../lib/gcc/arm-none-eabi/4.6.1/../../../../arm-none-eabi/lib/thumb2\libc.a(lib_a-reallocr.o)
 .text          0x00000000      0x114 c:/progra~2/codesourcery/source~1/bin/../lib/gcc/arm-none-eabi/4.6.1/../../../../arm-none-eabi/lib/thumb2\libc.a(lib_a-reent.o)
 .data          0x00000000        0x0 c:/progra~2/codesourcery/source~1/bin/../lib/gcc/arm-none-eabi/4.6.1/../../../../arm-none-eabi/lib/thumb2\libc.a(lib_a-reent.o)
 .bss           0x00000000        0x0 c:/progra~2/codesourcery/source~1/bin/../lib/gcc/arm-none-eabi/4.6.1/../../../../arm-none-eabi/lib/thumb2\libc.a(lib_a-reent.o)
 .data          0x00000000        0x0 c:/progra~2/codesourcery/source~1/bin/../lib/gcc/arm-none-eabi/4.6.1/../../../../arm-none-eabi/lib/thumb2\libc.a(lib_a-sbrkr.o)
 .bss           0x00000000        0x0 c:/progra~2/codesourcery/source~1/bin/../lib/gcc/arm-none-eabi/4.6.1/../../../../arm-none-eabi/lib/thumb2\libc.a(lib_a-sbrkr.o)
 .data          0x00000000        0x0 c:/progra~2/codesourcery/source~1/bin/../lib/gcc/arm-none-eabi/4.6.1/../../../../arm-none-eabi/lib/thumb2\libc.a(lib_a-signal.o)
 .bss           0x00000000        0x0 c:/progra~2/codesourcery/source~1/bin/../lib/gcc/arm-none-eabi/4.6.1/../../../../arm-none-eabi/lib/thumb2\libc.a(lib_a-signal.o)
 .data          0x00000000        0x0 c:/progra~2/codesourcery/source~1/bin/../lib/gcc/arm-none-eabi/4.6.1/../../../../arm-none-eabi/lib/thumb2\libc.a(lib_a-signalr.o)
 .bss           0x00000000        0x0 c:/progra~2/codesourcery/source~1/bin/../lib/gcc/arm-none-eabi/4.6.1/../../../../arm-none-eabi/lib/thumb2\libc.a(lib_a-signalr.o)
 .data          0x00000000        0x0 c:/progra~2/codesourcery/source~1/bin/../lib/gcc/arm-none-eabi/4.6.1/../../../../arm-none-eabi/lib/thumb2\libc.a(lib_a-sprintf.o)
 .bss           0x00000000        0x0 c:/progra~2/codesourcery/source~1/bin/../lib/gcc/arm-none-eabi/4.6.1/../../../../arm-none-eabi/lib/thumb2\libc.a(lib_a-sprintf.o)
 .data          0x00000000        0x0 c:/progra~2/codesourcery/source~1/bin/../lib/gcc/arm-none-eabi/4.6.1/../../../../arm-none-eabi/lib/thumb2\libc.a(lib_a-strchr.o)
 .bss           0x00000000        0x0 c:/progra~2/codesourcery/source~1/bin/../lib/gcc/arm-none-eabi/4.6.1/../../../../arm-none-eabi/lib/thumb2\libc.a(lib_a-strchr.o)
 .data          0x00000000        0x0 c:/progra~2/codesourcery/source~1/bin/../lib/gcc/arm-none-eabi/4.6.1/../../../../arm-none-eabi/lib/thumb2\libc.a(lib_a-strcmp.o)
 .bss           0x00000000        0x0 c:/progra~2/codesourcery/source~1/bin/../lib/gcc/arm-none-eabi/4.6.1/../../../../arm-none-eabi/lib/thumb2\libc.a(lib_a-strcmp.o)
 .data          0x00000000        0x0 c:/progra~2/codesourcery/source~1/bin/../lib/gcc/arm-none-eabi/4.6.1/../../../../arm-none-eabi/lib/thumb2\libc.a(lib_a-strcpy.o)
 .bss           0x00000000        0x0 c:/progra~2/codesourcery/source~1/bin/../lib/gcc/arm-none-eabi/4.6.1/../../../../arm-none-eabi/lib/thumb2\libc.a(lib_a-strcpy.o)
 .data          0x00000000        0x0 c:/progra~2/codesourcery/source~1/bin/../lib/gcc/arm-none-eabi/4.6.1/../../../../arm-none-eabi/lib/thumb2\libc.a(lib_a-strlen.o)
 .bss           0x00000000        0x0 c:/progra~2/codesourcery/source~1/bin/../lib/gcc/arm-none-eabi/4.6.1/../../../../arm-none-eabi/lib/thumb2\libc.a(lib_a-strlen.o)
 .data          0x00000000        0x0 c:/progra~2/codesourcery/source~1/bin/../lib/gcc/arm-none-eabi/4.6.1/../../../../arm-none-eabi/lib/thumb2\libc.a(lib_a-strncmp.o)
 .bss           0x00000000        0x0 c:/progra~2/codesourcery/source~1/bin/../lib/gcc/arm-none-eabi/4.6.1/../../../../arm-none-eabi/lib/thumb2\libc.a(lib_a-strncmp.o)
 .data          0x00000000        0x0 c:/progra~2/codesourcery/source~1/bin/../lib/gcc/arm-none-eabi/4.6.1/../../../../arm-none-eabi/lib/thumb2\libc.a(lib_a-strncpy.o)
 .bss           0x00000000        0x0 c:/progra~2/codesourcery/source~1/bin/../lib/gcc/arm-none-eabi/4.6.1/../../../../arm-none-eabi/lib/thumb2\libc.a(lib_a-strncpy.o)
 .data          0x00000000        0x0 c:/progra~2/codesourcery/source~1/bin/../lib/gcc/arm-none-eabi/4.6.1/../../../../arm-none-eabi/lib/thumb2\libc.a(lib_a-strrchr.o)
 .bss           0x00000000        0x0 c:/progra~2/codesourcery/source~1/bin/../lib/gcc/arm-none-eabi/4.6.1/../../../../arm-none-eabi/lib/thumb2\libc.a(lib_a-strrchr.o)
 .data          0x00000000        0x0 c:/progra~2/codesourcery/source~1/bin/../lib/gcc/arm-none-eabi/4.6.1/../../../../arm-none-eabi/lib/thumb2\libc.a(lib_a-svfprintf.o)
 .bss           0x00000000        0x0 c:/progra~2/codesourcery/source~1/bin/../lib/gcc/arm-none-eabi/4.6.1/../../../../arm-none-eabi/lib/thumb2\libc.a(lib_a-svfprintf.o)
 .data          0x00000000        0x0 c:/progra~2/codesourcery/source~1/bin/../lib/gcc/arm-none-eabi/4.6.1/../../../../arm-none-eabi/lib/thumb2\libc.a(lib_a-syswrite.o)
 .bss           0x00000000        0x0 c:/progra~2/codesourcery/source~1/bin/../lib/gcc/arm-none-eabi/4.6.1/../../../../arm-none-eabi/lib/thumb2\libc.a(lib_a-syswrite.o)
 .data          0x00000000        0x0 c:/progra~2/codesourcery/source~1/bin/../lib/gcc/arm-none-eabi/4.6.1/../../../../arm-none-eabi/lib/thumb2\libc.a(lib_a-wbuf.o)
 .bss           0x00000000        0x0 c:/progra~2/codesourcery/source~1/bin/../lib/gcc/arm-none-eabi/4.6.1/../../../../arm-none-eabi/lib/thumb2\libc.a(lib_a-wbuf.o)
 .data          0x00000000        0x0 c:/progra~2/codesourcery/source~1/bin/../lib/gcc/arm-none-eabi/4.6.1/../../../../arm-none-eabi/lib/thumb2\libc.a(lib_a-writer.o)
 .bss           0x00000000        0x0 c:/progra~2/codesourcery/source~1/bin/../lib/gcc/arm-none-eabi/4.6.1/../../../../arm-none-eabi/lib/thumb2\libc.a(lib_a-writer.o)
 .data          0x00000000        0x0 c:/progra~2/codesourcery/source~1/bin/../lib/gcc/arm-none-eabi/4.6.1/../../../../arm-none-eabi/lib/thumb2\libc.a(lib_a-wsetup.o)
 .bss           0x00000000        0x0 c:/progra~2/codesourcery/source~1/bin/../lib/gcc/arm-none-eabi/4.6.1/../../../../arm-none-eabi/lib/thumb2\libc.a(lib_a-wsetup.o)
 .data          0x00000000        0x0 c:/progra~2/codesourcery/source~1/bin/../lib/gcc/arm-none-eabi/4.6.1/../../../../arm-none-eabi/lib/thumb2\libc.a(lib_a-dtoa.o)
 .bss           0x00000000        0x0 c:/progra~2/codesourcery/source~1/bin/../lib/gcc/arm-none-eabi/4.6.1/../../../../arm-none-eabi/lib/thumb2\libc.a(lib_a-dtoa.o)
 .data          0x00000000        0x0 c:/progra~2/codesourcery/source~1/bin/../lib/gcc/arm-none-eabi/4.6.1/../../../../arm-none-eabi/lib/thumb2\libc.a(lib_a-fflush.o)
 .bss           0x00000000        0x0 c:/progra~2/codesourcery/source~1/bin/../lib/gcc/arm-none-eabi/4.6.1/../../../../arm-none-eabi/lib/thumb2\libc.a(lib_a-fflush.o)
 .data          0x00000000        0x0 c:/progra~2/codesourcery/source~1/bin/../lib/gcc/arm-none-eabi/4.6.1/../../../../arm-none-eabi/lib/thumb2\libc.a(lib_a-findfp.o)
 .bss           0x00000000        0x0 c:/progra~2/codesourcery/source~1/bin/../lib/gcc/arm-none-eabi/4.6.1/../../../../arm-none-eabi/lib/thumb2\libc.a(lib_a-findfp.o)
 .data          0x00000000        0x0 c:/progra~2/codesourcery/source~1/bin/../lib/gcc/arm-none-eabi/4.6.1/../../../../arm-none-eabi/lib/thumb2\libc.a(lib_a-freer.o)
 .bss           0x00000000        0x0 c:/progra~2/codesourcery/source~1/bin/../lib/gcc/arm-none-eabi/4.6.1/../../../../arm-none-eabi/lib/thumb2\libc.a(lib_a-freer.o)
 .data          0x00000000        0x0 c:/progra~2/codesourcery/source~1/bin/../lib/gcc/arm-none-eabi/4.6.1/../../../../arm-none-eabi/lib/thumb2\libc.a(lib_a-fwalk.o)
 .bss           0x00000000        0x0 c:/progra~2/codesourcery/source~1/bin/../lib/gcc/arm-none-eabi/4.6.1/../../../../arm-none-eabi/lib/thumb2\libc.a(lib_a-fwalk.o)
 .bss           0x00000000        0xc c:/progra~2/codesourcery/source~1/bin/../lib/gcc/arm-none-eabi/4.6.1/../../../../arm-none-eabi/lib/thumb2\libc.a(lib_a-locale.o)
 .data          0x00000000        0x0 c:/progra~2/codesourcery/source~1/bin/../lib/gcc/arm-none-eabi/4.6.1/../../../../arm-none-eabi/lib/thumb2\libc.a(lib_a-makebuf.o)
 .bss           0x00000000        0x0 c:/progra~2/codesourcery/source~1/bin/../lib/gcc/arm-none-eabi/4.6.1/../../../../arm-none-eabi/lib/thumb2\libc.a(lib_a-makebuf.o)
 .data          0x00000000        0x0 c:/progra~2/codesourcery/source~1/bin/../lib/gcc/arm-none-eabi/4.6.1/../../../../arm-none-eabi/lib/thumb2\libc.a(lib_a-mprec.o)
 .bss           0x00000000        0x0 c:/progra~2/codesourcery/source~1/bin/../lib/gcc/arm-none-eabi/4.6.1/../../../../arm-none-eabi/lib/thumb2\libc.a(lib_a-mprec.o)
 .data          0x00000000        0x0 c:/progra~2/codesourcery/source~1/bin/../lib/gcc/arm-none-eabi/4.6.1/../../../../arm-none-eabi/lib/thumb2\libc.a(lib_a-s_fpclassify.o)
 .bss           0x00000000        0x0 c:/progra~2/codesourcery/source~1/bin/../lib/gcc/arm-none-eabi/4.6.1/../../../../arm-none-eabi/lib/thumb2\libc.a(lib_a-s_fpclassify.o)
 .data          0x00000000        0x0 c:/progra~2/codesourcery/source~1/bin/../lib/gcc/arm-none-eabi/4.6.1/../../../../arm-none-eabi/lib/thumb2\libc.a(lib_a-stdio.o)
 .bss           0x00000000        0x0 c:/progra~2/codesourcery/source~1/bin/../lib/gcc/arm-none-eabi/4.6.1/../../../../arm-none-eabi/lib/thumb2\libc.a(lib_a-stdio.o)
 .data          0x00000000        0x0 c:/progra~2/codesourcery/source~1/bin/../lib/gcc/arm-none-eabi/4.6.1/../../../../arm-none-eabi/lib/thumb2\libc.a(lib_a-svfiprintf.o)
 .bss           0x00000000        0x0 c:/progra~2/codesourcery/source~1/bin/../lib/gcc/arm-none-eabi/4.6.1/../../../../arm-none-eabi/lib/thumb2\libc.a(lib_a-svfiprintf.o)
 .data          0x00000000        0x0 c:/progra~2/codesourcery/source~1/bin/../lib/gcc/arm-none-eabi/4.6.1/../../../../arm-none-eabi/lib/thumb2\libc.a(lib_a-callocr.o)
 .bss           0x00000000        0x0 c:/progra~2/codesourcery/source~1/bin/../lib/gcc/arm-none-eabi/4.6.1/../../../../arm-none-eabi/lib/thumb2\libc.a(lib_a-callocr.o)
 .data          0x00000000        0x0 c:/progra~2/codesourcery/source~1/bin/../lib/gcc/arm-none-eabi/4.6.1/../../../../arm-none-eabi/lib/thumb2\libc.a(lib_a-closer.o)
 .bss           0x00000000        0x0 c:/progra~2/codesourcery/source~1/bin/../lib/gcc/arm-none-eabi/4.6.1/../../../../arm-none-eabi/lib/thumb2\libc.a(lib_a-closer.o)
 .data          0x00000000        0x0 c:/progra~2/codesourcery/source~1/bin/../lib/gcc/arm-none-eabi/4.6.1/../../../../arm-none-eabi/lib/thumb2\libc.a(lib_a-fclose.o)
 .bss           0x00000000        0x0 c:/progra~2/codesourcery/source~1/bin/../lib/gcc/arm-none-eabi/4.6.1/../../../../arm-none-eabi/lib/thumb2\libc.a(lib_a-fclose.o)
 .data          0x00000000        0x0 c:/progra~2/codesourcery/source~1/bin/../lib/gcc/arm-none-eabi/4.6.1/../../../../arm-none-eabi/lib/thumb2\libc.a(lib_a-fstatr.o)
 .bss           0x00000000        0x0 c:/progra~2/codesourcery/source~1/bin/../lib/gcc/arm-none-eabi/4.6.1/../../../../arm-none-eabi/lib/thumb2\libc.a(lib_a-fstatr.o)
 .data          0x00000000        0x0 c:/progra~2/codesourcery/source~1/bin/../lib/gcc/arm-none-eabi/4.6.1/../../../../arm-none-eabi/lib/thumb2\libc.a(lib_a-isattyr.o)
 .bss           0x00000000        0x0 c:/progra~2/codesourcery/source~1/bin/../lib/gcc/arm-none-eabi/4.6.1/../../../../arm-none-eabi/lib/thumb2\libc.a(lib_a-isattyr.o)
 .data          0x00000000        0x0 c:/progra~2/codesourcery/source~1/bin/../lib/gcc/arm-none-eabi/4.6.1/../../../../arm-none-eabi/lib/thumb2\libc.a(lib_a-lseekr.o)
 .bss           0x00000000        0x0 c:/progra~2/codesourcery/source~1/bin/../lib/gcc/arm-none-eabi/4.6.1/../../../../arm-none-eabi/lib/thumb2\libc.a(lib_a-lseekr.o)
 .data          0x00000000        0x0 c:/progra~2/codesourcery/source~1/bin/../lib/gcc/arm-none-eabi/4.6.1/../../../../arm-none-eabi/lib/thumb2\libc.a(lib_a-readr.o)
 .bss           0x00000000        0x0 c:/progra~2/codesourcery/source~1/bin/../lib/gcc/arm-none-eabi/4.6.1/../../../../arm-none-eabi/lib/thumb2\libc.a(lib_a-readr.o)
 .data          0x00000000        0x0 c:/progra~2/codesourcery/source~1/bin/../lib/gcc/arm-none-eabi/4.6.1/thumb2\libgcc.a(_arm_addsubdf3.o)
 .bss           0x00000000        0x0 c:/progra~2/codesourcery/source~1/bin/../lib/gcc/arm-none-eabi/4.6.1/thumb2\libgcc.a(_arm_addsubdf3.o)
 .data          0x00000000        0x0 c:/progra~2/codesourcery/source~1/bin/../lib/gcc/arm-none-eabi/4.6.1/thumb2\libgcc.a(_arm_muldivdf3.o)
 .bss           0x00000000        0x0 c:/progra~2/codesourcery/source~1/bin/../lib/gcc/arm-none-eabi/4.6.1/thumb2\libgcc.a(_arm_muldivdf3.o)
 .data          0x00000000        0x0 c:/progra~2/codesourcery/source~1/bin/../lib/gcc/arm-none-eabi/4.6.1/thumb2\libgcc.a(_arm_cmpdf2.o)
 .bss           0x00000000        0x0 c:/progra~2/codesourcery/source~1/bin/../lib/gcc/arm-none-eabi/4.6.1/thumb2\libgcc.a(_arm_cmpdf2.o)
 .data          0x00000000        0x0 c:/progra~2/codesourcery/source~1/bin/../lib/gcc/arm-none-eabi/4.6.1/thumb2\libgcc.a(_arm_fixdfsi.o)
 .bss           0x00000000        0x0 c:/progra~2/codesourcery/source~1/bin/../lib/gcc/arm-none-eabi/4.6.1/thumb2\libgcc.a(_arm_fixdfsi.o)
 .text          0x00000000        0x0 c:/progra~2/codesourcery/source~1/bin/../lib/gcc/arm-none-eabi/4.6.1/thumb2/crtend.o
 .data          0x00000000        0x0 c:/progra~2/codesourcery/source~1/bin/../lib/gcc/arm-none-eabi/4.6.1/thumb2/crtend.o
 .bss           0x00000000        0x0 c:/progra~2/codesourcery/source~1/bin/../lib/gcc/arm-none-eabi/4.6.1/thumb2/crtend.o
 .eh_frame      0x00000000        0x4 c:/progra~2/codesourcery/source~1/bin/../lib/gcc/arm-none-eabi/4.6.1/thumb2/crtend.o
 .jcr           0x00000000        0x4 c:/progra~2/codesourcery/source~1/bin/../lib/gcc/arm-none-eabi/4.6.1/thumb2/crtend.o
 .ARM.attributes
                0x00000000       0x2b c:/progra~2/codesourcery/source~1/bin/../lib/gcc/arm-none-eabi/4.6.1/thumb2/crtend.o
 .text          0x00000000        0x0 c:/progra~2/codesourcery/source~1/bin/../lib/gcc/arm-none-eabi/4.6.1/thumb2/crtn.o
 .data          0x00000000        0x0 c:/progra~2/codesourcery/source~1/bin/../lib/gcc/arm-none-eabi/4.6.1/thumb2/crtn.o
 .bss           0x00000000        0x0 c:/progra~2/codesourcery/source~1/bin/../lib/gcc/arm-none-eabi/4.6.1/thumb2/crtn.o

Memory Configuration

Name             Origin             Length             Attributes
IROM             0x00003000         0x0007e000         xr
IRAM0            0x10000000         0x00007000         xrw
IRAM1            0x2007c000         0x00004000         xrw
IRAM2            0x20080000         0x00004000         xrw
*default*        0x00000000         0xffffffff

Linker script and memory map

LOAD c:/progra~2/codesourcery/source~1/bin/../lib/gcc/arm-none-eabi/4.6.1/thumb2/crti.o
LOAD c:/progra~2/codesourcery/source~1/bin/../lib/gcc/arm-none-eabi/4.6.1/thumb2/crtbegin.o
LOAD build\system\core_cm3.o
LOAD build\system\startup_LPC17xx.o
LOAD build\system\syscalls.o
LOAD build\system\system_LPC17xx.o
LOAD build\system\mini_cpp.o
LOAD build\lib\source\Uart32.o
LOAD build\lib\source\lpc17xx_adc.o
LOAD build\lib\source\lpc17xx_clkpwr.o
LOAD build\lib\source\lpc17xx_gpio.o
LOAD build\lib\source\lpc17xx_i2c.o
LOAD build\lib\source\lpc17xx_libcfg_default.o
LOAD build\lib\source\lpc17xx_nvic.o
LOAD build\lib\source\lpc17xx_pinsel.o
LOAD build\lib\source\lpc17xx_spi.o
LOAD build\lib\source\lpc17xx_timer.o
LOAD build\lib\source\lpc17xx_uart.o
LOAD build\lib_sd\byteordering.o
LOAD build\lib_sd\fat.o
LOAD build\lib_sd\partition.o
LOAD build\lib_sd\sd_raw.o
LOAD build\IAP_internal_flash_write\IAP.o
LOAD build\USBCDC\cdcuser.o
LOAD build\USBCDC\serial.o
LOAD build\USBCDC\usbcore.o
LOAD build\USBCDC\usbdesc.o
LOAD build\USBCDC\usbhw.o
LOAD build\USBCDC\usbuser.o
LOAD build\USBCDC\vcomdemo.o
LOAD build\Atomic.o
LOAD build\ButtonArray.o
LOAD build\Command.o
LOAD build\DebugPacketProcessor.o
LOAD build\Delay.o
LOAD build\EepromMap.o
LOAD build\Host.o
LOAD build\Interface.o
LOAD build\InterfaceBoard.o
LOAD build\LPCPort.o
LOAD build\LiquidCrystal.o
LOAD build\Main.o
LOAD build\Menu.o
LOAD build\Microsteps.o
LOAD build\Motherboard.o
LOAD build\PID.o
LOAD build\Packet.o
LOAD build\SDCard.o
LOAD build\StepperAxis.o
LOAD build\StepperInterface.o
LOAD build\Steppers.o
LOAD build\Timeout.o
LOAD build\Tool.o
LOAD build\UART.o
LOAD build\test.o
LOAD build\test_led.o
LOAD build\test_u.o

.text           0x00003000    0x268fc
 *(.isr_vector .isr_vector.*)
 .isr_vector    0x00003000       0xc4 build\system\startup_LPC17xx.o
                0x00003000                g_pfnVectors
 *(.text .text.*)
 .text          0x000030c4       0x68 c:/progra~2/codesourcery/source~1/bin/../lib/gcc/arm-none-eabi/4.6.1/thumb2/crtbegin.o
 .text          0x0000312c      0x124 build\system\startup_LPC17xx.o
                0x0000312c                Reset_Handler
                0x00003248                DebugMon_Handler
                0x00003248                RIT_IRQHandler
                0x00003248                I2C0_IRQHandler
                0x00003248                SysTick_Handler
                0x00003248                PWM1_IRQHandler
                0x00003248                PendSV_Handler
                0x00003248                I2C1_IRQHandler
                0x00003248                EINT2_IRQHandler
                0x00003248                EINT3_IRQHandler
                0x00003248                TIMER3_IRQHandler
                0x00003248                UART0_IRQHandler
                0x00003248                UsageFault_Handler
                0x00003248                PLL0_IRQHandler
                0x00003248                CAN_IRQHandler
                0x00003248                PLL1_IRQHandler
                0x00003248                SSP0_IRQHandler
                0x00003248                I2S_IRQHandler
                0x00003248                I2C2_IRQHandler
                0x00003248                RTC_IRQHandler
                0x00003248                TIMER2_IRQHandler
                0x00003248                SPI_IRQHandler
                0x00003248                EINT1_IRQHandler
                0x00003248                UART2_IRQHandler
                0x00003248                Default_Handler
                0x00003248                ADC_IRQHandler
                0x00003248                SSP1_IRQHandler
                0x00003248                BOD_IRQHandler
                0x00003248                MemManage_Handler
                0x00003248                WDT_IRQHandler
                0x00003248                SVC_Handler
                0x00003248                QEI_IRQHandler
                0x00003248                EINT0_IRQHandler
                0x00003248                DMA_IRQHandler
                0x00003248                BusFault_Handler
                0x00003248                UART3_IRQHandler
                0x00003248                MCPWM_IRQHandler
                0x00003248                ENET_IRQHandler
 .text          0x00003250      0x1ac build\system\syscalls.o
                0x00003250                _kill
                0x00003278                _exit
                0x00003284                _getpid
                0x00003294                get_heap_end
                0x000032ac                get_stack_top
                0x000032c0                _sbrk
                0x00003334                _close
                0x0000334c                _fstat
                0x00003370                _isatty
                0x00003388                _lseek
                0x000033a4                _read
                0x000033c0                _write
 .text          0x000033fc      0x434 build\system\system_LPC17xx.o
                0x000033fc                SystemCoreClockUpdate
                0x00003614                SystemInit
 .text          0x00003830       0x6c build\system\mini_cpp.o
                0x00003830                operator new(unsigned int)
                0x0000384c                operator new[](unsigned int)
                0x00003868                operator delete(void*)
                0x00003880                __aeabi_atexit
 .text          0x0000389c       0xec build\lib\source\Uart32.o
                0x0000389c                UART_8
                0x000038bc                UART_32_DEC
                0x00003924                UART_32_HEX
 .text          0x00003988      0x29c build\lib\source\lpc17xx_clkpwr.o
                0x00003988                CLKPWR_SetPCLKDiv
                0x00003a4c                CLKPWR_GetPCLKSEL
                0x00003aa0                CLKPWR_GetPCLK
                0x00003b10                CLKPWR_ConfigPPWR
                0x00003b84                CLKPWR_Sleep
                0x00003ba0                CLKPWR_DeepSleep
                0x00003bcc                CLKPWR_PowerDown
                0x00003bf8                CLKPWR_DeepPowerDown
 .text          0x00003c24      0x8a4 build\lib\source\lpc17xx_gpio.o
                0x00003d98                GPIO_SetDir
                0x00003de4                GPIO_GetDir
                0x00003e14                GPIO_SetValue
                0x00003e40                GPIO_ClearValue
                0x00003e6c                GPIO_ReadValue
                0x00003e9c                GPIO_IntCmd
                0x00003f20                GPIO_GetIntStatus
                0x00003fd8                GPIO_ClearInt
                0x00004018                FIO_SetDir
                0x00004040                FIO_SetValue
                0x00004060                FIO_ClearValue
                0x00004080                FIO_ReadValue
                0x000040a0                FIO_IntCmd
                0x000040c8                FIO_GetIntStatus
                0x000040f4                FIO_ClearInt
                0x00004114                FIO_SetMask
                0x00004144                FIO_HalfWordSetDir
                0x000041d8                FIO_HalfWordSetMask
                0x0000426c                FIO_HalfWordSetValue
                0x000042ac                FIO_HalfWordClearValue
                0x000042ec                FIO_HalfWordReadValue
                0x00004330                FIO_ByteSetDir
                0x0000439c                FIO_ByteSetMask
                0x00004410                FIO_ByteSetValue
                0x0000444c                FIO_ByteClearValue
                0x00004488                FIO_ByteReadValue
 .text          0x000044c8        0xc build\lib\source\lpc17xx_libcfg_default.o
                0x000044c8                check_failed
 .text          0x000044d4      0x298 build\lib\source\lpc17xx_pinsel.o
                0x00004688                PINSEL_ConfigTraceFunc
                0x000046dc                PINSEL_SetI2C0Pins
                0x00004718                PINSEL_ConfigPin
 .text          0x0000476c      0x5c8 build\lib\source\lpc17xx_spi.o
                0x0000476c                SPI_SetClock
                0x000047f0                SPI_DeInit
                0x00004838                SPI_GetDataSize
                0x00004878                SPI_Init
                0x00004918                SPI_ConfigStructInit
                0x00004960                SPI_SendData
                0x00004998                SPI_ReceiveData
                0x000049d0                SPI_ReadWrite
                0x00004bc4                SPI_IntCmd
                0x00004c34                SPI_GetIntStatus
                0x00004c70                SPI_ClearIntPending
                0x00004ca8                SPI_GetStatus
                0x00004ce0                SPI_CheckStatus
 .text          0x00004d34      0xb64 build\lib\source\lpc17xx_timer.o
                0x00004e64                TIM_GetIntStatus
                0x00004f18                TIM_GetIntCaptureStatus
                0x00004fd0                TIM_ClearIntPending
                0x0000506c                TIM_ClearIntCapturePending
                0x0000510c                TIM_ConfigStructInit
                0x0000514c                TIM_Init
                0x00005314                TIM_DeInit
                0x000053d8                TIM_Cmd
                0x00005450                TIM_ResetCounter
                0x000054bc                TIM_ConfigMatch
                0x0000567c                TIM_UpdateMatchValue
                0x00005714                TIM_ConfigCapture
                0x00005814                TIM_GetCaptureValue
 .text          0x00005898     0x186c build\lib\source\lpc17xx_uart.o
                0x00005b9c                UART_Init
                0x00005f04                UART_DeInit
                0x00005fd0                UART_ConfigStructInit
                0x00006004                UART_SendByte
                0x0000607c                UART_ReceiveByte
                0x000060f4                UART_Send
                0x00006200                UART_Receive
                0x000062d8                UART_ForceBreak
                0x00006360                UART_IntConfig
                0x00006520                UART_GetLineStatus
                0x0000659c                UART_GetIntId
                0x00006600                UART_CheckBusy
                0x0000662c                UART_FIFOConfig
                0x000067b0                UART_FIFOConfigStructInit
                0x000067e4                UART_ABCmd
                0x00006940                UART_ABClearIntPending
                0x000069c4                UART_TxCmd
                0x00006aac                UART_IrDAInvtInputCmd
                0x00006b30                UART_IrDACmd
                0x00006bb0                UART_IrDAPulseDivConfig
                0x00006c58                UART_FullModemForcePinState
                0x00006d24                UART_FullModemConfigMode
                0x00006df8                UART_FullModemGetStatus
                0x00006e30                UART_RS485Config
                0x00006fec                UART_RS485ReceiverCmd
                0x00007034                UART_RS485Send
                0x000070b4                UART_RS485SendSlvAddr
                0x000070dc                UART_RS485SendData
 .text          0x00007104     0x1d4c build\lib_sd\fat.o
                0x00007104                fat_open
                0x000071a8                fat_close
                0x000077a4                fat_get_dir_entry_of_path
                0x000078dc                fat_open_file
                0x000079b0                fat_close_file
                0x000079d0                fat_read_file
                0x00007b5c                fat_write_file
                0x00007d7c                fat_seek_file
                0x00007e18                fat_resize_file
                0x00007f58                fat_open_dir
                0x00008024                fat_close_dir
                0x00008044                fat_read_dir
                0x000081e8                fat_reset_dir
                0x00008a28                fat_create_file
                0x00008ae4                fat_delete_file
                0x00008b9c                fat_create_dir
                0x00008d20                fat_get_fs_size
                0x00008d54                fat_get_fs_free
 .text          0x00008e50      0x174 build\lib_sd\partition.o
                0x00008e50                partition_open
                0x00008f98                partition_close
 .text          0x00008fc4      0xb84 build\lib_sd\sd_raw.o
                0x00008fc4                sd_raw_init
                0x000092d0                sd_raw_available
                0x000092fc                sd_raw_locked
                0x0000942c                sd_raw_read
                0x00009554                sd_raw_read_interval
                0x000095d4                sd_raw_write
                0x00009750                sd_raw_write_interval
                0x000097ec                sd_raw_sync
                0x00009844                sd_raw_get_info
 .text          0x00009b48      0x214 build\IAP_internal_flash_write\IAP.o
                0x00009b48                IAP::read_ID()
                0x00009b7c                IAP::read_serial()
                0x00009bb0                IAP::blank_check(int, int)
                0x00009bf4                IAP::erase(int, int)
                0x00009c44                IAP::prepare(int, int)
                0x00009c88                IAP::write(char*, char*, int)
                0x00009ce0                IAP::compare(char*, char*, int)
                0x00009d2c                IAP::reserved_flash_area_start()
                0x00009d44                IAP::reserved_flash_area_size()
 .text          0x00009d5c      0x594 build\USBCDC\cdcuser.o
                0x00009d98                CDC_RdOutBuf
                0x00009e14                CDC_WrOutBuf
                0x00009e78                CDC_OutBufAvailChar
                0x00009eb0                CDC_SendEncapsulatedCommand
                0x00009ec0                CDC_GetEncapsulatedResponse
                0x00009ed0                CDC_SetCommFeature
                0x00009eec                CDC_GetCommFeature
                0x00009f08                CDC_ClearCommFeature
                0x00009f24                CDC_SetLineCoding
                0x00009fb8                CDC_GetLineCoding
                0x0000a068                CDC_SetControlLineState
                0x0000a084                CDC_SendBreak
                0x0000a0a0                CDC_BulkIn
                0x0000a0f4                CDC_BulkOut
                0x0000a104                CDC_GetSerialState
                0x0000a234                CDC_NotificationIn
 .text          0x0000a2f0      0x2bc build\USBCDC\serial.o
                0x0000a2f0                ser_OpenPort
                0x0000a304                ser_ClosePort
                0x0000a318                ser_InitPort0
                0x0000a390                ser_Read
                0x0000a430                ser_Write
                0x0000a548                ser_AvailChar
                0x0000a57c                ser_LineState
 .text          0x0000a5ac     0x1150 build\USBCDC\usbcore.o
                0x0000a5ac                USB_ResetCore
                0x0000a60c                USB_SetupStage
                0x0000a624                USB_DataInStage
                0x0000a6a0                USB_DataOutStage
                0x0000a6f8                USB_StatusInStage
                0x0000a710                USB_StatusOutStage
                0x0000a728                USB_ReqGetStatus
                0x0000a890                USB_ReqSetClrFeature
                0x0000aa10                USB_ReqSetAddress
                0x0000aa58                USB_ReqGetDescriptor
                0x0000abbc                USB_ReqGetConfiguration
                0x0000abfc                USB_ReqSetConfiguration
                0x0000aef8                USB_ReqGetInterface
                0x0000af70                USB_ReqSetInterface
                0x0000b19c                USB_EndPoint0
 .text          0x0000b6fc      0xaa8 build\USBCDC\usbhw.o
                0x0000b790                EPAdr
                0x0000b7c4                WrCmd
                0x0000b80c                WrCmdDat
                0x0000b888                WrCmdEP
                0x0000b910                RdCmdDat
                0x0000b964                USB_Init
                0x0000bab0                USB_Connect
                0x0000bae4                USB_Reset
                0x0000bb84                USB_Suspend
                0x0000bb90                USB_Resume
                0x0000bb9c                USB_WakeUp
                0x0000bbc8                USB_WakeUpCfg
                0x0000bbdc                USB_SetAddress
                0x0000bc24                USB_Configure
                0x0000bc8c                USB_ConfigEP
                0x0000bd14                USB_DirCtrlEP
                0x0000bd28                USB_EnableEP
                0x0000bd58                USB_DisableEP
                0x0000bd8c                USB_ResetEP
                0x0000bdbc                USB_SetStallEP
                0x0000bdf0                USB_ClrStallEP
                0x0000be20                USB_ClearEPBuf
                0x0000be40                USB_ReadEP
                0x0000befc                USB_WriteEP
                0x0000bf94                USB_GetFrame
                0x0000bfd8                USB_IRQHandler
 .text          0x0000c1a4      0x184 build\USBCDC\usbuser.o
                0x0000c1a4                USB_Reset_Event
                0x0000c1b0                USB_Configure_Event
                0x0000c1bc                USB_EndPoint1
                0x0000c1fc                USB_EndPoint2
                0x0000c224                USB_EndPoint3
                0x0000c238                USB_EndPoint4
                0x0000c24c                USB_EndPoint5
                0x0000c260                USB_EndPoint6
                0x0000c274                USB_EndPoint7
                0x0000c288                USB_EndPoint8
                0x0000c29c                USB_EndPoint9
                0x0000c2b0                USB_EndPoint10
                0x0000c2c4                USB_EndPoint11
                0x0000c2d8                USB_EndPoint12
                0x0000c2ec                USB_EndPoint13
                0x0000c300                USB_EndPoint14
                0x0000c314                USB_EndPoint15
 .text          0x0000c328       0x24 build\USBCDC\vcomdemo.o
                0x0000c328                VCOM_Start
 .text          0x0000c34c       0x74 build\Atomic.o
                0x0000c34c                Atomic(EN_DIS_INT)
 .text          0x0000c3c0       0xbc build\ButtonArray.o
                0x0000c3c0                ButtonArray::init()
                0x0000c3d4                ButtonArray::scanButtons()
                0x0000c3f0                ButtonArray::getButton(ButtonArray::ButtonName&)
 .text._ZN10Port_ClassC2Ev
                0x0000c47c       0x20 build\ButtonArray.o
                0x0000c47c                Port_Class::Port_Class()
                0x0000c47c                Port_Class::Port_Class()
 .text          0x0000c49c      0xda0 build\Command.o
                0x0000c49c                command::getRemainingCapacity()
                0x0000c4c0                command::pause(bool)
                0x0000c4e0                command::isPaused()
                0x0000c4f8                command::isEmpty()
                0x0000c510                command::push(unsigned char)
                0x0000c534                command::pop8()
                0x0000c54c                command::pop16()
                0x0000c580                command::pop32()
                0x0000c5d4                command::reset()
                0x0000c610                command::runCommandSlice()
 .text._ZN5PointC2Elllll
                0x0000d23c       0x3c build\Command.o
                0x0000d23c                Point::Point(long, long, long, long, long)
                0x0000d23c                Point::Point(long, long, long, long, long)
 .text._ZN5PointC2Elll
                0x0000d278       0x64 build\Command.o
                0x0000d278                Point::Point(long, long, long)
                0x0000d278                Point::Point(long, long, long)
 .text._ZNK5PointixEj
                0x0000d2dc       0x20 build\Command.o
                0x0000d2dc                Point::operator[](unsigned int) const
 .text._ZN5PointixEj
                0x0000d2fc       0x20 build\Command.o
                0x0000d2fc                Point::operator[](unsigned int)
 .text._ZNK6Packet8hasErrorEv
                0x0000d31c       0x28 build\Command.o
                0x0000d31c                Packet::hasError() const
 .text._ZN19CircularBufferTemplIhEC2EtPh
                0x0000d344       0x48 build\Command.o
                0x0000d344                CircularBufferTempl<unsigned char>::CircularBufferTempl(unsigned short, unsigned char*)
                0x0000d344                CircularBufferTempl<unsigned char>::CircularBufferTempl(unsigned short, unsigned char*)
 .text._ZNK19CircularBufferTemplIhE20getRemainingCapacityEv
                0x0000d38c       0x24 build\Command.o
                0x0000d38c                CircularBufferTempl<unsigned char>::getRemainingCapacity() const
 .text._ZNK19CircularBufferTemplIhE7isEmptyEv
                0x0000d3b0       0x24 build\Command.o
                0x0000d3b0                CircularBufferTempl<unsigned char>::isEmpty() const
 .text._ZN19CircularBufferTemplIhE4pushEh
                0x0000d3d4       0x5c build\Command.o
                0x0000d3d4                CircularBufferTempl<unsigned char>::push(unsigned char)
 .text._ZN19CircularBufferTemplIhE3popEv
                0x0000d430       0x6c build\Command.o
                0x0000d430                CircularBufferTempl<unsigned char>::pop()
 .text._ZN19CircularBufferTemplIhE5resetEv
                0x0000d49c       0x34 build\Command.o
                0x0000d49c                CircularBufferTempl<unsigned char>::reset()
 .text._ZNK19CircularBufferTemplIhE9getLengthEv
                0x0000d4d0       0x1c build\Command.o
                0x0000d4d0                CircularBufferTempl<unsigned char>::getLength() const
 .text._ZN19CircularBufferTemplIhEixEt
                0x0000d4ec       0x40 build\Command.o
                0x0000d4ec                CircularBufferTempl<unsigned char>::operator[](unsigned short)
 .text          0x0000d52c      0x344 build\DebugPacketProcessor.o
                0x0000d52c                processDebugPacket(InPacket const&, OutPacket&)
 .text._ZNK6Packet9getLengthEv
                0x0000d870       0x1c build\DebugPacketProcessor.o
                0x0000d870                Packet::getLength() const
 .text._ZN11Motherboard8getBoardEv
                0x0000d88c       0x14 build\DebugPacketProcessor.o
                0x0000d88c                Motherboard::getBoard()
 .text          0x0000d8a0      0x140 build\Delay.o
                0x0000d8a0                few_ticks
                0x0000d968                _delay_us
                0x0000d9a0                _delay_ms
                0x0000d9c0                _delay_s
 .text          0x0000d9e0      0x584 build\EepromMap.o
                0x0000d9e0                print_eeprom()
                0x0000da90                read_all_from_flash()
                0x0000dae8                save_to_flash()
                0x0000db60                microstep_pinout(unsigned char)
                0x0000dc58                eeprom::init()
                0x0000dd68                eeprom::getEeprom8(unsigned long, unsigned char)
                0x0000dd9c                eeprom::getEeprom16(unsigned long, unsigned short)
 .text._ZN3IAPC2Ev
                0x0000df64       0x44 build\EepromMap.o
                0x0000df64                IAP::IAP()
                0x0000df64                IAP::IAP()
 .text          0x0000dfa8      0x730 build\Host.o
                0x0000dfa8                host::runHostSlice()
                0x0000e15c                host::processCommandPacket(InPacket const&, OutPacket&)
                0x0000e250                host::doToolPause(OutPacket&)
                0x0000e36c                host::processQueryPacket(InPacket const&, OutPacket&)
                0x0000e55c                host::getMachineName()
                0x0000e608                host::getBuildName()
                0x0000e61c                host::getHostState()
                0x0000e634                host::startBuildFromSD()
                0x0000e670                host::stopBuild()
 .text._ZN6Packet5errorEh
                0x0000e6d8       0x24 build\Host.o
                0x0000e6d8                Packet::error(unsigned char)
 .text._ZNK6Packet12getErrorCodeEv
                0x0000e6fc       0x1c build\Host.o
                0x0000e6fc                Packet::getErrorCode() const
 .text._ZNK6Packet7getDataEv
                0x0000e718       0x1c build\Host.o
                0x0000e718                Packet::getData() const
 .text._ZNK8InPacket10isFinishedEv
                0x0000e734       0x28 build\Host.o
                0x0000e734                InPacket::isFinished() const
 .text._ZNK8InPacket9isStartedEv
                0x0000e75c       0x28 build\Host.o
                0x0000e75c                InPacket::isStarted() const
 .text._ZN8InPacket7timeoutEv
                0x0000e784       0x1c build\Host.o
                0x0000e784                InPacket::timeout()
 .text._ZNK9OutPacket9isSendingEv
                0x0000e7a0       0x38 build\Host.o
                0x0000e7a0                OutPacket::isSending() const
 .text._ZN4UART11getHostUARTEv
                0x0000e7d8       0x14 build\Host.o
                0x0000e7d8                UART::getHostUART()
 .text._ZNK7Timeout8isActiveEv
                0x0000e7ec       0x18 build\Host.o
                0x0000e7ec                Timeout::isActive() const
 .text._ZN11Motherboard19getStepperInterfaceEi
                0x0000e804       0x28 build\Host.o
                0x0000e804                Motherboard::getStepperInterface(int)
 .text._ZN4host13handleVersionERK8InPacketR9OutPacket
                0x0000e82c       0x58 build\Host.o
                0x0000e82c                host::handleVersion(InPacket const&, OutPacket&)
 .text._ZN4host18handleGetBuildNameERK8InPacketR9OutPacket
                0x0000e884       0x64 build\Host.o
                0x0000e884                host::handleGetBuildName(InPacket const&, OutPacket&)
 .text._ZN4host19handleGetBufferSizeERK8InPacketR9OutPacket
                0x0000e8e8       0x2c build\Host.o
                0x0000e8e8                host::handleGetBufferSize(InPacket const&, OutPacket&)
 .text._ZN4host17handleGetPositionERK8InPacketR9OutPacket
                0x0000e914      0x118 build\Host.o
                0x0000e914                host::handleGetPosition(InPacket const&, OutPacket&)
 .text._ZN4host20handleGetPositionExtERK8InPacketR9OutPacket
                0x0000ea2c      0x140 build\Host.o
                0x0000ea2c                host::handleGetPositionExt(InPacket const&, OutPacket&)
 .text._ZN4host19handleCaptureToFileERK8InPacketR9OutPacket
                0x0000eb6c       0x3c build\Host.o
                0x0000eb6c                host::handleCaptureToFile(InPacket const&, OutPacket&)
 .text._ZN4host16handleEndCaptureERK8InPacketR9OutPacket
                0x0000eba8       0x2c build\Host.o
                0x0000eba8                host::handleEndCapture(InPacket const&, OutPacket&)
 .text._ZN4host14handlePlaybackERK8InPacketR9OutPacket
                0x0000ebd4       0x8c build\Host.o
                0x0000ebd4                host::handlePlayback(InPacket const&, OutPacket&)
 .text._ZN4host18handleNextFilenameERK8InPacketR9OutPacket
                0x0000ec60      0x10c build\Host.o
                0x0000ec60                host::handleNextFilename(InPacket const&, OutPacket&)
 .text._ZN4host15handleToolQueryERK8InPacketR9OutPacket
                0x0000ed6c      0x17c build\Host.o
                0x0000ed6c                host::handleToolQuery(InPacket const&, OutPacket&)
 .text._ZN4host11handlePauseERK8InPacketR9OutPacket
                0x0000eee8       0x34 build\Host.o
                0x0000eee8                host::handlePause(InPacket const&, OutPacket&)
 .text._ZN4host16handleIsFinishedERK8InPacketR9OutPacket
                0x0000ef1c       0x6c build\Host.o
                0x0000ef1c                host::handleIsFinished(InPacket const&, OutPacket&)
 .text._ZN4host16handleReadEepromERK8InPacketR9OutPacket
                0x0000ef88       0x78 build\Host.o
                0x0000ef88                host::handleReadEeprom(InPacket const&, OutPacket&)
 .text._ZN4host17handleWriteEepromERK8InPacketR9OutPacket
                0x0000f000       0x94 build\Host.o
                0x0000f000                host::handleWriteEeprom(InPacket const&, OutPacket&)
 .text._ZN4host18handleExtendedStopERK8InPacketR9OutPacket
                0x0000f094       0x54 build\Host.o
                0x0000f094                host::handleExtendedStop(InPacket const&, OutPacket&)
 .text._ZN4host27handleGetCommunicationStatsERK8InPacketR9OutPacket
                0x0000f0e8       0x60 build\Host.o
                0x0000f0e8                host::handleGetCommunicationStats(InPacket const&, OutPacket&)
 .text          0x0000f148      0x1f8 build\Interface.o
                0x0000f148                interface::isConnected()
                0x0000f248                interface::init(InterfaceBoard*, LiquidCrystal*)
                0x0000f274                interface::pushScreen(Screen*)
                0x0000f298                interface::popScreen()
                0x0000f2b0                interface::doInterrupt()
                0x0000f2c8                interface::getUpdateRate()
                0x0000f2e4                interface::doUpdate()
 .text._ZN10Port_ClassC2E8portname
                0x0000f340       0x20 build\Interface.o
                0x0000f340                Port_Class::Port_Class(portname)
                0x0000f340                Port_Class::Port_Class(portname)
 .text._ZN10Port_Class15setPinDirectionEhb
                0x0000f360       0x74 build\Interface.o
                0x0000f360                Port_Class::setPinDirection(unsigned char, bool)
 .text._ZN10Port_Class6getPinEh
                0x0000f3d4       0x3c build\Interface.o
                0x0000f3d4                Port_Class::getPin(unsigned char)
 .text._ZN10Port_Class6setPinEhb
                0x0000f410       0x4c build\Interface.o
                0x0000f410                Port_Class::setPin(unsigned char, bool)
 .text._ZN3PinC2E8portnameh
                0x0000f45c       0x30 build\Interface.o
                0x0000f45c                Pin::Pin(portname, unsigned char)
                0x0000f45c                Pin::Pin(portname, unsigned char)
 .text._ZN3Pin12setDirectionEb
                0x0000f48c       0x28 build\Interface.o
                0x0000f48c                Pin::setDirection(bool)
 .text._ZN3Pin8getValueEv
                0x0000f4b4       0x24 build\Interface.o
                0x0000f4b4                Pin::getValue()
 .text._ZN3Pin8setValueEb
                0x0000f4d8       0x28 build\Interface.o
                0x0000f4d8                Pin::setValue(bool)
 .text          0x0000f500      0x3a8 build\InterfaceBoard.o
                0x0000f500                InterfaceBoard::InterfaceBoard(ButtonArray&, LiquidCrystal&, Pin const&, Pin const&, Screen*, Screen*)
                0x0000f500                InterfaceBoard::InterfaceBoard(ButtonArray&, LiquidCrystal&, Pin const&, Pin const&, Screen*, Screen*)
                0x0000f554                InterfaceBoard::init()
                0x0000f5f8                InterfaceBoard::doInterrupt()
                0x0000f614                InterfaceBoard::getUpdateRate()
                0x0000f654                InterfaceBoard::doUpdate()
                0x0000f74c                InterfaceBoard::pushScreen(Screen*)
                0x0000f7fc                InterfaceBoard::popScreen()
 .text          0x0000f8a8      0xf80 build\LiquidCrystal.o
                0x0000f8a8                LiquidCrystal::LiquidCrystal(Pin, Pin, Pin, Pin, Pin, Pin, Pin, Pin, Pin, Pin, Pin)
                0x0000f8a8                LiquidCrystal::LiquidCrystal(Pin, Pin, Pin, Pin, Pin, Pin, Pin, Pin, Pin, Pin, Pin)
                0x0000f9f0                LiquidCrystal::LiquidCrystal(Pin, Pin, Pin, Pin, Pin, Pin, Pin, Pin, Pin, Pin)
                0x0000f9f0                LiquidCrystal::LiquidCrystal(Pin, Pin, Pin, Pin, Pin, Pin, Pin, Pin, Pin, Pin)
                0x0000fb40                LiquidCrystal::LiquidCrystal(Pin, Pin, Pin, Pin, Pin, Pin, Pin)
                0x0000fb40                LiquidCrystal::LiquidCrystal(Pin, Pin, Pin, Pin, Pin, Pin, Pin)
                0x0000fcb0                LiquidCrystal::LiquidCrystal(Pin, Pin, Pin, Pin, Pin, Pin)
                0x0000fcb0                LiquidCrystal::LiquidCrystal(Pin, Pin, Pin, Pin, Pin, Pin)
                0x0000fe28                LiquidCrystal::init(unsigned char, Pin, Pin, Pin, Pin, Pin, Pin, Pin, Pin, Pin, Pin, Pin)
                0x0000ff94                LiquidCrystal::begin(unsigned char, unsigned char, unsigned char)
                0x00010128                LiquidCrystal::clear()
                0x0001014c                LiquidCrystal::home()
                0x00010170                LiquidCrystal::setCursor(unsigned char, unsigned char)
                0x000101dc                LiquidCrystal::noDisplay()
                0x00010214                LiquidCrystal::display()
                0x0001024c                LiquidCrystal::noCursor()
                0x00010284                LiquidCrystal::cursor()
                0x000102bc                LiquidCrystal::noBlink()
                0x000102f4                LiquidCrystal::blink()
                0x0001032c                LiquidCrystal::scrollDisplayLeft()
                0x00010348                LiquidCrystal::scrollDisplayRight()
                0x00010364                LiquidCrystal::leftToRight()
                0x0001039c                LiquidCrystal::rightToLeft()
                0x000103d4                LiquidCrystal::autoscroll()
                0x0001040c                LiquidCrystal::noAutoscroll()
                0x00010444                LiquidCrystal::createChar(unsigned char, unsigned char*)
                0x000104b0                LiquidCrystal::writeInt(unsigned short, unsigned char)
                0x00010574                LiquidCrystal::writeString(char*)
                0x000105b8                LiquidCrystal::writeFromPgmspace(char const*)
                0x000105f8                LiquidCrystal::send(unsigned char, bool)
                0x0001067c                LiquidCrystal::pulseEnable()
                0x000106d4                LiquidCrystal::write4bits(unsigned char)
                0x0001075c                LiquidCrystal::write8bits(unsigned char)
 .text._ZN10Port_Class6isNullEv
                0x00010828       0x24 build\LiquidCrystal.o
                0x00010828                Port_Class::isNull()
 .text._ZN3PinC2Ev
                0x0001084c       0x2c build\LiquidCrystal.o
                0x0001084c                Pin::Pin()
                0x0001084c                Pin::Pin()
 .text._ZN3Pin6isNullEv
                0x00010878       0x1c build\LiquidCrystal.o
                0x00010878                Pin::isNull()
 .text._ZN13LiquidCrystal7commandEh
                0x00010894       0x24 build\LiquidCrystal.o
                0x00010894                LiquidCrystal::command(unsigned char)
 .text._ZN13LiquidCrystal5writeEh
                0x000108b8       0x24 build\LiquidCrystal.o
                0x000108b8                LiquidCrystal::write(unsigned char)
 .text          0x000108dc      0x378 build\Main.o
                0x0001092c                reset(bool)
                0x00010b30                main
 .text          0x00010c54     0x1324 build\Menu.o
                0x00010c54                queryExtruderParameter(unsigned char, OutPacket&)
                0x00010d90                SplashScreen::update(LiquidCrystal&, bool)
                0x00010e24                SplashScreen::notifyButtonPressed(ButtonArray::ButtonName)
                0x00010e3c                SplashScreen::reset()
                0x00010e50                JogMode::reset()
                0x00010e74                JogMode::update(LiquidCrystal&, bool)
                0x00010f44                JogMode::jog(ButtonArray::ButtonName)
                0x00011068                JogMode::notifyButtonPressed(ButtonArray::ButtonName)
                0x000110f4                SnakeMode::update(LiquidCrystal&, bool)
                0x0001147c                SnakeMode::reset()
                0x0001152c                SnakeMode::notifyButtonPressed(ButtonArray::ButtonName)
                0x000115a8                MonitorMode::reset()
                0x000115c4                MonitorMode::update(LiquidCrystal&, bool)
                0x00011818                MonitorMode::notifyButtonPressed(ButtonArray::ButtonName)
                0x00011854                Menu::update(LiquidCrystal&, bool)
                0x00011958                Menu::reset()
                0x00011990                Menu::resetState()
                0x000119a4                Menu::handleSelect(unsigned char)
                0x000119bc                Menu::handleCancel()
                0x000119d0                Menu::notifyButtonPressed(ButtonArray::ButtonName)
                0x00011a90                CancelBuildMenu::CancelBuildMenu()
                0x00011a90                CancelBuildMenu::CancelBuildMenu()
                0x00011ac8                CancelBuildMenu::resetState()
                0x00011aec                CancelBuildMenu::drawItem(unsigned char, LiquidCrystal&)
                0x00011b50                CancelBuildMenu::handleSelect(unsigned char)
                0x00011b80                MainMenu::MainMenu()
                0x00011b80                MainMenu::MainMenu()
                0x00011be8                MainMenu::drawItem(unsigned char, LiquidCrystal&)
                0x00011c60                MainMenu::handleSelect(unsigned char)
                0x00011ccc                SDMenu::SDMenu()
                0x00011ccc                SDMenu::SDMenu()
                0x00011cfc                SDMenu::resetState()
                0x00011d1c                SDMenu::countFiles()
                0x00011d8c                SDMenu::getFilename(unsigned char, char*, unsigned char)
                0x00011e28                SDMenu::drawItem(unsigned char, LiquidCrystal&)
                0x00011ed4                SDMenu::handleSelect(unsigned char)
 .text._ZN4Menu13getUpdateRateEv
                0x00011f78       0x1c build\Menu.o
                0x00011f78                Menu::getUpdateRate()
 .text._ZN12SplashScreen13getUpdateRateEv
                0x00011f94       0x18 build\Menu.o
                0x00011f94                SplashScreen::getUpdateRate()
 .text._ZN7JogMode13getUpdateRateEv
                0x00011fac       0x18 build\Menu.o
                0x00011fac                JogMode::getUpdateRate()
 .text._ZN9SnakeMode13getUpdateRateEv
                0x00011fc4       0x18 build\Menu.o
                0x00011fc4                SnakeMode::getUpdateRate()
 .text._ZN11MonitorMode13getUpdateRateEv
                0x00011fdc       0x1c build\Menu.o
                0x00011fdc                MonitorMode::getUpdateRate()
 .text._Z9rcCompareh12ResponseCode
                0x00011ff8       0x30 build\Menu.o
                0x00011ff8                rcCompare(unsigned char, ResponseCode)
 .text._ZN6ScreenC2Ev
                0x00012028       0x20 build\Menu.o
                0x00012028                Screen::Screen()
                0x00012028                Screen::Screen()
 .text._ZN4MenuC2Ev
                0x00012048       0x28 build\Menu.o
                0x00012048                Menu::Menu()
                0x00012048                Menu::Menu()
 .text._ZN11MonitorModeC2Ev
                0x00012070       0x34 build\Menu.o
                0x00012070                MonitorMode::MonitorMode()
                0x00012070                MonitorMode::MonitorMode()
 .text._ZN7JogModeC2Ev
                0x000120a4       0x28 build\Menu.o
                0x000120a4                JogMode::JogMode()
                0x000120a4                JogMode::JogMode()
 .text._ZN9SnakeModeC2Ev
                0x000120cc       0x28 build\Menu.o
                0x000120cc                SnakeMode::SnakeMode()
                0x000120cc                SnakeMode::SnakeMode()
 .text          0x000120f4      0xc6c build\Motherboard.o
                0x00012188                Motherboard::Motherboard()
                0x00012188                Motherboard::Motherboard()
                0x000125f0                Motherboard::reset()
                0x000129f4                Motherboard::getCurrentMicros()
                0x00012a10                Motherboard::doInterrupt()
                0x00012a54                Motherboard::runMotherboardSlice()
                0x00012aa8                TIMER0_IRQHandler
                0x00012ac8                Motherboard::indicateError(int)
                0x00012b4c                Motherboard::getCurrentError()
                0x00012b6c                TIMER1_IRQHandler
 .text._ZN4UART12getSlaveUARTEv
                0x00012d60       0x14 build\Motherboard.o
                0x00012d60                UART::getSlaveUART()
 .text._ZN16StepperInterfaceC2Ev
                0x00012d74       0x4c build\Motherboard.o
                0x00012d74                StepperInterface::StepperInterface()
                0x00012d74                StepperInterface::StepperInterface()
 .text._ZN12SplashScreenC2Ev
                0x00012dc0       0x28 build\Motherboard.o
                0x00012dc0                SplashScreen::SplashScreen()
                0x00012dc0                SplashScreen::SplashScreen()
 .text          0x00012de8      0x54c build\Packet.o
                0x00012de8                _crc_ibutton_update
                0x00012e58                Packet::appendByte(unsigned char)
                0x00012eb8                Packet::reset()
                0x00012ef0                InPacket::InPacket()
                0x00012ef0                InPacket::InPacket()
                0x00012f14                InPacket::reset()
                0x00012f2c                InPacket::processByte(unsigned char)
                0x00013054                Packet::read8(unsigned char) const
                0x00013078                Packet::read16(unsigned char) const
                0x000130b8                Packet::read32(unsigned char) const
                0x00013110                OutPacket::OutPacket()
                0x00013110                OutPacket::OutPacket()
                0x00013134                OutPacket::reset()
                0x00013158                OutPacket::prepareForResend()
                0x00013188                OutPacket::getNextByteToSend()
                0x00013284                OutPacket::append8(unsigned char)
                0x000132a4                OutPacket::append16(unsigned short)
                0x000132dc                OutPacket::append32(unsigned long)
 .text._ZN6PacketC2Ev
                0x00013334       0x18 build\Packet.o
                0x00013334                Packet::Packet()
                0x00013334                Packet::Packet()
 .text          0x0001334c      0x82c build\SDCard.o
                0x0001334c                sdcard::openPartition()
                0x000133f0                sdcard::openFilesys()
                0x0001342c                sdcard::openRoot()
                0x00013494                sdcard::initCard()
                0x00013544                sdcard::directoryReset()
                0x00013584                sdcard::directoryNextEntry(char*, unsigned char)
                0x00013658                sdcard::findFileInDir(char const*, fat_dir_entry_struct*)
                0x000136bc                sdcard::openFile(char const*, fat_file_struct**)
                0x00013710                sdcard::deleteFile(char*)
                0x0001375c                sdcard::createFile(char*)
                0x00013794                sdcard::isPlaying()
                0x000137ac                sdcard::isCapturing()
                0x000137c4                sdcard::startCapture(char*)
                0x0001386c                sdcard::capturePacket(Packet const&)
                0x000138d4                sdcard::finishCapture()
                0x00013938                sdcard::fetchNextByte()
                0x00013980                sdcard::playbackHasNext()
                0x00013998                sdcard::playbackNext()
                0x000139bc                sdcard::startPlayback(char*)
                0x00013a58                sdcard::playbackRewind(unsigned char)
                0x00013a8c                sdcard::finishPlayback()
                0x00013ad0                sdcard::reset()
 .text          0x00013b78      0x374 build\StepperAxis.o
                0x00013b78                StepperAxis::StepperAxis()
                0x00013b78                StepperAxis::StepperAxis()
                0x00013b98                StepperAxis::StepperAxis(StepperInterface&)
                0x00013b98                StepperAxis::StepperAxis(StepperInterface&)
                0x00013bbc                StepperAxis::setTarget(long, bool)
                0x00013c40                StepperAxis::setHoming(bool)
                0x00013c70                StepperAxis::definePosition(long)
                0x00013c8c                StepperAxis::enableStepper(bool)
                0x00013cb0                StepperAxis::reset()
                0x00013cf4                StepperAxis::doInterrupt(long)
                0x00013db8                StepperAxis::doHoming(long)
 .text._ZN11StepperAxis12checkEndstopEb
                0x00013eec       0x3c build\StepperAxis.o
                0x00013eec                StepperAxis::checkEndstop(bool)
 .text          0x00013f28      0x314 build\StepperInterface.o
                0x00013f28                StepperInterface::StepperInterface(Pin const&, Pin const&, Pin const&, Pin const&, Pin const&, unsigned short)
                0x00013f28                StepperInterface::StepperInterface(Pin const&, Pin const&, Pin const&, Pin const&, Pin const&, unsigned short)
                0x00013fa8                StepperInterface::setDirection(bool)
                0x00013fd8                StepperInterface::step(bool)
                0x00013ffc                StepperInterface::setEnabled(bool)
                0x0001403c                StepperInterface::isAtMaximum()
                0x00014088                StepperInterface::isAtMinimum()
                0x000140d4                StepperInterface::init(unsigned char)
 .text          0x0001423c      0x7b0 build\Steppers.o
                0x0001423c                steppers::isRunning()
                0x00014274                steppers::init(Motherboard&)
                0x00014304                steppers::abort()
                0x0001432c                steppers::definePosition(Point const&)
                0x00014384                steppers::getPosition()
                0x000143d8                steppers::setHoldZ(bool)
                0x0001442c                steppers::setTarget(Point const&, long)
                0x000145a8                steppers::setTargetNew(Point const&, long, unsigned char)
                0x0001471c                steppers::startHoming(bool, unsigned char, unsigned long)
                0x000147fc                steppers::enableAxis(unsigned char, bool)
                0x00014834                steppers::doInterrupt()
 .text          0x000149ec      0x150 build\Timeout.o
                0x000149ec                Timeout::Timeout()
                0x000149ec                Timeout::Timeout()
                0x00014a14                Timeout::start(unsigned long)
                0x00014a50                Timeout::hasElapsed()
                0x00014ab0                Timeout::hasLeft()
                0x00014adc                Timeout::abort()
 .text          0x00014b3c      0x7d8 build\Tool.o
                0x00014b3c                tool::getInPacket()
                0x00014b50                tool::getOutPacket()
                0x00014b64                tool::getSentPacketCount()
                0x00014b7c                tool::getPacketFailureCount()
                0x00014b94                tool::getRetryCount()
                0x00014bac                tool::getNoiseByteCount()
                0x00014bc4                tool::getToolVersion()
                0x00014cec                tool::setToolIndicatorLED()
                0x00014db8                tool::reset()
                0x00014ec4                tool::test()
                0x00014f68                tool::getLock()
                0x00014fa8                tool::releaseLock()
                0x00014fc0                tool::startTransaction()
                0x00015058                tool::isTransactionDone()
                0x00015074                tool::runToolSlice()
                0x0001528c                tool::setCurrentToolheadIndex(unsigned char)
                0x000152ac                tool::getCurrentToolheadIndex()
 .text          0x00015314      0x5b4 build\UART.o
                0x000153a8                UART::UART(unsigned char)
                0x000153a8                UART::UART(unsigned char)
                0x00015548                UART::beginSend()
                0x00015668                UART::enable(bool)
                0x000156bc                UART::reset()
                0x000156e8                UART1_IRQHandler
                0x000157f8                CANActivity_IRQHandler
 .text._Z6listenv
                0x000158c8       0x30 build\UART.o
                0x000158c8                listen()
 .text._Z5speakv
                0x000158f8       0x30 build\UART.o
                0x000158f8                speak()
 .text          0x00015928       0x7c build\test_u.o
                0x00015928                test_u()
 .text._ZN10__cxxabiv120__si_class_type_infoD2Ev
                0x000159a4       0x14 c:/progra~2/codesourcery/source~1/bin/../lib/gcc/arm-none-eabi/4.6.1/../../../../arm-none-eabi/lib/thumb2\libstdc++.a(si_class_type_info.o)
                0x000159a4                __cxxabiv1::__si_class_type_info::~__si_class_type_info()
                0x000159a4                __cxxabiv1::__si_class_type_info::~__si_class_type_info()
 .text._ZN10__cxxabiv120__si_class_type_infoD0Ev
                0x000159b8       0x1c c:/progra~2/codesourcery/source~1/bin/../lib/gcc/arm-none-eabi/4.6.1/../../../../arm-none-eabi/lib/thumb2\libstdc++.a(si_class_type_info.o)
                0x000159b8                __cxxabiv1::__si_class_type_info::~__si_class_type_info()
 .text._ZNK10__cxxabiv120__si_class_type_info11__do_upcastEPKNS_17__class_type_infoEPKvRNS1_15__upcast_resultE
                0x000159d4       0x28 c:/progra~2/codesourcery/source~1/bin/../lib/gcc/arm-none-eabi/4.6.1/../../../../arm-none-eabi/lib/thumb2\libstdc++.a(si_class_type_info.o)
                0x000159d4                __cxxabiv1::__si_class_type_info::__do_upcast(__cxxabiv1::__class_type_info const*, void const*, __cxxabiv1::__class_type_info::__upcast_result&) const
 .text._ZNK10__cxxabiv120__si_class_type_info12__do_dyncastEiNS_17__class_type_info10__sub_kindEPKS1_PKvS4_S6_RNS1_16__dyncast_resultE
                0x000159fc       0x8c c:/progra~2/codesourcery/source~1/bin/../lib/gcc/arm-none-eabi/4.6.1/../../../../arm-none-eabi/lib/thumb2\libstdc++.a(si_class_type_info.o)
                0x000159fc                __cxxabiv1::__si_class_type_info::__do_dyncast(int, __cxxabiv1::__class_type_info::__sub_kind, __cxxabiv1::__class_type_info const*, void const*, __cxxabiv1::__class_type_info const*, void const*, __cxxabiv1::__class_type_info::__dyncast_result&) const
 .text._ZNK10__cxxabiv120__si_class_type_info20__do_find_public_srcEiPKvPKNS_17__class_type_infoES2_
                0x00015a88       0x38 c:/progra~2/codesourcery/source~1/bin/../lib/gcc/arm-none-eabi/4.6.1/../../../../arm-none-eabi/lib/thumb2\libstdc++.a(si_class_type_info.o)
                0x00015a88                __cxxabiv1::__si_class_type_info::__do_find_public_src(int, void const*, __cxxabiv1::__class_type_info const*, void const*) const
 .text.__cxa_pure_virtual
                0x00015ac0       0x18 c:/progra~2/codesourcery/source~1/bin/../lib/gcc/arm-none-eabi/4.6.1/../../../../arm-none-eabi/lib/thumb2\libstdc++.a(pure.o)
                0x00015ac0                __cxa_pure_virtual
 .text._ZN10__cxxabiv111__terminateEPFvvE
                0x00015ad8       0x28 c:/progra~2/codesourcery/source~1/bin/../lib/gcc/arm-none-eabi/4.6.1/../../../../arm-none-eabi/lib/thumb2\libstdc++.a(eh_terminate.o)
                0x00015ad8                __cxxabiv1::__terminate(void (*)())
 .text._ZSt9terminatev
                0x00015b00       0x10 c:/progra~2/codesourcery/source~1/bin/../lib/gcc/arm-none-eabi/4.6.1/../../../../arm-none-eabi/lib/thumb2\libstdc++.a(eh_terminate.o)
                0x00015b00                std::terminate()
 .text._ZN10__cxxabiv112__unexpectedEPFvvE
                0x00015b10        0x8 c:/progra~2/codesourcery/source~1/bin/../lib/gcc/arm-none-eabi/4.6.1/../../../../arm-none-eabi/lib/thumb2\libstdc++.a(eh_terminate.o)
                0x00015b10                __cxxabiv1::__unexpected(void (*)())
 .text._ZSt10unexpectedv
                0x00015b18       0x14 c:/progra~2/codesourcery/source~1/bin/../lib/gcc/arm-none-eabi/4.6.1/../../../../arm-none-eabi/lib/thumb2\libstdc++.a(eh_terminate.o)
                0x00015b18                std::unexpected()
 .text._ZNK10__cxxabiv117__class_type_info11__do_upcastEPKS0_PPv
                0x00015b2c       0x38 c:/progra~2/codesourcery/source~1/bin/../lib/gcc/arm-none-eabi/4.6.1/../../../../arm-none-eabi/lib/thumb2\libstdc++.a(class_type_info.o)
                0x00015b2c                __cxxabiv1::__class_type_info::__do_upcast(__cxxabiv1::__class_type_info const*, void**) const
 .text._ZNK10__cxxabiv117__class_type_info20__do_find_public_srcEiPKvPKS0_S2_
                0x00015b64        0xc c:/progra~2/codesourcery/source~1/bin/../lib/gcc/arm-none-eabi/4.6.1/../../../../arm-none-eabi/lib/thumb2\libstdc++.a(class_type_info.o)
                0x00015b64                __cxxabiv1::__class_type_info::__do_find_public_src(int, void const*, __cxxabiv1::__class_type_info const*, void const*) const
 .text._ZNK10__cxxabiv117__class_type_info11__do_upcastEPKS0_PKvRNS0_15__upcast_resultE
                0x00015b70       0x1c c:/progra~2/codesourcery/source~1/bin/../lib/gcc/arm-none-eabi/4.6.1/../../../../arm-none-eabi/lib/thumb2\libstdc++.a(class_type_info.o)
                0x00015b70                __cxxabiv1::__class_type_info::__do_upcast(__cxxabiv1::__class_type_info const*, void const*, __cxxabiv1::__class_type_info::__upcast_result&) const
 .text._ZN10__cxxabiv117__class_type_infoD2Ev
                0x00015b8c       0x14 c:/progra~2/codesourcery/source~1/bin/../lib/gcc/arm-none-eabi/4.6.1/../../../../arm-none-eabi/lib/thumb2\libstdc++.a(class_type_info.o)
                0x00015b8c                __cxxabiv1::__class_type_info::~__class_type_info()
                0x00015b8c                __cxxabiv1::__class_type_info::~__class_type_info()
 .text._ZN10__cxxabiv117__class_type_infoD0Ev
                0x00015ba0       0x1c c:/progra~2/codesourcery/source~1/bin/../lib/gcc/arm-none-eabi/4.6.1/../../../../arm-none-eabi/lib/thumb2\libstdc++.a(class_type_info.o)
                0x00015ba0                __cxxabiv1::__class_type_info::~__class_type_info()
 .text._ZNK10__cxxabiv117__class_type_info12__do_dyncastEiNS0_10__sub_kindEPKS0_PKvS3_S5_RNS0_16__dyncast_resultE
                0x00015bbc       0x3c c:/progra~2/codesourcery/source~1/bin/../lib/gcc/arm-none-eabi/4.6.1/../../../../arm-none-eabi/lib/thumb2\libstdc++.a(class_type_info.o)
                0x00015bbc                __cxxabiv1::__class_type_info::__do_dyncast(int, __cxxabiv1::__class_type_info::__sub_kind, __cxxabiv1::__class_type_info const*, void const*, __cxxabiv1::__class_type_info const*, void const*, __cxxabiv1::__class_type_info::__dyncast_result&) const
 .text._ZNK10__cxxabiv117__class_type_info10__do_catchEPKSt9type_infoPPvj
                0x00015bf8       0x28 c:/progra~2/codesourcery/source~1/bin/../lib/gcc/arm-none-eabi/4.6.1/../../../../arm-none-eabi/lib/thumb2\libstdc++.a(class_type_info.o)
                0x00015bf8                __cxxabiv1::__class_type_info::__do_catch(std::type_info const*, void**, unsigned int) const
 .text.__cxa_call_terminate
                0x00015c20       0x50 c:/progra~2/codesourcery/source~1/bin/../lib/gcc/arm-none-eabi/4.6.1/../../../../arm-none-eabi/lib/thumb2\libstdc++.a(eh_call.o)
                0x00015c20                __cxa_call_terminate
 .text.__cxa_call_unexpected
                0x00015c70      0x130 c:/progra~2/codesourcery/source~1/bin/../lib/gcc/arm-none-eabi/4.6.1/../../../../arm-none-eabi/lib/thumb2\libstdc++.a(eh_call.o)
                0x00015c70                __cxa_call_unexpected
 .text._ZL23__gxx_exception_cleanup19_Unwind_Reason_CodeP21_Unwind_Control_Block
                0x00015da0       0x4c c:/progra~2/codesourcery/source~1/bin/../lib/gcc/arm-none-eabi/4.6.1/../../../../arm-none-eabi/lib/thumb2\libstdc++.a(eh_throw.o)
 .text.__cxa_throw
                0x00015dec       0x80 c:/progra~2/codesourcery/source~1/bin/../lib/gcc/arm-none-eabi/4.6.1/../../../../arm-none-eabi/lib/thumb2\libstdc++.a(eh_throw.o)
                0x00015dec                __cxa_throw
 .text.__cxa_rethrow
                0x00015e6c       0x78 c:/progra~2/codesourcery/source~1/bin/../lib/gcc/arm-none-eabi/4.6.1/../../../../arm-none-eabi/lib/thumb2\libstdc++.a(eh_throw.o)
                0x00015e6c                __cxa_rethrow
 .text.__cxa_end_cleanup
                0x00015ee4        0xc c:/progra~2/codesourcery/source~1/bin/../lib/gcc/arm-none-eabi/4.6.1/../../../../arm-none-eabi/lib/thumb2\libstdc++.a(eh_arm.o)
                0x00015ee4                __cxa_end_cleanup
 .text.__cxa_type_match
                0x00015ef0       0xbc c:/progra~2/codesourcery/source~1/bin/../lib/gcc/arm-none-eabi/4.6.1/../../../../arm-none-eabi/lib/thumb2\libstdc++.a(eh_arm.o)
                0x00015ef0                __cxa_type_match
 .text.__cxa_begin_cleanup
                0x00015fac       0x78 c:/progra~2/codesourcery/source~1/bin/../lib/gcc/arm-none-eabi/4.6.1/../../../../arm-none-eabi/lib/thumb2\libstdc++.a(eh_arm.o)
                0x00015fac                __cxa_begin_cleanup
 .text.__gnu_end_cleanup
                0x00016024       0x7c c:/progra~2/codesourcery/source~1/bin/../lib/gcc/arm-none-eabi/4.6.1/../../../../arm-none-eabi/lib/thumb2\libstdc++.a(eh_arm.o)
                0x00016024                __gnu_end_cleanup
 .text._ZNSt9exceptionD2Ev
                0x000160a0        0xc c:/progra~2/codesourcery/source~1/bin/../lib/gcc/arm-none-eabi/4.6.1/../../../../arm-none-eabi/lib/thumb2\libstdc++.a(eh_exception.o)
                0x000160a0                std::exception::~exception()
                0x000160a0                std::exception::~exception()
 .text._ZNSt13bad_exceptionD2Ev
                0x000160ac        0xc c:/progra~2/codesourcery/source~1/bin/../lib/gcc/arm-none-eabi/4.6.1/../../../../arm-none-eabi/lib/thumb2\libstdc++.a(eh_exception.o)
                0x000160ac                std::bad_exception::~bad_exception()
                0x000160ac                std::bad_exception::~bad_exception()
 .text._ZNKSt9exception4whatEv
                0x000160b8        0xc c:/progra~2/codesourcery/source~1/bin/../lib/gcc/arm-none-eabi/4.6.1/../../../../arm-none-eabi/lib/thumb2\libstdc++.a(eh_exception.o)
                0x000160b8                std::exception::what() const
 .text._ZNKSt13bad_exception4whatEv
                0x000160c4        0xc c:/progra~2/codesourcery/source~1/bin/../lib/gcc/arm-none-eabi/4.6.1/../../../../arm-none-eabi/lib/thumb2\libstdc++.a(eh_exception.o)
                0x000160c4                std::bad_exception::what() const
 .text._ZNSt13bad_exceptionD0Ev
                0x000160d0       0x14 c:/progra~2/codesourcery/source~1/bin/../lib/gcc/arm-none-eabi/4.6.1/../../../../arm-none-eabi/lib/thumb2\libstdc++.a(eh_exception.o)
                0x000160d0                std::bad_exception::~bad_exception()
 .text._ZNSt9exceptionD0Ev
                0x000160e4       0x14 c:/progra~2/codesourcery/source~1/bin/../lib/gcc/arm-none-eabi/4.6.1/../../../../arm-none-eabi/lib/thumb2\libstdc++.a(eh_exception.o)
                0x000160e4                std::exception::~exception()
 .text.__cxa_allocate_exception
                0x000160f8       0x74 c:/progra~2/codesourcery/source~1/bin/../lib/gcc/arm-none-eabi/4.6.1/../../../../arm-none-eabi/lib/thumb2\libstdc++.a(eh_alloc.o)
                0x000160f8                __cxa_allocate_exception
 .text.__cxa_free_exception
                0x0001616c       0x3c c:/progra~2/codesourcery/source~1/bin/../lib/gcc/arm-none-eabi/4.6.1/../../../../arm-none-eabi/lib/thumb2\libstdc++.a(eh_alloc.o)
                0x0001616c                __cxa_free_exception
 .text.__cxa_get_globals_fast
                0x000161a8        0xc c:/progra~2/codesourcery/source~1/bin/../lib/gcc/arm-none-eabi/4.6.1/../../../../arm-none-eabi/lib/thumb2\libstdc++.a(eh_globals.o)
                0x000161a8                __cxa_get_globals_fast
 .text.__cxa_get_globals
                0x000161b4        0xc c:/progra~2/codesourcery/source~1/bin/../lib/gcc/arm-none-eabi/4.6.1/../../../../arm-none-eabi/lib/thumb2\libstdc++.a(eh_globals.o)
                0x000161b4                __cxa_get_globals
 .text._ZNSt9type_infoD2Ev
                0x000161c0        0xc c:/progra~2/codesourcery/source~1/bin/../lib/gcc/arm-none-eabi/4.6.1/../../../../arm-none-eabi/lib/thumb2\libstdc++.a(tinfo.o)
                0x000161c0                std::type_info::~type_info()
                0x000161c0                std::type_info::~type_info()
 .text._ZNKSt9type_info14__is_pointer_pEv
                0x000161cc        0x4 c:/progra~2/codesourcery/source~1/bin/../lib/gcc/arm-none-eabi/4.6.1/../../../../arm-none-eabi/lib/thumb2\libstdc++.a(tinfo.o)
                0x000161cc                std::type_info::__is_pointer_p() const
 .text._ZNKSt9type_info15__is_function_pEv
                0x000161d0        0x4 c:/progra~2/codesourcery/source~1/bin/../lib/gcc/arm-none-eabi/4.6.1/../../../../arm-none-eabi/lib/thumb2\libstdc++.a(tinfo.o)
                0x000161d0                std::type_info::__is_function_p() const
 .text._ZNKSt9type_info11__do_upcastEPKN10__cxxabiv117__class_type_infoEPPv
                0x000161d4        0x4 c:/progra~2/codesourcery/source~1/bin/../lib/gcc/arm-none-eabi/4.6.1/../../../../arm-none-eabi/lib/thumb2\libstdc++.a(tinfo.o)
                0x000161d4                std::type_info::__do_upcast(__cxxabiv1::__class_type_info const*, void**) const
 .text._ZNSt9type_infoD0Ev
                0x000161d8       0x14 c:/progra~2/codesourcery/source~1/bin/../lib/gcc/arm-none-eabi/4.6.1/../../../../arm-none-eabi/lib/thumb2\libstdc++.a(tinfo.o)
                0x000161d8                std::type_info::~type_info()
 .text._ZNKSt9type_infoeqERKS_
                0x000161ec       0x3c c:/progra~2/codesourcery/source~1/bin/../lib/gcc/arm-none-eabi/4.6.1/../../../../arm-none-eabi/lib/thumb2\libstdc++.a(tinfo.o)
                0x000161ec                std::type_info::operator==(std::type_info const&) const
 .text._ZNKSt9type_info10__do_catchEPKS_PPvj
                0x00016228        0x4 c:/progra~2/codesourcery/source~1/bin/../lib/gcc/arm-none-eabi/4.6.1/../../../../arm-none-eabi/lib/thumb2\libstdc++.a(tinfo.o)
                0x00016228                std::type_info::__do_catch(std::type_info const*, void**, unsigned int) const
 .text._ZL12read_sleb128PKhPl
                0x0001622c       0x38 c:/progra~2/codesourcery/source~1/bin/../lib/gcc/arm-none-eabi/4.6.1/../../../../arm-none-eabi/lib/thumb2\libstdc++.a(eh_personality.o)
 .text._ZL28read_encoded_value_with_basehjPKhPj
                0x00016264       0xa4 c:/progra~2/codesourcery/source~1/bin/../lib/gcc/arm-none-eabi/4.6.1/../../../../arm-none-eabi/lib/thumb2\libstdc++.a(eh_personality.o)
 .text._ZL21base_of_encoded_valuehP15_Unwind_Context
                0x00016308       0x4c c:/progra~2/codesourcery/source~1/bin/../lib/gcc/arm-none-eabi/4.6.1/../../../../arm-none-eabi/lib/thumb2\libstdc++.a(eh_personality.o)
 .text._ZL17parse_lsda_headerP15_Unwind_ContextPKhP16lsda_header_info.constprop.4
                0x00016354       0x8c c:/progra~2/codesourcery/source~1/bin/../lib/gcc/arm-none-eabi/4.6.1/../../../../arm-none-eabi/lib/thumb2\libstdc++.a(eh_personality.o)
 .text.__gxx_personality_v0
                0x000163e0      0x3ec c:/progra~2/codesourcery/source~1/bin/../lib/gcc/arm-none-eabi/4.6.1/../../../../arm-none-eabi/lib/thumb2\libstdc++.a(eh_personality.o)
                0x000163e0                __gxx_personality_v0
 .text.__cxa_begin_catch
                0x000167cc       0x98 c:/progra~2/codesourcery/source~1/bin/../lib/gcc/arm-none-eabi/4.6.1/../../../../arm-none-eabi/lib/thumb2\libstdc++.a(eh_catch.o)
                0x000167cc                __cxa_begin_catch
 .text.__cxa_end_catch
                0x00016864       0x94 c:/progra~2/codesourcery/source~1/bin/../lib/gcc/arm-none-eabi/4.6.1/../../../../arm-none-eabi/lib/thumb2\libstdc++.a(eh_catch.o)
                0x00016864                __cxa_end_catch
 .text._ZN9__gnu_cxx27__verbose_terminate_handlerEv
                0x000168f8      0x130 c:/progra~2/codesourcery/source~1/bin/../lib/gcc/arm-none-eabi/4.6.1/../../../../arm-none-eabi/lib/thumb2\libstdc++.a(vterminate.o)
                0x000168f8                __gnu_cxx::__verbose_terminate_handler()
 .text          0x00016a28     0x9060 c:/progra~2/codesourcery/source~1/bin/../lib/gcc/arm-none-eabi/4.6.1/../../../../arm-none-eabi/lib/thumb2\libstdc++.a(cp-demangle.o)
                0x0001f990                __cxa_demangle
                0x0001fa5c                __gcclibcxx_demangle_callback
 .text.__cxa_current_exception_type
                0x0001fa88       0x1c c:/progra~2/codesourcery/source~1/bin/../lib/gcc/arm-none-eabi/4.6.1/../../../../arm-none-eabi/lib/thumb2\libstdc++.a(eh_type.o)
                0x0001fa88                __cxa_current_exception_type
 .text          0x0001faa4       0x2c c:/progra~2/codesourcery/source~1/bin/../lib/gcc/arm-none-eabi/4.6.1/thumb2\libgcc.a(_aeabi_uldivmod.o)
                0x0001faa4                __aeabi_uldivmod
 .text          0x0001fad0       0x5c c:/progra~2/codesourcery/source~1/bin/../lib/gcc/arm-none-eabi/4.6.1/thumb2\libgcc.a(bpabi.o)
                0x0001fad0                __gnu_ldivmod_helper
                0x0001fb00                __gnu_uldivmod_helper
 .text          0x0001fb2c      0xbd8 c:/progra~2/codesourcery/source~1/bin/../lib/gcc/arm-none-eabi/4.6.1/thumb2\libgcc.a(unwind-arm.o)
                0x0001fde8                _Unwind_VRS_Get
                0x0001fe34                _Unwind_VRS_Set
                0x000201c8                __aeabi_unwind_cpp_pr2
                0x000201d0                __aeabi_unwind_cpp_pr1
                0x000201d8                __aeabi_unwind_cpp_pr0
                0x000201e0                _Unwind_VRS_Pop
                0x000205a8                _Unwind_GetCFA
                0x000205ac                __gnu_Unwind_RaiseException
                0x0002060c                __gnu_Unwind_ForcedUnwind
                0x00020620                __gnu_Unwind_Resume
                0x0002065c                __gnu_Unwind_Resume_or_Rethrow
                0x00020674                _Unwind_Complete
                0x00020678                _Unwind_DeleteException
                0x00020688                __gnu_Unwind_Backtrace
 .text          0x00020704      0x1ac c:/progra~2/codesourcery/source~1/bin/../lib/gcc/arm-none-eabi/4.6.1/thumb2\libgcc.a(libunwind.o)
                0x00020704                __restore_core_regs
                0x00020704                restore_core_regs
                0x0002071c                __gnu_Unwind_Restore_VFP
                0x00020724                __gnu_Unwind_Save_VFP
                0x0002072c                __gnu_Unwind_Restore_VFP_D
                0x00020734                __gnu_Unwind_Save_VFP_D
                0x0002073c                __gnu_Unwind_Restore_VFP_D_16_to_31
                0x00020744                __gnu_Unwind_Save_VFP_D_16_to_31
                0x0002074c                __gnu_Unwind_Restore_WMMXD
                0x00020790                __gnu_Unwind_Save_WMMXD
                0x000207d4                __gnu_Unwind_Restore_WMMXC
                0x000207e8                __gnu_Unwind_Save_WMMXC
                0x000207fc                ___Unwind_RaiseException
                0x000207fc                _Unwind_RaiseException
                0x00020820                _Unwind_Resume
                0x00020820                ___Unwind_Resume
                0x00020844                _Unwind_Resume_or_Rethrow
                0x00020844                ___Unwind_Resume_or_Rethrow
                0x00020868                _Unwind_ForcedUnwind
                0x00020868                ___Unwind_ForcedUnwind
                0x0002088c                ___Unwind_Backtrace
                0x0002088c                _Unwind_Backtrace
 .text          0x000208b0      0x3b8 c:/progra~2/codesourcery/source~1/bin/../lib/gcc/arm-none-eabi/4.6.1/thumb2\libgcc.a(pr-support.o)
                0x00020904                __gnu_unwind_execute
                0x00020c0c                __gnu_unwind_frame
                0x00020c38                _Unwind_GetRegionStart
                0x00020c44                _Unwind_GetLanguageSpecificData
                0x00020c58                _Unwind_GetDataRelBase
                0x00020c60                _Unwind_GetTextRelBase
 .text          0x00020c68        0x4 c:/progra~2/codesourcery/source~1/bin/../lib/gcc/arm-none-eabi/4.6.1/thumb2\libgcc.a(_dvmd_tls.o)
                0x00020c68                __aeabi_idiv0
                0x00020c68                __aeabi_ldiv0
 .text          0x00020c6c      0x364 c:/progra~2/codesourcery/source~1/bin/../lib/gcc/arm-none-eabi/4.6.1/thumb2\libgcc.a(_divdi3.o)
                0x00020c6c                __divdi3
 .text          0x00020fd0      0x334 c:/progra~2/codesourcery/source~1/bin/../lib/gcc/arm-none-eabi/4.6.1/thumb2\libgcc.a(_udivdi3.o)
                0x00020fd0                __udivdi3
 *fill*         0x00021304        0x4 00
 .text          0x00021308      0x278 c:/progra~2/codesourcery/source~1/bin/../lib/gcc/arm-none-eabi/4.6.1/thumb2\libgcc.a(_udivsi3.o)
                0x00021308                __aeabi_uidiv
                0x00021308                __udivsi3
                0x00021564                __aeabi_uidivmod
 .text          0x00021580       0x10 c:/progra~2/codesourcery/source~1/bin/../lib/gcc/arm-none-eabi/4.6.1/../../../../arm-none-eabi/lib/thumb2\libc.a(lib_a-abort.o)
                0x00021580                abort
 .text          0x00021590       0xac c:/progra~2/codesourcery/source~1/bin/../lib/gcc/arm-none-eabi/4.6.1/../../../../arm-none-eabi/lib/thumb2\libc.a(lib_a-fputc.o)
                0x00021590                _fputc_r
                0x000215e4                fputc
 .text          0x0002163c       0x94 c:/progra~2/codesourcery/source~1/bin/../lib/gcc/arm-none-eabi/4.6.1/../../../../arm-none-eabi/lib/thumb2\libc.a(lib_a-fputs.o)
                0x0002163c                _fputs_r
                0x000216bc                fputs
 .text          0x000216d0      0x32c c:/progra~2/codesourcery/source~1/bin/../lib/gcc/arm-none-eabi/4.6.1/../../../../arm-none-eabi/lib/thumb2\libc.a(lib_a-fvwrite.o)
                0x000216d0                __sfvwrite_r
 .text          0x000219fc       0xbc c:/progra~2/codesourcery/source~1/bin/../lib/gcc/arm-none-eabi/4.6.1/../../../../arm-none-eabi/lib/thumb2\libc.a(lib_a-fwrite.o)
                0x000219fc                _fwrite_r
                0x00021a94                fwrite
 .text          0x00021ab8       0x50 c:/progra~2/codesourcery/source~1/bin/../lib/gcc/arm-none-eabi/4.6.1/../../../../arm-none-eabi/lib/thumb2\libc.a(lib_a-init.o)
                0x00021ab8                __libc_init_array
 .text          0x00021b08       0x20 c:/progra~2/codesourcery/source~1/bin/../lib/gcc/arm-none-eabi/4.6.1/../../../../arm-none-eabi/lib/thumb2\libc.a(lib_a-malloc.o)
                0x00021b08                malloc
                0x00021b18                free
 .text          0x00021b28      0x57c c:/progra~2/codesourcery/source~1/bin/../lib/gcc/arm-none-eabi/4.6.1/../../../../arm-none-eabi/lib/thumb2\libc.a(lib_a-mallocr.o)
                0x00021b28                _malloc_r
 .text          0x000220a4       0x88 c:/progra~2/codesourcery/source~1/bin/../lib/gcc/arm-none-eabi/4.6.1/../../../../arm-none-eabi/lib/thumb2\libc.a(lib_a-memchr.o)
                0x000220a4                memchr
 .text          0x0002212c       0x5c c:/progra~2/codesourcery/source~1/bin/../lib/gcc/arm-none-eabi/4.6.1/../../../../arm-none-eabi/lib/thumb2\libc.a(lib_a-memcmp.o)
                0x0002212c                memcmp
 .text          0x00022188       0xf0 c:/progra~2/codesourcery/source~1/bin/../lib/gcc/arm-none-eabi/4.6.1/../../../../arm-none-eabi/lib/thumb2\libc.a(lib_a-memcpy.o)
                0x00022188                memcpy
 .text          0x00022278       0xbc c:/progra~2/codesourcery/source~1/bin/../lib/gcc/arm-none-eabi/4.6.1/../../../../arm-none-eabi/lib/thumb2\libc.a(lib_a-memmove.o)
                0x00022278                memmove
 .text          0x00022334       0x8c c:/progra~2/codesourcery/source~1/bin/../lib/gcc/arm-none-eabi/4.6.1/../../../../arm-none-eabi/lib/thumb2\libc.a(lib_a-memset.o)
                0x00022334                memset
 .text          0x000223c0        0x8 c:/progra~2/codesourcery/source~1/bin/../lib/gcc/arm-none-eabi/4.6.1/../../../../arm-none-eabi/lib/thumb2\libc.a(lib_a-mlock.o)
                0x000223c0                __malloc_lock
                0x000223c4                __malloc_unlock
 .text          0x000223c8      0x138 c:/progra~2/codesourcery/source~1/bin/../lib/gcc/arm-none-eabi/4.6.1/../../../../arm-none-eabi/lib/thumb2\libc.a(lib_a-putc.o)
                0x000223c8                _putc_r
                0x00022458                putc
 .text          0x00022500      0x100 c:/progra~2/codesourcery/source~1/bin/../lib/gcc/arm-none-eabi/4.6.1/../../../../arm-none-eabi/lib/thumb2\libc.a(lib_a-rand.o)
                0x00022500                srand
                0x0002255c                rand
 .text          0x00022600       0x14 c:/progra~2/codesourcery/source~1/bin/../lib/gcc/arm-none-eabi/4.6.1/../../../../arm-none-eabi/lib/thumb2\libc.a(lib_a-realloc.o)
                0x00022600                realloc
 .text          0x00022614      0x3d8 c:/progra~2/codesourcery/source~1/bin/../lib/gcc/arm-none-eabi/4.6.1/../../../../arm-none-eabi/lib/thumb2\libc.a(lib_a-reallocr.o)
                0x00022614                _realloc_r
 .text          0x000229ec       0x28 c:/progra~2/codesourcery/source~1/bin/../lib/gcc/arm-none-eabi/4.6.1/../../../../arm-none-eabi/lib/thumb2\libc.a(lib_a-sbrkr.o)
                0x000229ec                _sbrk_r
 .text          0x00022a14      0x150 c:/progra~2/codesourcery/source~1/bin/../lib/gcc/arm-none-eabi/4.6.1/../../../../arm-none-eabi/lib/thumb2\libc.a(lib_a-signal.o)
                0x00022a14                _init_signal_r
                0x00022a44                _signal_r
                0x00022a80                _raise_r
                0x00022ad4                __sigtramp_r
                0x00022b20                raise
                0x00022b30                signal
                0x00022b44                _init_signal
                0x00022b54                __sigtramp
 .text          0x00022b64       0x2c c:/progra~2/codesourcery/source~1/bin/../lib/gcc/arm-none-eabi/4.6.1/../../../../arm-none-eabi/lib/thumb2\libc.a(lib_a-signalr.o)
                0x00022b64                _kill_r
                0x00022b8c                _getpid_r
 .text          0x00022b90       0x94 c:/progra~2/codesourcery/source~1/bin/../lib/gcc/arm-none-eabi/4.6.1/../../../../arm-none-eabi/lib/thumb2\libc.a(lib_a-sprintf.o)
                0x00022b90                _sprintf_r
                0x00022bd4                sprintf
 .text          0x00022c24       0xf0 c:/progra~2/codesourcery/source~1/bin/../lib/gcc/arm-none-eabi/4.6.1/../../../../arm-none-eabi/lib/thumb2\libc.a(lib_a-strchr.o)
                0x00022c24                strchr
 .text          0x00022d14      0x1dc c:/progra~2/codesourcery/source~1/bin/../lib/gcc/arm-none-eabi/4.6.1/../../../../arm-none-eabi/lib/thumb2\libc.a(lib_a-strcmp.o)
                0x00022d14                strcmp
 .text          0x00022ef0       0xbc c:/progra~2/codesourcery/source~1/bin/../lib/gcc/arm-none-eabi/4.6.1/../../../../arm-none-eabi/lib/thumb2\libc.a(lib_a-strcpy.o)
                0x00022ef0                strcpy
 .text          0x00022fac       0x60 c:/progra~2/codesourcery/source~1/bin/../lib/gcc/arm-none-eabi/4.6.1/../../../../arm-none-eabi/lib/thumb2\libc.a(lib_a-strlen.o)
                0x00022fac                strlen
 .text          0x0002300c       0xa8 c:/progra~2/codesourcery/source~1/bin/../lib/gcc/arm-none-eabi/4.6.1/../../../../arm-none-eabi/lib/thumb2\libc.a(lib_a-strncmp.o)
                0x0002300c                strncmp
 .text          0x000230b4       0x74 c:/progra~2/codesourcery/source~1/bin/../lib/gcc/arm-none-eabi/4.6.1/../../../../arm-none-eabi/lib/thumb2\libc.a(lib_a-strncpy.o)
                0x000230b4                strncpy
 .text          0x00023128       0x28 c:/progra~2/codesourcery/source~1/bin/../lib/gcc/arm-none-eabi/4.6.1/../../../../arm-none-eabi/lib/thumb2\libc.a(lib_a-strrchr.o)
                0x00023128                strrchr
 .text          0x00023150     0x14d8 c:/progra~2/codesourcery/source~1/bin/../lib/gcc/arm-none-eabi/4.6.1/../../../../arm-none-eabi/lib/thumb2\libc.a(lib_a-svfprintf.o)
                0x00023150                _svfprintf_r
 .text          0x00024628       0x1c c:/progra~2/codesourcery/source~1/bin/../lib/gcc/arm-none-eabi/4.6.1/../../../../arm-none-eabi/lib/thumb2\libc.a(lib_a-syswrite.o)
                0x00024628                write
 .text          0x00024644       0xfc c:/progra~2/codesourcery/source~1/bin/../lib/gcc/arm-none-eabi/4.6.1/../../../../arm-none-eabi/lib/thumb2\libc.a(lib_a-wbuf.o)
                0x00024644                __swbuf_r
                0x0002472c                __swbuf
 .text          0x00024740       0x2c c:/progra~2/codesourcery/source~1/bin/../lib/gcc/arm-none-eabi/4.6.1/../../../../arm-none-eabi/lib/thumb2\libc.a(lib_a-writer.o)
                0x00024740                _write_r
 .text          0x0002476c       0xf8 c:/progra~2/codesourcery/source~1/bin/../lib/gcc/arm-none-eabi/4.6.1/../../../../arm-none-eabi/lib/thumb2\libc.a(lib_a-wsetup.o)
                0x0002476c                __swsetup_r
 *fill*         0x00024864        0x4 00
 .text          0x00024868     0x1030 c:/progra~2/codesourcery/source~1/bin/../lib/gcc/arm-none-eabi/4.6.1/../../../../arm-none-eabi/lib/thumb2\libc.a(lib_a-dtoa.o)
                0x000249b0                _dtoa_r
 .text          0x00025898      0x1e0 c:/progra~2/codesourcery/source~1/bin/../lib/gcc/arm-none-eabi/4.6.1/../../../../arm-none-eabi/lib/thumb2\libc.a(lib_a-fflush.o)
                0x00025898                _fflush_r
                0x00025a50                fflush
 .text          0x00025a78      0x1dc c:/progra~2/codesourcery/source~1/bin/../lib/gcc/arm-none-eabi/4.6.1/../../../../arm-none-eabi/lib/thumb2\libc.a(lib_a-findfp.o)
                0x00025a80                _cleanup_r
                0x00025adc                __sfmoreglue
                0x00025b0c                _cleanup
                0x00025b1c                __sinit
                0x00025b78                __sfp
                0x00025c14                __sfp_lock_acquire
                0x00025c18                __sfp_lock_release
                0x00025c1c                __sinit_lock_acquire
                0x00025c20                __sinit_lock_release
                0x00025c24                __fp_lock_all
                0x00025c3c                __fp_unlock_all
 .text          0x00025c54      0x234 c:/progra~2/codesourcery/source~1/bin/../lib/gcc/arm-none-eabi/4.6.1/../../../../arm-none-eabi/lib/thumb2\libc.a(lib_a-freer.o)
                0x00025c54                _malloc_trim_r
                0x00025cf8                _free_r
 .text          0x00025e88       0xa0 c:/progra~2/codesourcery/source~1/bin/../lib/gcc/arm-none-eabi/4.6.1/../../../../arm-none-eabi/lib/thumb2\libc.a(lib_a-fwalk.o)
                0x00025e88                _fwalk
                0x00025ed4                _fwalk_reent
 .text          0x00025f28       0xa4 c:/progra~2/codesourcery/source~1/bin/../lib/gcc/arm-none-eabi/4.6.1/../../../../arm-none-eabi/lib/thumb2\libc.a(lib_a-locale.o)
                0x00025f28                _setlocale_r
                0x00025f84                __locale_charset
                0x00025f90                __locale_mb_cur_max
                0x00025f9c                __locale_msgcharset
                0x00025fa4                __locale_cjk_lang
                0x00025fa8                _localeconv_r
                0x00025fb0                setlocale
                0x00025fc4                localeconv
 .text          0x00025fcc       0xe8 c:/progra~2/codesourcery/source~1/bin/../lib/gcc/arm-none-eabi/4.6.1/../../../../arm-none-eabi/lib/thumb2\libc.a(lib_a-makebuf.o)
                0x00025fcc                __smakebuf_r
 .text          0x000260b4      0x904 c:/progra~2/codesourcery/source~1/bin/../lib/gcc/arm-none-eabi/4.6.1/../../../../arm-none-eabi/lib/thumb2\libc.a(lib_a-mprec.o)
                0x000260b4                _Balloc
                0x0002611c                _Bfree
                0x00026154                __multadd
                0x000261d8                __s2b
                0x0002626c                __hi0bits
                0x000262a8                __lo0bits
                0x00026304                __i2b
                0x00026318                __multiply
                0x00026454                __pow5mult
                0x000264f4                __lshift
                0x000265b0                __mcmp
                0x000265f0                __mdiff
                0x000266d0                __ulp
                0x00026714                __b2d
                0x000267c0                __d2b
                0x00026888                __ratio
                0x000268dc                _mprec_log10
                0x00026910                __copybits
                0x00026958                __any_on
 .text          0x000269b8       0x90 c:/progra~2/codesourcery/source~1/bin/../lib/gcc/arm-none-eabi/4.6.1/../../../../arm-none-eabi/lib/thumb2\libc.a(lib_a-s_fpclassify.o)
                0x000269b8                __fpclassifyd
 .text          0x00026a48       0x8c c:/progra~2/codesourcery/source~1/bin/../lib/gcc/arm-none-eabi/4.6.1/../../../../arm-none-eabi/lib/thumb2\libc.a(lib_a-stdio.o)
                0x00026a48                __sread
                0x00026a6c                __seofread
                0x00026a70                __swrite
                0x00026aa8                __sseek
                0x00026acc                __sclose
 .text          0x00026ad4      0xb60 c:/progra~2/codesourcery/source~1/bin/../lib/gcc/arm-none-eabi/4.6.1/../../../../arm-none-eabi/lib/thumb2\libc.a(lib_a-svfiprintf.o)
                0x00026ad4                __ssprint_r
                0x00026bec                _svfiprintf_r
 .text          0x00027634       0x60 c:/progra~2/codesourcery/source~1/bin/../lib/gcc/arm-none-eabi/4.6.1/../../../../arm-none-eabi/lib/thumb2\libc.a(lib_a-callocr.o)
                0x00027634                _calloc_r
 .text          0x00027694       0x28 c:/progra~2/codesourcery/source~1/bin/../lib/gcc/arm-none-eabi/4.6.1/../../../../arm-none-eabi/lib/thumb2\libc.a(lib_a-closer.o)
                0x00027694                _close_r
 .text          0x000276bc       0xc4 c:/progra~2/codesourcery/source~1/bin/../lib/gcc/arm-none-eabi/4.6.1/../../../../arm-none-eabi/lib/thumb2\libc.a(lib_a-fclose.o)
                0x000276bc                _fclose_r
                0x00027770                fclose
 .text          0x00027780       0x28 c:/progra~2/codesourcery/source~1/bin/../lib/gcc/arm-none-eabi/4.6.1/../../../../arm-none-eabi/lib/thumb2\libc.a(lib_a-fstatr.o)
                0x00027780                _fstat_r
 .text          0x000277a8       0x28 c:/progra~2/codesourcery/source~1/bin/../lib/gcc/arm-none-eabi/4.6.1/../../../../arm-none-eabi/lib/thumb2\libc.a(lib_a-isattyr.o)
                0x000277a8                _isatty_r
 .text          0x000277d0       0x2c c:/progra~2/codesourcery/source~1/bin/../lib/gcc/arm-none-eabi/4.6.1/../../../../arm-none-eabi/lib/thumb2\libc.a(lib_a-lseekr.o)
                0x000277d0                _lseek_r
 .text          0x000277fc       0x2c c:/progra~2/codesourcery/source~1/bin/../lib/gcc/arm-none-eabi/4.6.1/../../../../arm-none-eabi/lib/thumb2\libc.a(lib_a-readr.o)
                0x000277fc                _read_r
 .text          0x00027828      0x370 c:/progra~2/codesourcery/source~1/bin/../lib/gcc/arm-none-eabi/4.6.1/thumb2\libgcc.a(_arm_addsubdf3.o)
                0x00027828                __aeabi_drsub
                0x00027830                __aeabi_dsub
                0x00027830                __subdf3
                0x00027834                __aeabi_dadd
                0x00027834                __adddf3
                0x00027aac                __floatunsidf
                0x00027aac                __aeabi_ui2d
                0x00027acc                __floatsidf
                0x00027acc                __aeabi_i2d
                0x00027af0                __aeabi_f2d
                0x00027af0                __extendsfdf2
                0x00027b2c                __floatundidf
                0x00027b2c                __aeabi_ul2d
                0x00027b3c                __floatdidf
                0x00027b3c                __aeabi_l2d
 .text          0x00027b98      0x424 c:/progra~2/codesourcery/source~1/bin/../lib/gcc/arm-none-eabi/4.6.1/thumb2\libgcc.a(_arm_muldivdf3.o)
                0x00027b98                __aeabi_dmul
                0x00027b98                __muldf3
                0x00027dec                __divdf3
                0x00027dec                __aeabi_ddiv
 .text          0x00027fbc      0x110 c:/progra~2/codesourcery/source~1/bin/../lib/gcc/arm-none-eabi/4.6.1/thumb2\libgcc.a(_arm_cmpdf2.o)
                0x00027fbc                __gtdf2
                0x00027fbc                __gedf2
                0x00027fc4                __ltdf2
                0x00027fc4                __ledf2
                0x00027fcc                __nedf2
                0x00027fcc                __eqdf2
                0x00027fcc                __cmpdf2
                0x00028048                __aeabi_cdrcmple
                0x00028058                __aeabi_cdcmpeq
                0x00028058                __aeabi_cdcmple
                0x00028068                __aeabi_dcmpeq
                0x0002807c                __aeabi_dcmplt
                0x00028090                __aeabi_dcmple
                0x000280a4                __aeabi_dcmpge
                0x000280b8                __aeabi_dcmpgt
 .text          0x000280cc       0x50 c:/progra~2/codesourcery/source~1/bin/../lib/gcc/arm-none-eabi/4.6.1/thumb2\libgcc.a(_arm_fixdfsi.o)
                0x000280cc                __aeabi_d2iz
                0x000280cc                __fixdfsi
 *(.gnu.linkonce.t.*)
 *(.glue_7)
 .glue_7        0x00000000        0x0 linker stubs
 *(.glue_7t)
 .glue_7t       0x00000000        0x0 linker stubs
 *(.gcc_except_table)
 *(.rodata .rodata*)
 .rodata        0x0002811c       0x20 build\lib\source\lpc17xx_spi.o
 .rodata        0x0002813c       0x24 build\lib\source\lpc17xx_timer.o
 .rodata        0x00028160       0x20 build\lib\source\lpc17xx_uart.o
 .rodata        0x00028180       0x10 build\lib_sd\fat.o
 .rodata        0x00028190       0xc0 build\USBCDC\usbdesc.o
                0x00028190                USB_DeviceDescriptor
                0x000281a4                USB_ConfigDescriptor
                0x000281e8                USB_StringDescriptor
 .rodata        0x00028250       0x40 build\USBCDC\usbuser.o
                0x00028250                USB_P_EP
 .rodata        0x00028290       0x18 build\EepromMap.o
 .rodata        0x000282a8       0x2c build\Host.o
 .rodata        0x000282d4       0x10 build\LiquidCrystal.o
 *fill*         0x000282e4        0x4 00
 .rodata._ZTV13LiquidCrystal
                0x000282e8       0x10 build\LiquidCrystal.o
                0x000282e8                vtable for LiquidCrystal
 .rodata._ZTS13LiquidCrystal
                0x000282f8       0x10 build\LiquidCrystal.o
                0x000282f8                typeinfo name for LiquidCrystal
 .rodata._ZTI13LiquidCrystal
                0x00028308        0x8 build\LiquidCrystal.o
                0x00028308                typeinfo for LiquidCrystal
 .rodata        0x00028310       0x80 build\Main.o
 .rodata        0x00028390      0x318 build\Menu.o
                0x000283a0                vtable for MainMenu
                0x000283c8                vtable for MonitorMode
                0x000283e0                vtable for CancelBuildMenu
                0x00028408                vtable for SDMenu
                0x00028430                vtable for SnakeMode
                0x00028448                vtable for JogMode
                0x00028460                vtable for SplashScreen
                0x00028478                vtable for Menu
                0x000284a0                typeinfo for MainMenu
                0x000284ac                typeinfo name for MainMenu
                0x000284b8                typeinfo for MonitorMode
                0x000284c4                typeinfo name for MonitorMode
                0x000284d4                typeinfo for CancelBuildMenu
                0x000284e0                typeinfo name for CancelBuildMenu
                0x000284f4                typeinfo for SDMenu
                0x00028500                typeinfo name for SDMenu
                0x00028508                typeinfo for SnakeMode
                0x00028514                typeinfo name for SnakeMode
                0x00028520                typeinfo for JogMode
                0x0002852c                typeinfo name for JogMode
                0x00028538                typeinfo for SplashScreen
                0x00028544                typeinfo name for SplashScreen
                0x00028554                typeinfo for Menu
                0x00028560                typeinfo name for Menu
 .rodata._ZTV6Screen
                0x000286a8       0x18 build\Menu.o
                0x000286a8                vtable for Screen
 .rodata._ZTS6Screen
                0x000286c0        0x8 build\Menu.o
                0x000286c0                typeinfo name for Screen
 .rodata._ZTI6Screen
                0x000286c8        0x8 build\Menu.o
                0x000286c8                typeinfo for Screen
 .rodata        0x000286d0       0x78 build\Motherboard.o
 .rodata        0x00028748        0x4 build\SDCard.o
 .rodata        0x0002874c       0x10 build\Steppers.o
 .rodata        0x0002875c       0x14 build\UART.o
 .rodata._ZTVN10__cxxabiv120__si_class_type_infoE
                0x00028770       0x30 c:/progra~2/codesourcery/source~1/bin/../lib/gcc/arm-none-eabi/4.6.1/../../../../arm-none-eabi/lib/thumb2\libstdc++.a(si_class_type_info.o)
                0x00028770                vtable for __cxxabiv1::__si_class_type_info
 .rodata._ZTIN10__cxxabiv120__si_class_type_infoE
                0x000287a0        0xc c:/progra~2/codesourcery/source~1/bin/../lib/gcc/arm-none-eabi/4.6.1/../../../../arm-none-eabi/lib/thumb2\libstdc++.a(si_class_type_info.o)
                0x000287a0                typeinfo for __cxxabiv1::__si_class_type_info
 .rodata._ZTSN10__cxxabiv120__si_class_type_infoE
                0x000287ac       0x28 c:/progra~2/codesourcery/source~1/bin/../lib/gcc/arm-none-eabi/4.6.1/../../../../arm-none-eabi/lib/thumb2\libstdc++.a(si_class_type_info.o)
                0x000287ac                typeinfo name for __cxxabiv1::__si_class_type_info
 .rodata.str1.4
                0x000287d4       0x1c c:/progra~2/codesourcery/source~1/bin/../lib/gcc/arm-none-eabi/4.6.1/../../../../arm-none-eabi/lib/thumb2\libstdc++.a(pure.o)
 .rodata._ZTVN10__cxxabiv117__class_type_infoE
                0x000287f0       0x30 c:/progra~2/codesourcery/source~1/bin/../lib/gcc/arm-none-eabi/4.6.1/../../../../arm-none-eabi/lib/thumb2\libstdc++.a(class_type_info.o)
                0x000287f0                vtable for __cxxabiv1::__class_type_info
 .rodata._ZTIN10__cxxabiv117__class_type_infoE
                0x00028820        0xc c:/progra~2/codesourcery/source~1/bin/../lib/gcc/arm-none-eabi/4.6.1/../../../../arm-none-eabi/lib/thumb2\libstdc++.a(class_type_info.o)
                0x00028820                typeinfo for __cxxabiv1::__class_type_info
 .rodata._ZTSN10__cxxabiv117__class_type_infoE
                0x0002882c       0x24 c:/progra~2/codesourcery/source~1/bin/../lib/gcc/arm-none-eabi/4.6.1/../../../../arm-none-eabi/lib/thumb2\libstdc++.a(class_type_info.o)
                0x0002882c                typeinfo name for __cxxabiv1::__class_type_info
 .rodata._ZTVSt9exception
                0x00028850       0x18 c:/progra~2/codesourcery/source~1/bin/../lib/gcc/arm-none-eabi/4.6.1/../../../../arm-none-eabi/lib/thumb2\libstdc++.a(eh_exception.o)
                0x00028850                vtable for std::exception
 .rodata._ZTIN10__cxxabiv115__forced_unwindE
                0x00028868        0x8 c:/progra~2/codesourcery/source~1/bin/../lib/gcc/arm-none-eabi/4.6.1/../../../../arm-none-eabi/lib/thumb2\libstdc++.a(eh_exception.o)
                0x00028868                typeinfo for __cxxabiv1::__forced_unwind
 .rodata._ZTISt9exception
                0x00028870        0x8 c:/progra~2/codesourcery/source~1/bin/../lib/gcc/arm-none-eabi/4.6.1/../../../../arm-none-eabi/lib/thumb2\libstdc++.a(eh_exception.o)
                0x00028870                typeinfo for std::exception
 .rodata._ZTSSt13bad_exception
                0x00028878       0x14 c:/progra~2/codesourcery/source~1/bin/../lib/gcc/arm-none-eabi/4.6.1/../../../../arm-none-eabi/lib/thumb2\libstdc++.a(eh_exception.o)
                0x00028878                typeinfo name for std::bad_exception
 .rodata.str1.4
                0x0002888c       0x23 c:/progra~2/codesourcery/source~1/bin/../lib/gcc/arm-none-eabi/4.6.1/../../../../arm-none-eabi/lib/thumb2\libstdc++.a(eh_exception.o)
                                 0x24 (size before relaxing)
 *fill*         0x000288af        0x1 00
 .rodata._ZTSN10__cxxabiv119__foreign_exceptionE
                0x000288b0       0x24 c:/progra~2/codesourcery/source~1/bin/../lib/gcc/arm-none-eabi/4.6.1/../../../../arm-none-eabi/lib/thumb2\libstdc++.a(eh_exception.o)
                0x000288b0                typeinfo name for __cxxabiv1::__foreign_exception
 .rodata._ZTIN10__cxxabiv119__foreign_exceptionE
                0x000288d4        0x8 c:/progra~2/codesourcery/source~1/bin/../lib/gcc/arm-none-eabi/4.6.1/../../../../arm-none-eabi/lib/thumb2\libstdc++.a(eh_exception.o)
                0x000288d4                typeinfo for __cxxabiv1::__foreign_exception
 *fill*         0x000288dc        0x4 00
 .rodata._ZTVSt13bad_exception
                0x000288e0       0x18 c:/progra~2/codesourcery/source~1/bin/../lib/gcc/arm-none-eabi/4.6.1/../../../../arm-none-eabi/lib/thumb2\libstdc++.a(eh_exception.o)
                0x000288e0                vtable for std::bad_exception
 .rodata._ZTSSt9exception
                0x000288f8       0x10 c:/progra~2/codesourcery/source~1/bin/../lib/gcc/arm-none-eabi/4.6.1/../../../../arm-none-eabi/lib/thumb2\libstdc++.a(eh_exception.o)
                0x000288f8                typeinfo name for std::exception
 .rodata._ZTSN10__cxxabiv115__forced_unwindE
                0x00028908       0x20 c:/progra~2/codesourcery/source~1/bin/../lib/gcc/arm-none-eabi/4.6.1/../../../../arm-none-eabi/lib/thumb2\libstdc++.a(eh_exception.o)
                0x00028908                typeinfo name for __cxxabiv1::__forced_unwind
 .rodata._ZTISt13bad_exception
                0x00028928        0xc c:/progra~2/codesourcery/source~1/bin/../lib/gcc/arm-none-eabi/4.6.1/../../../../arm-none-eabi/lib/thumb2\libstdc++.a(eh_exception.o)
                0x00028928                typeinfo for std::bad_exception
 .rodata._ZTISt9type_info
                0x00028934        0x8 c:/progra~2/codesourcery/source~1/bin/../lib/gcc/arm-none-eabi/4.6.1/../../../../arm-none-eabi/lib/thumb2\libstdc++.a(tinfo.o)
                0x00028934                typeinfo for std::type_info
 .rodata._ZTSSt9type_info
                0x0002893c       0x10 c:/progra~2/codesourcery/source~1/bin/../lib/gcc/arm-none-eabi/4.6.1/../../../../arm-none-eabi/lib/thumb2\libstdc++.a(tinfo.o)
                0x0002893c                typeinfo name for std::type_info
 *fill*         0x0002894c        0x4 00
 .rodata._ZTVSt9type_info
                0x00028950       0x20 c:/progra~2/codesourcery/source~1/bin/../lib/gcc/arm-none-eabi/4.6.1/../../../../arm-none-eabi/lib/thumb2\libstdc++.a(tinfo.o)
                0x00028950                vtable for std::type_info
 .rodata.str1.4
                0x00028970       0x94 c:/progra~2/codesourcery/source~1/bin/../lib/gcc/arm-none-eabi/4.6.1/../../../../arm-none-eabi/lib/thumb2\libstdc++.a(vterminate.o)
 .rodata        0x00028a04      0x6a8 c:/progra~2/codesourcery/source~1/bin/../lib/gcc/arm-none-eabi/4.6.1/../../../../arm-none-eabi/lib/thumb2\libstdc++.a(cp-demangle.o)
 .rodata.str1.4
                0x000290ac      0x5bb c:/progra~2/codesourcery/source~1/bin/../lib/gcc/arm-none-eabi/4.6.1/../../../../arm-none-eabi/lib/thumb2\libstdc++.a(cp-demangle.o)
                                0x5cc (size before relaxing)
 *fill*         0x00029667        0x1 00
 .rodata        0x00029668        0x4 c:/progra~2/codesourcery/source~1/bin/../lib/gcc/arm-none-eabi/4.6.1/../../../../arm-none-eabi/lib/thumb2\libc.a(lib_a-impure.o)
                0x00029668                _global_impure_ptr
 .rodata.str1.4
                0x0002966c        0x2 c:/progra~2/codesourcery/source~1/bin/../lib/gcc/arm-none-eabi/4.6.1/../../../../arm-none-eabi/lib/thumb2\libc.a(lib_a-impure.o)
                                  0x4 (size before relaxing)
 *fill*         0x0002966e        0x2 00
 .rodata        0x00029670       0x20 c:/progra~2/codesourcery/source~1/bin/../lib/gcc/arm-none-eabi/4.6.1/../../../../arm-none-eabi/lib/thumb2\libc.a(lib_a-svfprintf.o)
 .rodata.str1.4
                0x00029690       0x42 c:/progra~2/codesourcery/source~1/bin/../lib/gcc/arm-none-eabi/4.6.1/../../../../arm-none-eabi/lib/thumb2\libc.a(lib_a-svfprintf.o)
                                 0x44 (size before relaxing)
 *fill*         0x000296d2        0x2 00
 .rodata.str1.4
                0x000296d4       0x10 c:/progra~2/codesourcery/source~1/bin/../lib/gcc/arm-none-eabi/4.6.1/../../../../arm-none-eabi/lib/thumb2\libc.a(lib_a-dtoa.o)
                                 0x14 (size before relaxing)
 .rodata        0x000296e4       0x60 c:/progra~2/codesourcery/source~1/bin/../lib/gcc/arm-none-eabi/4.6.1/../../../../arm-none-eabi/lib/thumb2\libc.a(lib_a-findfp.o)
                0x000296e4                __sf_fake_stderr
                0x00029704                __sf_fake_stdout
                0x00029724                __sf_fake_stdin
 .rodata.str1.4
                0x00029744        0x8 c:/progra~2/codesourcery/source~1/bin/../lib/gcc/arm-none-eabi/4.6.1/../../../../arm-none-eabi/lib/thumb2\libc.a(lib_a-locale.o)
                                 0x14 (size before relaxing)
 *fill*         0x0002974c        0x4 00
 .rodata        0x00029750      0x128 c:/progra~2/codesourcery/source~1/bin/../lib/gcc/arm-none-eabi/4.6.1/../../../../arm-none-eabi/lib/thumb2\libc.a(lib_a-mprec.o)
                0x00029760                __mprec_tens
                0x00029828                __mprec_tinytens
                0x00029850                __mprec_bigtens
 .rodata        0x00029878       0x20 c:/progra~2/codesourcery/source~1/bin/../lib/gcc/arm-none-eabi/4.6.1/../../../../arm-none-eabi/lib/thumb2\libc.a(lib_a-svfiprintf.o)
 .rodata.str1.4
                0x00000000       0x30 c:/progra~2/codesourcery/source~1/bin/../lib/gcc/arm-none-eabi/4.6.1/../../../../arm-none-eabi/lib/thumb2\libc.a(lib_a-svfiprintf.o)
 *(.gnu.linkonce.r.*)
                0x00029898                . = ALIGN (0x4)
 *(.init)
 .init          0x00029898        0x4 c:/progra~2/codesourcery/source~1/bin/../lib/gcc/arm-none-eabi/4.6.1/thumb2/crti.o
                0x00029898                _init
 .init          0x0002989c        0x8 c:/progra~2/codesourcery/source~1/bin/../lib/gcc/arm-none-eabi/4.6.1/thumb2/crtn.o
                0x000298a4                . = ALIGN (0x4)
                0x000298a4                __preinit_array_start = .
 *(.preinit_array)
                0x000298a4                __preinit_array_end = .
                0x000298a4                . = ALIGN (0x4)
                0x000298a4                __init_array_start = .
 *(SORT(.init_array.*))
 *(.init_array)
 .init_array    0x000298a4        0x4 c:/progra~2/codesourcery/source~1/bin/../lib/gcc/arm-none-eabi/4.6.1/thumb2/crtbegin.o
 .init_array    0x000298a8        0x4 build\ButtonArray.o
 .init_array    0x000298ac        0x4 build\Command.o
 .init_array    0x000298b0        0x4 build\DebugPacketProcessor.o
 .init_array    0x000298b4        0x4 build\EepromMap.o
 .init_array    0x000298b8        0x4 build\Host.o
 .init_array    0x000298bc        0x4 build\Interface.o
 .init_array    0x000298c0        0x4 build\InterfaceBoard.o
 .init_array    0x000298c4        0x4 build\LiquidCrystal.o
 .init_array    0x000298c8        0x4 build\Main.o
 .init_array    0x000298cc        0x4 build\Menu.o
 .init_array    0x000298d0        0x4 build\Motherboard.o
 .init_array    0x000298d4        0x4 build\StepperAxis.o
 .init_array    0x000298d8        0x4 build\StepperInterface.o
 .init_array    0x000298dc        0x4 build\Steppers.o
 .init_array    0x000298e0        0x4 build\Timeout.o
 .init_array    0x000298e4        0x4 build\Tool.o
 .init_array    0x000298e8        0x4 build\UART.o
                0x000298ec                __init_array_end = .
                0x000298ec                . = ALIGN (0x4)
 *crtbegin.o(.ctors)
 *(EXCLUDE_FILE(*crtend.o) .ctors)
 *(SORT(.ctors.*))
 *crtend.o(.ctors)
                0x000298ec                . = ALIGN (0x4)
 *(.fini)
 .fini          0x000298ec        0x4 c:/progra~2/codesourcery/source~1/bin/../lib/gcc/arm-none-eabi/4.6.1/thumb2/crti.o
                0x000298ec                _fini
 .fini          0x000298f0        0x8 c:/progra~2/codesourcery/source~1/bin/../lib/gcc/arm-none-eabi/4.6.1/thumb2/crtn.o
                0x000298f8                . = ALIGN (0x4)
                0x000298f8                __fini_array_start = .
 *(.fini_array)
 .fini_array    0x000298f8        0x4 c:/progra~2/codesourcery/source~1/bin/../lib/gcc/arm-none-eabi/4.6.1/thumb2/crtbegin.o
 *(SORT(.fini_array.*))
                0x000298fc                __fini_array_end = .
                0x000298fc                . = ALIGN (0x4)
 *crtbegin.o(.dtors)
 *(EXCLUDE_FILE(*crtend.o) .dtors)
 *(SORT(.dtors.*))
 *crtend.o(.dtors)
                0x000298fc                _etext = .
                0x000298fc                _sifastcode = .
                0x000298fc                __exidx_start = .

.vfp11_veneer   0x000298fc        0x0
 .vfp11_veneer  0x00000000        0x0 linker stubs

.v4_bx          0x000298fc        0x0
 .v4_bx         0x00000000        0x0 linker stubs

.iplt           0x000298fc        0x0
 .iplt          0x00000000        0x0 c:/progra~2/codesourcery/source~1/bin/../lib/gcc/arm-none-eabi/4.6.1/thumb2/crtbegin.o

.ARM.exidx      0x000298fc      0x8b0
 *(.ARM.exidx* .gnu.linkonce.armexidx.*)
 .ARM.exidx     0x000298fc        0x8 build\system\mini_cpp.o
                                 0x20 (size before relaxing)
 .ARM.exidx     0x00029904       0x40 build\IAP_internal_flash_write\IAP.o
                                 0x48 (size before relaxing)
 .ARM.exidx     0x00029944        0x0 build\Atomic.o
                                  0x8 (size before relaxing)
 .ARM.exidx.text._ZN10Port_ClassC2Ev
                0x00029954        0x0 build\ButtonArray.o
                                  0x8 (size before relaxing)
 .ARM.exidx     0x00029944       0x10 build\ButtonArray.o
                                 0x28 (size before relaxing)
 .ARM.exidx.text._ZN5PointC2Elllll
                0x0002998c        0x0 build\Command.o
                                  0x8 (size before relaxing)
 .ARM.exidx.text._ZN5PointC2Elll
                0x0002998c        0x0 build\Command.o
                                  0x8 (size before relaxing)
 .ARM.exidx.text._ZNK5PointixEj
                0x0002998c        0x0 build\Command.o
                                  0x8 (size before relaxing)
 .ARM.exidx.text._ZN5PointixEj
                0x0002998c        0x0 build\Command.o
                                  0x8 (size before relaxing)
 .ARM.exidx.text._ZNK6Packet8hasErrorEv
                0x0002998c        0x0 build\Command.o
                                  0x8 (size before relaxing)
 .ARM.exidx     0x00029954       0x38 build\Command.o
                                 0x60 (size before relaxing)
 .ARM.exidx.text._ZN19CircularBufferTemplIhEC2EtPh
                0x0002998c        0x0 build\Command.o
                                  0x8 (size before relaxing)
 .ARM.exidx.text._ZNK19CircularBufferTemplIhE20getRemainingCapacityEv
                0x0002998c        0x0 build\Command.o
                                  0x8 (size before relaxing)
 .ARM.exidx.text._ZNK19CircularBufferTemplIhE7isEmptyEv
                0x0002998c        0x0 build\Command.o
                                  0x8 (size before relaxing)
 .ARM.exidx.text._ZN19CircularBufferTemplIhE4pushEh
                0x0002998c        0x0 build\Command.o
                                  0x8 (size before relaxing)
 .ARM.exidx.text._ZN19CircularBufferTemplIhE3popEv
                0x0002998c        0x0 build\Command.o
                                  0x8 (size before relaxing)
 .ARM.exidx.text._ZN19CircularBufferTemplIhE5resetEv
                0x0002998c        0x0 build\Command.o
                                  0x8 (size before relaxing)
 .ARM.exidx.text._ZNK19CircularBufferTemplIhE9getLengthEv
                0x0002998c        0x0 build\Command.o
                                  0x8 (size before relaxing)
 .ARM.exidx.text._ZN19CircularBufferTemplIhEixEt
                0x0002998c        0x0 build\Command.o
                                  0x8 (size before relaxing)
 .ARM.exidx.text._ZNK6Packet9getLengthEv
                0x0002999c        0x0 build\DebugPacketProcessor.o
                                  0x8 (size before relaxing)
 .ARM.exidx.text._ZN11Motherboard8getBoardEv
                0x0002999c        0x0 build\DebugPacketProcessor.o
                                  0x8 (size before relaxing)
 .ARM.exidx     0x0002998c       0x10 build\DebugPacketProcessor.o
                                 0x18 (size before relaxing)
 .ARM.exidx     0x0002999c        0x0 build\Delay.o
                                 0x20 (size before relaxing)
 .ARM.exidx.text._ZN3IAPC2Ev
                0x000299cc        0x0 build\EepromMap.o
                                  0x8 (size before relaxing)
 .ARM.exidx     0x0002999c       0x30 build\EepromMap.o
                                 0x48 (size before relaxing)
 .ARM.exidx.text._ZN6Packet5errorEh
                0x00029a0c        0x8 build\Host.o
 .ARM.exidx.text._ZNK6Packet12getErrorCodeEv
                0x00029a14        0x8 build\Host.o
 .ARM.exidx.text._ZNK6Packet7getDataEv
                0x00029a1c        0x0 build\Host.o
                                  0x8 (size before relaxing)
 .ARM.exidx.text._ZNK8InPacket10isFinishedEv
                0x00029a1c        0x0 build\Host.o
                                  0x8 (size before relaxing)
 .ARM.exidx.text._ZNK8InPacket9isStartedEv
                0x00029a1c        0x0 build\Host.o
                                  0x8 (size before relaxing)
 .ARM.exidx.text._ZN8InPacket7timeoutEv
                0x00029a1c        0x8 build\Host.o
 .ARM.exidx.text._ZNK9OutPacket9isSendingEv
                0x00029a24        0x8 build\Host.o
 .ARM.exidx.text._ZN4UART11getHostUARTEv
                0x00029a2c        0x0 build\Host.o
                                  0x8 (size before relaxing)
 .ARM.exidx.text._ZNK7Timeout8isActiveEv
                0x00029a2c        0x0 build\Host.o
                                  0x8 (size before relaxing)
 .ARM.exidx.text._ZN11Motherboard19getStepperInterfaceEi
                0x00029a2c        0x0 build\Host.o
                                  0x8 (size before relaxing)
 .ARM.exidx     0x000299cc       0x40 build\Host.o
                                 0x58 (size before relaxing)
 .ARM.exidx.text._ZN4host13handleVersionERK8InPacketR9OutPacket
                0x00029a2c        0x8 build\Host.o
 .ARM.exidx.text._ZN4host18handleGetBuildNameERK8InPacketR9OutPacket
                0x00029a34        0x8 build\Host.o
 .ARM.exidx.text._ZN4host19handleGetBufferSizeERK8InPacketR9OutPacket
                0x00029a3c        0x8 build\Host.o
 .ARM.exidx.text._ZN4host17handleGetPositionERK8InPacketR9OutPacket
                0x00029a44        0x8 build\Host.o
 .ARM.exidx.text._ZN4host20handleGetPositionExtERK8InPacketR9OutPacket
                0x00029a4c        0x8 build\Host.o
 .ARM.exidx.text._ZN4host19handleCaptureToFileERK8InPacketR9OutPacket
                0x00029a54        0x8 build\Host.o
 .ARM.exidx.text._ZN4host16handleEndCaptureERK8InPacketR9OutPacket
                0x00029a5c        0x8 build\Host.o
 .ARM.exidx.text._ZN4host14handlePlaybackERK8InPacketR9OutPacket
                0x00029a64        0x8 build\Host.o
 .ARM.exidx.text._ZN4host18handleNextFilenameERK8InPacketR9OutPacket
                0x00029a6c        0x8 build\Host.o
 .ARM.exidx.text._ZN4host15handleToolQueryERK8InPacketR9OutPacket
                0x00029a74        0x8 build\Host.o
 .ARM.exidx.text._ZN4host11handlePauseERK8InPacketR9OutPacket
                0x00029a7c        0x8 build\Host.o
 .ARM.exidx.text._ZN4host16handleIsFinishedERK8InPacketR9OutPacket
                0x00029a84        0x8 build\Host.o
 .ARM.exidx.text._ZN4host16handleReadEepromERK8InPacketR9OutPacket
                0x00029a8c        0x8 build\Host.o
 .ARM.exidx.text._ZN4host17handleWriteEepromERK8InPacketR9OutPacket
                0x00029a94        0x8 build\Host.o
 .ARM.exidx.text._ZN4host18handleExtendedStopERK8InPacketR9OutPacket
                0x00029a9c        0x8 build\Host.o
 .ARM.exidx.text._ZN4host27handleGetCommunicationStatsERK8InPacketR9OutPacket
                0x00029aa4        0x8 build\Host.o
 .ARM.exidx.text._ZN10Port_ClassC2E8portname
                0x00029ad4        0x0 build\Interface.o
                                  0x8 (size before relaxing)
 .ARM.exidx.text._ZN10Port_Class15setPinDirectionEhb
                0x00029ad4        0x8 build\Interface.o
 .ARM.exidx.text._ZN10Port_Class6getPinEh
                0x00029adc        0x8 build\Interface.o
 .ARM.exidx.text._ZN10Port_Class6setPinEhb
                0x00029ae4        0x8 build\Interface.o
 .ARM.exidx.text._ZN3PinC2E8portnameh
                0x00029aec        0x8 build\Interface.o
 .ARM.exidx.text._ZN3Pin12setDirectionEb
                0x00029af4        0x8 build\Interface.o
 .ARM.exidx.text._ZN3Pin8getValueEv
                0x00029afc        0x8 build\Interface.o
 .ARM.exidx.text._ZN3Pin8setValueEb
                0x00029b04        0x8 build\Interface.o
 .ARM.exidx     0x00029aac       0x28 build\Interface.o
                                 0x48 (size before relaxing)
 .ARM.exidx     0x00029b0c       0x40 build\InterfaceBoard.o
                                 0x48 (size before relaxing)
 .ARM.exidx.text._ZN10Port_Class6isNullEv
                0x00029c3c        0x0 build\LiquidCrystal.o
                                  0x8 (size before relaxing)
 .ARM.exidx.text._ZN3PinC2Ev
                0x00029c3c        0x0 build\LiquidCrystal.o
                                  0x8 (size before relaxing)
 .ARM.exidx.text._ZN3Pin6isNullEv
                0x00029c3c        0x0 build\LiquidCrystal.o
                                  0x8 (size before relaxing)
 .ARM.exidx     0x00029b4c       0xf0 build\LiquidCrystal.o
                                 0xf8 (size before relaxing)
 .ARM.exidx.text._ZN13LiquidCrystal7commandEh
                0x00029c3c        0x8 build\LiquidCrystal.o
 .ARM.exidx.text._ZN13LiquidCrystal5writeEh
                0x00029c44        0x8 build\LiquidCrystal.o
 .ARM.exidx     0x00029c4c       0x20 build\Main.o
                                 0x28 (size before relaxing)
 .ARM.exidx.text._ZN4Menu13getUpdateRateEv
                0x00029d64        0x0 build\Menu.o
                                  0x8 (size before relaxing)
 .ARM.exidx.text._ZN12SplashScreen13getUpdateRateEv
                0x00029d64        0x0 build\Menu.o
                                  0x8 (size before relaxing)
 .ARM.exidx.text._ZN7JogMode13getUpdateRateEv
                0x00029d64        0x0 build\Menu.o
                                  0x8 (size before relaxing)
 .ARM.exidx.text._ZN9SnakeMode13getUpdateRateEv
                0x00029d64        0x0 build\Menu.o
                                  0x8 (size before relaxing)
 .ARM.exidx.text._ZN11MonitorMode13getUpdateRateEv
                0x00029d64        0x0 build\Menu.o
                                  0x8 (size before relaxing)
 .ARM.exidx.text._Z9rcCompareh12ResponseCode
                0x00029d64        0x0 build\Menu.o
                                  0x8 (size before relaxing)
 .ARM.exidx     0x00029c6c       0xf8 build\Menu.o
                                0x118 (size before relaxing)
 .ARM.exidx.text._ZN6ScreenC2Ev
                0x00029d64        0x0 build\Menu.o
                                  0x8 (size before relaxing)
 .ARM.exidx.text._ZN4MenuC2Ev
                0x00029d64        0x0 build\Menu.o
                                  0x8 (size before relaxing)
 .ARM.exidx.text._ZN11MonitorModeC2Ev
                0x00029d64        0x8 build\Menu.o
 .ARM.exidx.text._ZN7JogModeC2Ev
                0x00029d6c        0x8 build\Menu.o
 .ARM.exidx.text._ZN9SnakeModeC2Ev
                0x00029d74        0x0 build\Menu.o
                                  0x8 (size before relaxing)
 .ARM.exidx     0x00029d74       0x50 build\Motherboard.o
                                 0x68 (size before relaxing)
 .ARM.exidx.text._ZN4UART12getSlaveUARTEv
                0x00029dc4        0x0 build\Motherboard.o
                                  0x8 (size before relaxing)
 .ARM.exidx.text._ZN16StepperInterfaceC2Ev
                0x00029dc4        0x0 build\Motherboard.o
                                  0x8 (size before relaxing)
 .ARM.exidx.text._ZN12SplashScreenC2Ev
                0x00029dc4        0x0 build\Motherboard.o
                                  0x8 (size before relaxing)
 .ARM.exidx     0x00029dc4        0x0 build\Packet.o
                                 0x80 (size before relaxing)
 .ARM.exidx.text._ZN6PacketC2Ev
                0x00029dc4        0x0 build\Packet.o
                                  0x8 (size before relaxing)
 .ARM.exidx     0x00029dc4       0x98 build\SDCard.o
                                 0xb0 (size before relaxing)
 .ARM.exidx     0x00029e5c       0x48 build\StepperAxis.o
                                 0x58 (size before relaxing)
 .ARM.exidx.text._ZN11StepperAxis12checkEndstopEb
                0x00029ea4        0x8 build\StepperAxis.o
 .ARM.exidx     0x00029eac       0x40 build\StepperInterface.o
                                 0x48 (size before relaxing)
 .ARM.exidx     0x00029eec       0x58 build\Steppers.o
                                 0x68 (size before relaxing)
 .ARM.exidx     0x00029f44       0x20 build\Timeout.o
                                 0x38 (size before relaxing)
 .ARM.exidx     0x00029f64       0x48 build\Tool.o
                                 0x98 (size before relaxing)
 .ARM.exidx     0x00029fac       0x38 build\UART.o
                                 0x50 (size before relaxing)
 .ARM.exidx.text._Z6listenv
                0x00029fe4        0x8 build\UART.o
 .ARM.exidx.text._Z5speakv
                0x00029fec        0x8 build\UART.o
 .ARM.exidx     0x00029ff4        0x8 build\test_u.o
 .ARM.exidx.text._ZN10__cxxabiv120__si_class_type_infoD2Ev
                0x00029ffc        0x8 c:/progra~2/codesourcery/source~1/bin/../lib/gcc/arm-none-eabi/4.6.1/../../../../arm-none-eabi/lib/thumb2\libstdc++.a(si_class_type_info.o)
 .ARM.exidx.text._ZN10__cxxabiv120__si_class_type_infoD0Ev
                0x0002a004        0x0 c:/progra~2/codesourcery/source~1/bin/../lib/gcc/arm-none-eabi/4.6.1/../../../../arm-none-eabi/lib/thumb2\libstdc++.a(si_class_type_info.o)
                                  0x8 (size before relaxing)
 .ARM.exidx.text._ZNK10__cxxabiv120__si_class_type_info11__do_upcastEPKNS_17__class_type_infoEPKvRNS1_15__upcast_resultE
                0x0002a004        0x8 c:/progra~2/codesourcery/source~1/bin/../lib/gcc/arm-none-eabi/4.6.1/../../../../arm-none-eabi/lib/thumb2\libstdc++.a(si_class_type_info.o)
 .ARM.exidx.text._ZNK10__cxxabiv120__si_class_type_info12__do_dyncastEiNS_17__class_type_info10__sub_kindEPKS1_PKvS4_S6_RNS1_16__dyncast_resultE
                0x0002a00c        0x8 c:/progra~2/codesourcery/source~1/bin/../lib/gcc/arm-none-eabi/4.6.1/../../../../arm-none-eabi/lib/thumb2\libstdc++.a(si_class_type_info.o)
 .ARM.exidx.text._ZNK10__cxxabiv120__si_class_type_info20__do_find_public_srcEiPKvPKNS_17__class_type_infoES2_
                0x0002a014        0x8 c:/progra~2/codesourcery/source~1/bin/../lib/gcc/arm-none-eabi/4.6.1/../../../../arm-none-eabi/lib/thumb2\libstdc++.a(si_class_type_info.o)
 .ARM.exidx.text.__cxa_pure_virtual
                0x0002a01c        0x8 c:/progra~2/codesourcery/source~1/bin/../lib/gcc/arm-none-eabi/4.6.1/../../../../arm-none-eabi/lib/thumb2\libstdc++.a(pure.o)
 .ARM.exidx.text._ZN10__cxxabiv111__terminateEPFvvE
                0x0002a024        0x8 c:/progra~2/codesourcery/source~1/bin/../lib/gcc/arm-none-eabi/4.6.1/../../../../arm-none-eabi/lib/thumb2\libstdc++.a(eh_terminate.o)
 .ARM.exidx.text._ZSt9terminatev
                0x0002a02c        0x8 c:/progra~2/codesourcery/source~1/bin/../lib/gcc/arm-none-eabi/4.6.1/../../../../arm-none-eabi/lib/thumb2\libstdc++.a(eh_terminate.o)
 .ARM.exidx.text._ZN10__cxxabiv112__unexpectedEPFvvE
                0x0002a034        0x8 c:/progra~2/codesourcery/source~1/bin/../lib/gcc/arm-none-eabi/4.6.1/../../../../arm-none-eabi/lib/thumb2\libstdc++.a(eh_terminate.o)
 .ARM.exidx.text._ZSt10unexpectedv
                0x0002a03c        0x8 c:/progra~2/codesourcery/source~1/bin/../lib/gcc/arm-none-eabi/4.6.1/../../../../arm-none-eabi/lib/thumb2\libstdc++.a(eh_terminate.o)
 .ARM.exidx.text._ZNK10__cxxabiv117__class_type_info11__do_upcastEPKS0_PPv
                0x0002a044        0x8 c:/progra~2/codesourcery/source~1/bin/../lib/gcc/arm-none-eabi/4.6.1/../../../../arm-none-eabi/lib/thumb2\libstdc++.a(class_type_info.o)
 .ARM.exidx.text._ZNK10__cxxabiv117__class_type_info20__do_find_public_srcEiPKvPKS0_S2_
                0x0002a04c        0x8 c:/progra~2/codesourcery/source~1/bin/../lib/gcc/arm-none-eabi/4.6.1/../../../../arm-none-eabi/lib/thumb2\libstdc++.a(class_type_info.o)
 .ARM.exidx.text._ZNK10__cxxabiv117__class_type_info11__do_upcastEPKS0_PKvRNS0_15__upcast_resultE
                0x0002a054        0x8 c:/progra~2/codesourcery/source~1/bin/../lib/gcc/arm-none-eabi/4.6.1/../../../../arm-none-eabi/lib/thumb2\libstdc++.a(class_type_info.o)
 .ARM.exidx.text._ZN10__cxxabiv117__class_type_infoD2Ev
                0x0002a05c        0x8 c:/progra~2/codesourcery/source~1/bin/../lib/gcc/arm-none-eabi/4.6.1/../../../../arm-none-eabi/lib/thumb2\libstdc++.a(class_type_info.o)
 .ARM.exidx.text._ZN10__cxxabiv117__class_type_infoD0Ev
                0x0002a064        0x0 c:/progra~2/codesourcery/source~1/bin/../lib/gcc/arm-none-eabi/4.6.1/../../../../arm-none-eabi/lib/thumb2\libstdc++.a(class_type_info.o)
                                  0x8 (size before relaxing)
 .ARM.exidx.text._ZNK10__cxxabiv117__class_type_info12__do_dyncastEiNS0_10__sub_kindEPKS0_PKvS3_S5_RNS0_16__dyncast_resultE
                0x0002a064        0x8 c:/progra~2/codesourcery/source~1/bin/../lib/gcc/arm-none-eabi/4.6.1/../../../../arm-none-eabi/lib/thumb2\libstdc++.a(class_type_info.o)
 .ARM.exidx.text._ZNK10__cxxabiv117__class_type_info10__do_catchEPKSt9type_infoPPvj
                0x0002a06c        0x8 c:/progra~2/codesourcery/source~1/bin/../lib/gcc/arm-none-eabi/4.6.1/../../../../arm-none-eabi/lib/thumb2\libstdc++.a(class_type_info.o)
 .ARM.exidx.text.__cxa_call_terminate
                0x0002a074        0x8 c:/progra~2/codesourcery/source~1/bin/../lib/gcc/arm-none-eabi/4.6.1/../../../../arm-none-eabi/lib/thumb2\libstdc++.a(eh_call.o)
 .ARM.exidx.text.__cxa_call_unexpected
                0x0002a07c        0x8 c:/progra~2/codesourcery/source~1/bin/../lib/gcc/arm-none-eabi/4.6.1/../../../../arm-none-eabi/lib/thumb2\libstdc++.a(eh_call.o)
 .ARM.exidx.text._ZL23__gxx_exception_cleanup19_Unwind_Reason_CodeP21_Unwind_Control_Block
                0x0002a084        0x8 c:/progra~2/codesourcery/source~1/bin/../lib/gcc/arm-none-eabi/4.6.1/../../../../arm-none-eabi/lib/thumb2\libstdc++.a(eh_throw.o)
 .ARM.exidx.text.__cxa_throw
                0x0002a08c        0x8 c:/progra~2/codesourcery/source~1/bin/../lib/gcc/arm-none-eabi/4.6.1/../../../../arm-none-eabi/lib/thumb2\libstdc++.a(eh_throw.o)
 .ARM.exidx.text.__cxa_rethrow
                0x0002a094       0x10 c:/progra~2/codesourcery/source~1/bin/../lib/gcc/arm-none-eabi/4.6.1/../../../../arm-none-eabi/lib/thumb2\libstdc++.a(eh_throw.o)
                                  0x8 (size before relaxing)
 .ARM.exidx.text.__cxa_type_match
                0x0002a0a4        0x8 c:/progra~2/codesourcery/source~1/bin/../lib/gcc/arm-none-eabi/4.6.1/../../../../arm-none-eabi/lib/thumb2\libstdc++.a(eh_arm.o)
 .ARM.exidx.text.__cxa_begin_cleanup
                0x0002a0ac        0x8 c:/progra~2/codesourcery/source~1/bin/../lib/gcc/arm-none-eabi/4.6.1/../../../../arm-none-eabi/lib/thumb2\libstdc++.a(eh_arm.o)
 .ARM.exidx.text.__gnu_end_cleanup
                0x0002a0b4        0x0 c:/progra~2/codesourcery/source~1/bin/../lib/gcc/arm-none-eabi/4.6.1/../../../../arm-none-eabi/lib/thumb2\libstdc++.a(eh_arm.o)
                                  0x8 (size before relaxing)
 .ARM.exidx.text._ZNSt9exceptionD2Ev
                0x0002a0b4        0x0 c:/progra~2/codesourcery/source~1/bin/../lib/gcc/arm-none-eabi/4.6.1/../../../../arm-none-eabi/lib/thumb2\libstdc++.a(eh_exception.o)
                                  0x8 (size before relaxing)
 .ARM.exidx.text._ZNSt13bad_exceptionD2Ev
                0x0002a0b4        0x0 c:/progra~2/codesourcery/source~1/bin/../lib/gcc/arm-none-eabi/4.6.1/../../../../arm-none-eabi/lib/thumb2\libstdc++.a(eh_exception.o)
                                  0x8 (size before relaxing)
 .ARM.exidx.text._ZNKSt9exception4whatEv
                0x0002a0b4        0x0 c:/progra~2/codesourcery/source~1/bin/../lib/gcc/arm-none-eabi/4.6.1/../../../../arm-none-eabi/lib/thumb2\libstdc++.a(eh_exception.o)
                                  0x8 (size before relaxing)
 .ARM.exidx.text._ZNKSt13bad_exception4whatEv
                0x0002a0b4        0x0 c:/progra~2/codesourcery/source~1/bin/../lib/gcc/arm-none-eabi/4.6.1/../../../../arm-none-eabi/lib/thumb2\libstdc++.a(eh_exception.o)
                                  0x8 (size before relaxing)
 .ARM.exidx.text._ZNSt13bad_exceptionD0Ev
                0x0002a0b4        0x0 c:/progra~2/codesourcery/source~1/bin/../lib/gcc/arm-none-eabi/4.6.1/../../../../arm-none-eabi/lib/thumb2\libstdc++.a(eh_exception.o)
                                  0x8 (size before relaxing)
 .ARM.exidx.text._ZNSt9exceptionD0Ev
                0x0002a0b4        0x0 c:/progra~2/codesourcery/source~1/bin/../lib/gcc/arm-none-eabi/4.6.1/../../../../arm-none-eabi/lib/thumb2\libstdc++.a(eh_exception.o)
                                  0x8 (size before relaxing)
 .ARM.exidx.text.__cxa_allocate_exception
                0x0002a0b4        0x0 c:/progra~2/codesourcery/source~1/bin/../lib/gcc/arm-none-eabi/4.6.1/../../../../arm-none-eabi/lib/thumb2\libstdc++.a(eh_alloc.o)
                                  0x8 (size before relaxing)
 .ARM.exidx.text.__cxa_free_exception
                0x0002a0b4        0x0 c:/progra~2/codesourcery/source~1/bin/../lib/gcc/arm-none-eabi/4.6.1/../../../../arm-none-eabi/lib/thumb2\libstdc++.a(eh_alloc.o)
                                  0x8 (size before relaxing)
 .ARM.exidx.text.__cxa_get_globals_fast
                0x0002a0b4        0x0 c:/progra~2/codesourcery/source~1/bin/../lib/gcc/arm-none-eabi/4.6.1/../../../../arm-none-eabi/lib/thumb2\libstdc++.a(eh_globals.o)
                                  0x8 (size before relaxing)
 .ARM.exidx.text.__cxa_get_globals
                0x0002a0b4        0x0 c:/progra~2/codesourcery/source~1/bin/../lib/gcc/arm-none-eabi/4.6.1/../../../../arm-none-eabi/lib/thumb2\libstdc++.a(eh_globals.o)
                                  0x8 (size before relaxing)
 .ARM.exidx.text._ZNSt9type_infoD2Ev
                0x0002a0b4        0x0 c:/progra~2/codesourcery/source~1/bin/../lib/gcc/arm-none-eabi/4.6.1/../../../../arm-none-eabi/lib/thumb2\libstdc++.a(tinfo.o)
                                  0x8 (size before relaxing)
 .ARM.exidx.text._ZNKSt9type_info14__is_pointer_pEv
                0x0002a0b4        0x0 c:/progra~2/codesourcery/source~1/bin/../lib/gcc/arm-none-eabi/4.6.1/../../../../arm-none-eabi/lib/thumb2\libstdc++.a(tinfo.o)
                                  0x8 (size before relaxing)
 .ARM.exidx.text._ZNKSt9type_info15__is_function_pEv
                0x0002a0b4        0x0 c:/progra~2/codesourcery/source~1/bin/../lib/gcc/arm-none-eabi/4.6.1/../../../../arm-none-eabi/lib/thumb2\libstdc++.a(tinfo.o)
                                  0x8 (size before relaxing)
 .ARM.exidx.text._ZNKSt9type_info11__do_upcastEPKN10__cxxabiv117__class_type_infoEPPv
                0x0002a0b4        0x0 c:/progra~2/codesourcery/source~1/bin/../lib/gcc/arm-none-eabi/4.6.1/../../../../arm-none-eabi/lib/thumb2\libstdc++.a(tinfo.o)
                                  0x8 (size before relaxing)
 .ARM.exidx.text._ZNSt9type_infoD0Ev
                0x0002a0b4        0x0 c:/progra~2/codesourcery/source~1/bin/../lib/gcc/arm-none-eabi/4.6.1/../../../../arm-none-eabi/lib/thumb2\libstdc++.a(tinfo.o)
                                  0x8 (size before relaxing)
 .ARM.exidx.text._ZNKSt9type_infoeqERKS_
                0x0002a0b4        0x0 c:/progra~2/codesourcery/source~1/bin/../lib/gcc/arm-none-eabi/4.6.1/../../../../arm-none-eabi/lib/thumb2\libstdc++.a(tinfo.o)
                                  0x8 (size before relaxing)
 .ARM.exidx.text._ZNKSt9type_info10__do_catchEPKS_PPvj
                0x0002a0b4        0x0 c:/progra~2/codesourcery/source~1/bin/../lib/gcc/arm-none-eabi/4.6.1/../../../../arm-none-eabi/lib/thumb2\libstdc++.a(tinfo.o)
                                  0x8 (size before relaxing)
 .ARM.exidx.text._ZL12read_sleb128PKhPl
                0x0002a0b4        0x0 c:/progra~2/codesourcery/source~1/bin/../lib/gcc/arm-none-eabi/4.6.1/../../../../arm-none-eabi/lib/thumb2\libstdc++.a(eh_personality.o)
                                  0x8 (size before relaxing)
 .ARM.exidx.text._ZL28read_encoded_value_with_basehjPKhPj
                0x0002a0b4        0x8 c:/progra~2/codesourcery/source~1/bin/../lib/gcc/arm-none-eabi/4.6.1/../../../../arm-none-eabi/lib/thumb2\libstdc++.a(eh_personality.o)
 .ARM.exidx.text._ZL21base_of_encoded_valuehP15_Unwind_Context
                0x0002a0bc        0x8 c:/progra~2/codesourcery/source~1/bin/../lib/gcc/arm-none-eabi/4.6.1/../../../../arm-none-eabi/lib/thumb2\libstdc++.a(eh_personality.o)
 .ARM.exidx.text._ZL17parse_lsda_headerP15_Unwind_ContextPKhP16lsda_header_info.constprop.4
                0x0002a0c4        0x8 c:/progra~2/codesourcery/source~1/bin/../lib/gcc/arm-none-eabi/4.6.1/../../../../arm-none-eabi/lib/thumb2\libstdc++.a(eh_personality.o)
 .ARM.exidx.text.__gxx_personality_v0
                0x0002a0cc        0x8 c:/progra~2/codesourcery/source~1/bin/../lib/gcc/arm-none-eabi/4.6.1/../../../../arm-none-eabi/lib/thumb2\libstdc++.a(eh_personality.o)
 .ARM.exidx.text.__cxa_begin_catch
                0x0002a0d4        0x8 c:/progra~2/codesourcery/source~1/bin/../lib/gcc/arm-none-eabi/4.6.1/../../../../arm-none-eabi/lib/thumb2\libstdc++.a(eh_catch.o)
 .ARM.exidx.text.__cxa_end_catch
                0x0002a0dc        0x8 c:/progra~2/codesourcery/source~1/bin/../lib/gcc/arm-none-eabi/4.6.1/../../../../arm-none-eabi/lib/thumb2\libstdc++.a(eh_catch.o)
 .ARM.exidx.text._ZN9__gnu_cxx27__verbose_terminate_handlerEv
                0x0002a0e4       0x10 c:/progra~2/codesourcery/source~1/bin/../lib/gcc/arm-none-eabi/4.6.1/../../../../arm-none-eabi/lib/thumb2\libstdc++.a(vterminate.o)
                                  0x8 (size before relaxing)
 .ARM.exidx.text.__cxa_current_exception_type
                0x0002a0f4        0x0 c:/progra~2/codesourcery/source~1/bin/../lib/gcc/arm-none-eabi/4.6.1/../../../../arm-none-eabi/lib/thumb2\libstdc++.a(eh_type.o)
                                  0x8 (size before relaxing)
 .ARM.exidx     0x0002a0f4       0x80 c:/progra~2/codesourcery/source~1/bin/../lib/gcc/arm-none-eabi/4.6.1/thumb2\libgcc.a(unwind-arm.o)
                                 0xc0 (size before relaxing)
 .ARM.exidx     0x0002a174       0x38 c:/progra~2/codesourcery/source~1/bin/../lib/gcc/arm-none-eabi/4.6.1/thumb2\libgcc.a(pr-support.o)
                                 0x48 (size before relaxing)
 .ARM.exidx     0x0002a1ac        0x0 c:/progra~2/codesourcery/source~1/bin/../lib/gcc/arm-none-eabi/4.6.1/thumb2\libgcc.a(_divdi3.o)
                                  0x8 (size before relaxing)
 .ARM.exidx     0x0002a1ac        0x0 c:/progra~2/codesourcery/source~1/bin/../lib/gcc/arm-none-eabi/4.6.1/thumb2\libgcc.a(_udivdi3.o)
                                  0x8 (size before relaxing)
                0x0002a1ac                __exidx_end = .

.eh_frame       0x0002a1ac        0x0
 .eh_frame      0x0002a1ac        0x0 c:/progra~2/codesourcery/source~1/bin/../lib/gcc/arm-none-eabi/4.6.1/thumb2/crtbegin.o

.ARM.extab      0x0002a1ac      0x6cc
 .ARM.extab     0x0002a1ac       0x54 build\IAP_internal_flash_write\IAP.o
 .ARM.extab     0x0002a200        0xc build\ButtonArray.o
 .ARM.extab     0x0002a20c       0x30 build\Command.o
 .ARM.extab     0x0002a23c        0xc build\DebugPacketProcessor.o
 .ARM.extab     0x0002a248       0x3c build\EepromMap.o
 .ARM.extab     0x0002a284       0x48 build\Host.o
 .ARM.extab     0x0002a2cc       0x18 build\Interface.o
 .ARM.extab     0x0002a2e4       0x48 build\InterfaceBoard.o
 .ARM.extab     0x0002a32c      0x15c build\LiquidCrystal.o
 .ARM.extab     0x0002a488       0x18 build\Main.o
 .ARM.extab     0x0002a4a0      0x12c build\Menu.o
 .ARM.extab     0x0002a5cc       0x3c build\Motherboard.o
 .ARM.extab     0x0002a608       0x9c build\SDCard.o
 .ARM.extab     0x0002a6a4       0x3c build\StepperAxis.o
 .ARM.extab     0x0002a6e0       0x48 build\StepperInterface.o
 .ARM.extab     0x0002a728       0x60 build\Steppers.o
 .ARM.extab     0x0002a788       0x24 build\Timeout.o
 .ARM.extab     0x0002a7ac       0x48 build\Tool.o
 .ARM.extab     0x0002a7f4       0x48 build\UART.o
 .ARM.extab     0x0002a83c        0xc build\test_u.o
 .ARM.extab     0x0002a848       0x18 c:/progra~2/codesourcery/source~1/bin/../lib/gcc/arm-none-eabi/4.6.1/thumb2\libgcc.a(unwind-arm.o)
 .ARM.extab     0x0002a860       0x18 c:/progra~2/codesourcery/source~1/bin/../lib/gcc/arm-none-eabi/4.6.1/thumb2\libgcc.a(pr-support.o)

.ARM.extab.text._ZN10Port_ClassC2Ev
                0x0002a878        0x0
 .ARM.extab.text._ZN10Port_ClassC2Ev
                0x0002a878        0x0 build\ButtonArray.o

.ARM.extab.text._ZN5PointC2Elllll
                0x0002a878        0x0
 .ARM.extab.text._ZN5PointC2Elllll
                0x0002a878        0x0 build\Command.o

.ARM.extab.text._ZN5PointC2Elll
                0x0002a878        0x0
 .ARM.extab.text._ZN5PointC2Elll
                0x0002a878        0x0 build\Command.o

.ARM.extab.text._ZNK5PointixEj
                0x0002a878        0x0
 .ARM.extab.text._ZNK5PointixEj
                0x0002a878        0x0 build\Command.o

.ARM.extab.text._ZN5PointixEj
                0x0002a878        0x0
 .ARM.extab.text._ZN5PointixEj
                0x0002a878        0x0 build\Command.o

.ARM.extab.text._ZNK6Packet8hasErrorEv
                0x0002a878        0x0
 .ARM.extab.text._ZNK6Packet8hasErrorEv
                0x0002a878        0x0 build\Command.o

.ARM.extab.text._ZN19CircularBufferTemplIhEC2EtPh
                0x0002a878        0x0
 .ARM.extab.text._ZN19CircularBufferTemplIhEC2EtPh
                0x0002a878        0x0 build\Command.o

.ARM.extab.text._ZNK19CircularBufferTemplIhE20getRemainingCapacityEv
                0x0002a878        0x0
 .ARM.extab.text._ZNK19CircularBufferTemplIhE20getRemainingCapacityEv
                0x0002a878        0x0 build\Command.o

.ARM.extab.text._ZNK19CircularBufferTemplIhE7isEmptyEv
                0x0002a878        0x0
 .ARM.extab.text._ZNK19CircularBufferTemplIhE7isEmptyEv
                0x0002a878        0x0 build\Command.o

.ARM.extab.text._ZN19CircularBufferTemplIhE4pushEh
                0x0002a878        0x0
 .ARM.extab.text._ZN19CircularBufferTemplIhE4pushEh
                0x0002a878        0x0 build\Command.o

.ARM.extab.text._ZN19CircularBufferTemplIhE3popEv
                0x0002a878        0x0
 .ARM.extab.text._ZN19CircularBufferTemplIhE3popEv
                0x0002a878        0x0 build\Command.o

.ARM.extab.text._ZN19CircularBufferTemplIhE5resetEv
                0x0002a878        0x0
 .ARM.extab.text._ZN19CircularBufferTemplIhE5resetEv
                0x0002a878        0x0 build\Command.o

.ARM.extab.text._ZNK19CircularBufferTemplIhE9getLengthEv
                0x0002a878        0x0
 .ARM.extab.text._ZNK19CircularBufferTemplIhE9getLengthEv
                0x0002a878        0x0 build\Command.o

.ARM.extab.text._ZN19CircularBufferTemplIhEixEt
                0x0002a878        0x0
 .ARM.extab.text._ZN19CircularBufferTemplIhEixEt
                0x0002a878        0x0 build\Command.o

.ARM.extab.text._ZNK6Packet9getLengthEv
                0x0002a878        0x0
 .ARM.extab.text._ZNK6Packet9getLengthEv
                0x0002a878        0x0 build\DebugPacketProcessor.o

.ARM.extab.text._ZN11Motherboard8getBoardEv
                0x0002a878        0x0
 .ARM.extab.text._ZN11Motherboard8getBoardEv
                0x0002a878        0x0 build\DebugPacketProcessor.o

.ARM.extab.text._ZN3IAPC2Ev
                0x0002a878        0x0
 .ARM.extab.text._ZN3IAPC2Ev
                0x0002a878        0x0 build\EepromMap.o

.ARM.extab.text._ZN6Packet5errorEh
                0x0002a878        0xc
 .ARM.extab.text._ZN6Packet5errorEh
                0x0002a878        0xc build\Host.o

.ARM.extab.text._ZNK6Packet12getErrorCodeEv
                0x0002a884        0x0
 .ARM.extab.text._ZNK6Packet12getErrorCodeEv
                0x0002a884        0x0 build\Host.o

.ARM.extab.text._ZNK6Packet7getDataEv
                0x0002a884        0x0
 .ARM.extab.text._ZNK6Packet7getDataEv
                0x0002a884        0x0 build\Host.o

.ARM.extab.text._ZNK8InPacket10isFinishedEv
                0x0002a884        0x0
 .ARM.extab.text._ZNK8InPacket10isFinishedEv
                0x0002a884        0x0 build\Host.o

.ARM.extab.text._ZNK8InPacket9isStartedEv
                0x0002a884        0x0
 .ARM.extab.text._ZNK8InPacket9isStartedEv
                0x0002a884        0x0 build\Host.o

.ARM.extab.text._ZN8InPacket7timeoutEv
                0x0002a884        0xc
 .ARM.extab.text._ZN8InPacket7timeoutEv
                0x0002a884        0xc build\Host.o

.ARM.extab.text._ZNK9OutPacket9isSendingEv
                0x0002a890        0x0
 .ARM.extab.text._ZNK9OutPacket9isSendingEv
                0x0002a890        0x0 build\Host.o

.ARM.extab.text._ZN4UART11getHostUARTEv
                0x0002a890        0x0
 .ARM.extab.text._ZN4UART11getHostUARTEv
                0x0002a890        0x0 build\Host.o

.ARM.extab.text._ZNK7Timeout8isActiveEv
                0x0002a890        0x0
 .ARM.extab.text._ZNK7Timeout8isActiveEv
                0x0002a890        0x0 build\Host.o

.ARM.extab.text._ZN11Motherboard19getStepperInterfaceEi
                0x0002a890        0x0
 .ARM.extab.text._ZN11Motherboard19getStepperInterfaceEi
                0x0002a890        0x0 build\Host.o

.ARM.extab.text._ZN4host13handleVersionERK8InPacketR9OutPacket
                0x0002a890        0xc
 .ARM.extab.text._ZN4host13handleVersionERK8InPacketR9OutPacket
                0x0002a890        0xc build\Host.o

.ARM.extab.text._ZN4host18handleGetBuildNameERK8InPacketR9OutPacket
                0x0002a89c        0xc
 .ARM.extab.text._ZN4host18handleGetBuildNameERK8InPacketR9OutPacket
                0x0002a89c        0xc build\Host.o

.ARM.extab.text._ZN4host19handleGetBufferSizeERK8InPacketR9OutPacket
                0x0002a8a8        0xc
 .ARM.extab.text._ZN4host19handleGetBufferSizeERK8InPacketR9OutPacket
                0x0002a8a8        0xc build\Host.o

.ARM.extab.text._ZN4host17handleGetPositionERK8InPacketR9OutPacket
                0x0002a8b4        0xc
 .ARM.extab.text._ZN4host17handleGetPositionERK8InPacketR9OutPacket
                0x0002a8b4        0xc build\Host.o

.ARM.extab.text._ZN4host20handleGetPositionExtERK8InPacketR9OutPacket
                0x0002a8c0        0xc
 .ARM.extab.text._ZN4host20handleGetPositionExtERK8InPacketR9OutPacket
                0x0002a8c0        0xc build\Host.o

.ARM.extab.text._ZN4host19handleCaptureToFileERK8InPacketR9OutPacket
                0x0002a8cc        0xc
 .ARM.extab.text._ZN4host19handleCaptureToFileERK8InPacketR9OutPacket
                0x0002a8cc        0xc build\Host.o

.ARM.extab.text._ZN4host16handleEndCaptureERK8InPacketR9OutPacket
                0x0002a8d8        0xc
 .ARM.extab.text._ZN4host16handleEndCaptureERK8InPacketR9OutPacket
                0x0002a8d8        0xc build\Host.o

.ARM.extab.text._ZN4host14handlePlaybackERK8InPacketR9OutPacket
                0x0002a8e4        0xc
 .ARM.extab.text._ZN4host14handlePlaybackERK8InPacketR9OutPacket
                0x0002a8e4        0xc build\Host.o

.ARM.extab.text._ZN4host18handleNextFilenameERK8InPacketR9OutPacket
                0x0002a8f0        0xc
 .ARM.extab.text._ZN4host18handleNextFilenameERK8InPacketR9OutPacket
                0x0002a8f0        0xc build\Host.o

.ARM.extab.text._ZN4host15handleToolQueryERK8InPacketR9OutPacket
                0x0002a8fc        0xc
 .ARM.extab.text._ZN4host15handleToolQueryERK8InPacketR9OutPacket
                0x0002a8fc        0xc build\Host.o

.ARM.extab.text._ZN4host11handlePauseERK8InPacketR9OutPacket
                0x0002a908        0xc
 .ARM.extab.text._ZN4host11handlePauseERK8InPacketR9OutPacket
                0x0002a908        0xc build\Host.o

.ARM.extab.text._ZN4host16handleIsFinishedERK8InPacketR9OutPacket
                0x0002a914        0xc
 .ARM.extab.text._ZN4host16handleIsFinishedERK8InPacketR9OutPacket
                0x0002a914        0xc build\Host.o

.ARM.extab.text._ZN4host16handleReadEepromERK8InPacketR9OutPacket
                0x0002a920        0xc
 .ARM.extab.text._ZN4host16handleReadEepromERK8InPacketR9OutPacket
                0x0002a920        0xc build\Host.o

.ARM.extab.text._ZN4host17handleWriteEepromERK8InPacketR9OutPacket
                0x0002a92c        0xc
 .ARM.extab.text._ZN4host17handleWriteEepromERK8InPacketR9OutPacket
                0x0002a92c        0xc build\Host.o

.ARM.extab.text._ZN4host18handleExtendedStopERK8InPacketR9OutPacket
                0x0002a938        0xc
 .ARM.extab.text._ZN4host18handleExtendedStopERK8InPacketR9OutPacket
                0x0002a938        0xc build\Host.o

.ARM.extab.text._ZN4host27handleGetCommunicationStatsERK8InPacketR9OutPacket
                0x0002a944        0xc
 .ARM.extab.text._ZN4host27handleGetCommunicationStatsERK8InPacketR9OutPacket
                0x0002a944        0xc build\Host.o

.ARM.extab.text._ZN10Port_ClassC2E8portname
                0x0002a950        0x0
 .ARM.extab.text._ZN10Port_ClassC2E8portname
                0x0002a950        0x0 build\Interface.o

.ARM.extab.text._ZN10Port_Class15setPinDirectionEhb
                0x0002a950        0xc
 .ARM.extab.text._ZN10Port_Class15setPinDirectionEhb
                0x0002a950        0xc build\Interface.o

.ARM.extab.text._ZN10Port_Class6getPinEh
                0x0002a95c        0xc
 .ARM.extab.text._ZN10Port_Class6getPinEh
                0x0002a95c        0xc build\Interface.o

.ARM.extab.text._ZN10Port_Class6setPinEhb
                0x0002a968        0xc
 .ARM.extab.text._ZN10Port_Class6setPinEhb
                0x0002a968        0xc build\Interface.o

.ARM.extab.text._ZN3PinC2E8portnameh
                0x0002a974        0x0
 .ARM.extab.text._ZN3PinC2E8portnameh
                0x0002a974        0x0 build\Interface.o

.ARM.extab.text._ZN3Pin12setDirectionEb
                0x0002a974        0xc
 .ARM.extab.text._ZN3Pin12setDirectionEb
                0x0002a974        0xc build\Interface.o

.ARM.extab.text._ZN3Pin8getValueEv
                0x0002a980        0xc
 .ARM.extab.text._ZN3Pin8getValueEv
                0x0002a980        0xc build\Interface.o

.ARM.extab.text._ZN3Pin8setValueEb
                0x0002a98c        0xc
 .ARM.extab.text._ZN3Pin8setValueEb
                0x0002a98c        0xc build\Interface.o

.ARM.extab.text._ZN10Port_Class6isNullEv
                0x0002a998        0x0
 .ARM.extab.text._ZN10Port_Class6isNullEv
                0x0002a998        0x0 build\LiquidCrystal.o

.ARM.extab.text._ZN3PinC2Ev
                0x0002a998        0x0
 .ARM.extab.text._ZN3PinC2Ev
                0x0002a998        0x0 build\LiquidCrystal.o

.ARM.extab.text._ZN3Pin6isNullEv
                0x0002a998        0x0
 .ARM.extab.text._ZN3Pin6isNullEv
                0x0002a998        0x0 build\LiquidCrystal.o

.ARM.extab.text._ZN13LiquidCrystal7commandEh
                0x0002a998        0xc
 .ARM.extab.text._ZN13LiquidCrystal7commandEh
                0x0002a998        0xc build\LiquidCrystal.o

.ARM.extab.text._ZN13LiquidCrystal5writeEh
                0x0002a9a4        0xc
 .ARM.extab.text._ZN13LiquidCrystal5writeEh
                0x0002a9a4        0xc build\LiquidCrystal.o

.ARM.extab.text._ZN4Menu13getUpdateRateEv
                0x0002a9b0        0x0
 .ARM.extab.text._ZN4Menu13getUpdateRateEv
                0x0002a9b0        0x0 build\Menu.o

.ARM.extab.text._ZN12SplashScreen13getUpdateRateEv
                0x0002a9b0        0x0
 .ARM.extab.text._ZN12SplashScreen13getUpdateRateEv
                0x0002a9b0        0x0 build\Menu.o

.ARM.extab.text._ZN7JogMode13getUpdateRateEv
                0x0002a9b0        0x0
 .ARM.extab.text._ZN7JogMode13getUpdateRateEv
                0x0002a9b0        0x0 build\Menu.o

.ARM.extab.text._ZN9SnakeMode13getUpdateRateEv
                0x0002a9b0        0x0
 .ARM.extab.text._ZN9SnakeMode13getUpdateRateEv
                0x0002a9b0        0x0 build\Menu.o

.ARM.extab.text._ZN11MonitorMode13getUpdateRateEv
                0x0002a9b0        0x0
 .ARM.extab.text._ZN11MonitorMode13getUpdateRateEv
                0x0002a9b0        0x0 build\Menu.o

.ARM.extab.text._Z9rcCompareh12ResponseCode
                0x0002a9b0        0x0
 .ARM.extab.text._Z9rcCompareh12ResponseCode
                0x0002a9b0        0x0 build\Menu.o

.ARM.extab.text._ZN6ScreenC2Ev
                0x0002a9b0        0x0
 .ARM.extab.text._ZN6ScreenC2Ev
                0x0002a9b0        0x0 build\Menu.o

.ARM.extab.text._ZN4MenuC2Ev
                0x0002a9b0        0x0
 .ARM.extab.text._ZN4MenuC2Ev
                0x0002a9b0        0x0 build\Menu.o

.ARM.extab.text._ZN11MonitorModeC2Ev
                0x0002a9b0        0xc
 .ARM.extab.text._ZN11MonitorModeC2Ev
                0x0002a9b0        0xc build\Menu.o

.ARM.extab.text._ZN7JogModeC2Ev
                0x0002a9bc        0x0
 .ARM.extab.text._ZN7JogModeC2Ev
                0x0002a9bc        0x0 build\Menu.o

.ARM.extab.text._ZN9SnakeModeC2Ev
                0x0002a9bc        0x0
 .ARM.extab.text._ZN9SnakeModeC2Ev
                0x0002a9bc        0x0 build\Menu.o

.ARM.extab.text._ZN4UART12getSlaveUARTEv
                0x0002a9bc        0x0
 .ARM.extab.text._ZN4UART12getSlaveUARTEv
                0x0002a9bc        0x0 build\Motherboard.o

.ARM.extab.text._ZN16StepperInterfaceC2Ev
                0x0002a9bc        0x0
 .ARM.extab.text._ZN16StepperInterfaceC2Ev
                0x0002a9bc        0x0 build\Motherboard.o

.ARM.extab.text._ZN12SplashScreenC2Ev
                0x0002a9bc        0x0
 .ARM.extab.text._ZN12SplashScreenC2Ev
                0x0002a9bc        0x0 build\Motherboard.o

.ARM.extab.text._ZN6PacketC2Ev
                0x0002a9bc        0x0
 .ARM.extab.text._ZN6PacketC2Ev
                0x0002a9bc        0x0 build\Packet.o

.ARM.extab.text._ZN11StepperAxis12checkEndstopEb
                0x0002a9bc        0xc
 .ARM.extab.text._ZN11StepperAxis12checkEndstopEb
                0x0002a9bc        0xc build\StepperAxis.o

.ARM.extab.text._Z6listenv
                0x0002a9c8        0xc
 .ARM.extab.text._Z6listenv
                0x0002a9c8        0xc build\UART.o

.ARM.extab.text._Z5speakv
                0x0002a9d4        0xc
 .ARM.extab.text._Z5speakv
                0x0002a9d4        0xc build\UART.o

.ARM.extab.text.__cxa_pure_virtual
                0x0002a9e0        0xc
 .ARM.extab.text.__cxa_pure_virtual
                0x0002a9e0        0xc c:/progra~2/codesourcery/source~1/bin/../lib/gcc/arm-none-eabi/4.6.1/../../../../arm-none-eabi/lib/thumb2\libstdc++.a(pure.o)

.ARM.extab.text._ZN10__cxxabiv111__terminateEPFvvE
                0x0002a9ec       0x2c
 .ARM.extab.text._ZN10__cxxabiv111__terminateEPFvvE
                0x0002a9ec       0x2c c:/progra~2/codesourcery/source~1/bin/../lib/gcc/arm-none-eabi/4.6.1/../../../../arm-none-eabi/lib/thumb2\libstdc++.a(eh_terminate.o)

.ARM.extab.text._ZN10__cxxabiv112__unexpectedEPFvvE
                0x0002aa18        0xc
 .ARM.extab.text._ZN10__cxxabiv112__unexpectedEPFvvE
                0x0002aa18        0xc c:/progra~2/codesourcery/source~1/bin/../lib/gcc/arm-none-eabi/4.6.1/../../../../arm-none-eabi/lib/thumb2\libstdc++.a(eh_terminate.o)

.ARM.extab.text._ZSt10unexpectedv
                0x0002aa24        0xc
 .ARM.extab.text._ZSt10unexpectedv
                0x0002aa24        0xc c:/progra~2/codesourcery/source~1/bin/../lib/gcc/arm-none-eabi/4.6.1/../../../../arm-none-eabi/lib/thumb2\libstdc++.a(eh_terminate.o)

.ARM.extab.text.__cxa_call_unexpected
                0x0002aa30       0x28
 .ARM.extab.text.__cxa_call_unexpected
                0x0002aa30       0x28 c:/progra~2/codesourcery/source~1/bin/../lib/gcc/arm-none-eabi/4.6.1/../../../../arm-none-eabi/lib/thumb2\libstdc++.a(eh_call.o)

.ARM.extab.text._ZL21base_of_encoded_valuehP15_Unwind_Context
                0x0002aa58        0xc
 .ARM.extab.text._ZL21base_of_encoded_valuehP15_Unwind_Context
                0x0002aa58        0xc c:/progra~2/codesourcery/source~1/bin/../lib/gcc/arm-none-eabi/4.6.1/../../../../arm-none-eabi/lib/thumb2\libstdc++.a(eh_personality.o)

.ARM.extab.text.__gxx_personality_v0
                0x0002aa64       0x20
 .ARM.extab.text.__gxx_personality_v0
                0x0002aa64       0x20 c:/progra~2/codesourcery/source~1/bin/../lib/gcc/arm-none-eabi/4.6.1/../../../../arm-none-eabi/lib/thumb2\libstdc++.a(eh_personality.o)

.ARM.extab.text.__cxa_begin_catch
                0x0002aa84       0x20
 .ARM.extab.text.__cxa_begin_catch
                0x0002aa84       0x20 c:/progra~2/codesourcery/source~1/bin/../lib/gcc/arm-none-eabi/4.6.1/../../../../arm-none-eabi/lib/thumb2\libstdc++.a(eh_catch.o)

.ARM.extab.text._ZN9__gnu_cxx27__verbose_terminate_handlerEv
                0x0002aaa4       0x40
 .ARM.extab.text._ZN9__gnu_cxx27__verbose_terminate_handlerEv
                0x0002aaa4       0x40 c:/progra~2/codesourcery/source~1/bin/../lib/gcc/arm-none-eabi/4.6.1/../../../../arm-none-eabi/lib/thumb2\libstdc++.a(vterminate.o)

.rel.dyn        0x0002aae4        0x0
 .rel.iplt      0x00000000        0x0 c:/progra~2/codesourcery/source~1/bin/../lib/gcc/arm-none-eabi/4.6.1/thumb2/crtbegin.o

.fastcode       0x10000000        0x0 load address 0x0002aae4
                0x10000000                . = ALIGN (0x4)
                0x10000000                _sfastcode = .
 *(.glue_7t)
 *(.glue_7)
 *(.fastcode)
                0x10000000                . = ALIGN (0x4)
                0x10000000                _efastcode = .
                0x10000000                _sidata = .

.usb_ram
 *.o(USB_RAM)

.data           0x10000000      0x5e0 load address 0x0002aae4
                0x0002aae4                _sidata = LOADADDR (.data)
                0x10000000                . = ALIGN (0x4)
                0x10000000                _sdata = .
 *(vtable vtable.*)
 *(.data .data.*)
 .data          0x10000000        0x4 build\system\system_LPC17xx.o
                0x10000000                SystemCoreClock
 .data          0x10000004        0xc build\USBCDC\cdcuser.o
                0x10000004                CDC_LineCoding
                0x1000000c                CDC_DepInEmpty
 .data          0x10000010        0x1 build\Atomic.o
                0x10000010                interupt_status::interrupts_enabled
 *fill*         0x10000011        0x3 00
 .data          0x10000014       0x40 build\EepromMap.o
                0x10000015                X_MS1
                0x10000016                X_MS2
                0x10000017                X_MS3
                0x10000018                Y_MS1
                0x10000019                Y_MS2
                0x1000001a                Y_MS3
                0x1000001b                Z_MS1
                0x1000001c                Z_MS2
                0x1000001d                Z_MS3
                0x1000001e                A_MS1
                0x1000001f                A_MS2
                0x10000020                A_MS3
                0x10000021                B_MS1
                0x10000022                B_MS2
                0x10000023                B_MS3
                0x10000024                microstep_port_array
 .data          0x10000054        0x2 build\Host.o
                0x10000055                host::do_host_reset
 .data          0x10000056        0x1 build\Tool.o
 *fill*         0x10000057        0x1 00
 .data._ZN10__cxxabiv120__unexpected_handlerE
                0x10000058        0x4 c:/progra~2/codesourcery/source~1/bin/../lib/gcc/arm-none-eabi/4.6.1/../../../../arm-none-eabi/lib/thumb2\libstdc++.a(eh_unex_handler.o)
                0x10000058                __cxxabiv1::__unexpected_handler
 .data._ZN10__cxxabiv119__terminate_handlerE
                0x1000005c        0x4 c:/progra~2/codesourcery/source~1/bin/../lib/gcc/arm-none-eabi/4.6.1/../../../../arm-none-eabi/lib/thumb2\libstdc++.a(eh_term_handler.o)
                0x1000005c                __cxxabiv1::__terminate_handler
 .data          0x10000060       0xf4 c:/progra~2/codesourcery/source~1/bin/../lib/gcc/arm-none-eabi/4.6.1/../../../../arm-none-eabi/lib/thumb2\libc.a(lib_a-impure.o)
                0x10000060                _impure_ptr
 .data          0x10000154      0x410 c:/progra~2/codesourcery/source~1/bin/../lib/gcc/arm-none-eabi/4.6.1/../../../../arm-none-eabi/lib/thumb2\libc.a(lib_a-mallocr.o)
                0x10000154                __malloc_av_
                0x1000055c                __malloc_sbrk_base
                0x10000560                __malloc_trim_threshold
 .data          0x10000564       0x7c c:/progra~2/codesourcery/source~1/bin/../lib/gcc/arm-none-eabi/4.6.1/../../../../arm-none-eabi/lib/thumb2\libc.a(lib_a-locale.o)
                0x10000584                __mb_cur_max
 *(.gnu.linkonce.d*)
                0x100005e0                . = ALIGN (0x4)
                0x100005e0                _edata = .

.jcr            0x100005e0        0x0 load address 0x0002b0c4
 .jcr           0x100005e0        0x0 c:/progra~2/codesourcery/source~1/bin/../lib/gcc/arm-none-eabi/4.6.1/thumb2/crtbegin.o

.igot.plt       0x100005e0        0x0 load address 0x0002b0c4
 .igot.plt      0x00000000        0x0 c:/progra~2/codesourcery/source~1/bin/../lib/gcc/arm-none-eabi/4.6.1/thumb2/crtbegin.o

.bss            0x100005e0     0x15d8 load address 0x0002b0c8
                0x100005e0                . = ALIGN (0x4)
                0x100005e0                _sbss = .
 *(.bss .bss.*)
 .bss           0x100005e0       0x1c c:/progra~2/codesourcery/source~1/bin/../lib/gcc/arm-none-eabi/4.6.1/thumb2/crtbegin.o
 .bss           0x100005fc        0x4 build\system\syscalls.o
 .bss           0x10000600       0xc0 build\lib_sd\fat.o
 .bss           0x100006c0       0x1c build\lib_sd\partition.o
 .bss           0x100006dc      0x208 build\lib_sd\sd_raw.o
 .bss           0x100008e4       0xdc build\USBCDC\cdcuser.o
                0x100008e4                FDR_0
                0x100008e5                LCR_0
                0x100008e6                DLL_0
                0x100008e7                DLM_0
                0x100008e8                IER_0
                0x100008e9                FCR_0
                0x100008ec                BulkBufIn
                0x1000092c                BulkBufOut
                0x1000096c                NotificationBuf
                0x10000976                CDC_SerialState
                0x10000978                CDC_OutBuf
 .bss           0x100009c0      0x120 build\USBCDC\serial.o
                0x100009c8                ser_txRestart
                0x100009cc                ser_lineState
                0x100009d0                ser_out
                0x10000a58                ser_in
 .bss           0x10000ae0       0x30 build\USBCDC\usbcore.o
                0x10000ae0                USB_DeviceStatus
                0x10000ae2                USB_DeviceAddress
                0x10000ae3                USB_Configuration
                0x10000ae4                USB_EndPointMask
                0x10000ae8                USB_EndPointHalt
                0x10000aec                USB_EndPointStall
                0x10000af0                USB_NumInterfaces
                0x10000af4                USB_AltSetting
                0x10000af8                EP0Buf
                0x10000b00                EP0Data
                0x10000b08                SetupPacket
 .bss           0x10000b10        0x2 build\USBCDC\usbuser.o
 *fill*         0x10000b12        0x2 00
 .bss           0x10000b14        0x4 build\ButtonArray.o
                0x10000b14                port
 .bss           0x10000b18      0x448 build\Command.o
                0x10000b1c                command::buffer_data
                0x10000d1c                command::command_buffer
                0x10000f2c                command::outstanding_tool_command
                0x10000f2d                command::paused
                0x10000f2e                command::mode
                0x10000f30                command::delay_timeout
                0x10000f40                command::homing_timeout
                0x10000f50                command::tool_wait_timeout
 .bss           0x10000f60       0x2c build\DebugPacketProcessor.o
                0x10000f64                debugSlaveOut
 .bss           0x10000f8c       0x5c build\Host.o
                0x10000f90                host::packet_in_timeout
                0x10000fa0                host::machineName
                0x10000fc0                host::buildName
                0x10000fe0                host::buildSteps
                0x10000fe4                host::currentState
 .bss           0x10000fe8        0xc build\Interface.o
                0x10000fec                interface::lcd
                0x10000ff0                interface::board
 .bss           0x10000ff4        0x4 build\InterfaceBoard.o
 .bss           0x10000ff8      0x15c build\Motherboard.o
                0x10000ffc                Motherboard::motherboard
                0x10001148                blink_count
                0x10001149                blink_state
                0x1000114c                blink_ovfs_remaining
                0x10001150                blinked_so_far
 .bss           0x10001154       0x1c build\SDCard.o
                0x10001154                sdcard::partition
                0x10001158                sdcard::fs
                0x1000115c                sdcard::dd
                0x10001160                sdcard::file
                0x10001164                sdcard::capturing
                0x10001165                sdcard::playing
                0x10001168                sdcard::capturedBytes
                0x1000116c                sdcard::next_byte
                0x1000116d                sdcard::has_more
 .bss           0x10001170       0xb0 build\Steppers.o
                0x10001171                steppers::is_running
                0x10001174                steppers::intervals
                0x10001178                steppers::intervals_remaining
                0x1000117c                steppers::axes
                0x1000121c                steppers::is_homing
                0x1000121d                steppers::holdZ
 .bss           0x10001220       0x28 build\Tool.o
                0x10001224                tool::timeout
 .bss           0x10001248      0x120 build\UART.o
                0x1000124c                UART::uart
                0x100012e4                loopback_bytes
                0x100012e5                byte_in
 .bss._ZL14emergency_used
                0x10001368        0x4 c:/progra~2/codesourcery/source~1/bin/../lib/gcc/arm-none-eabi/4.6.1/../../../../arm-none-eabi/lib/thumb2\libstdc++.a(eh_alloc.o)
 *fill*         0x1000136c        0x4 00
 .bss._ZL16emergency_buffer
                0x10001370      0x800 c:/progra~2/codesourcery/source~1/bin/../lib/gcc/arm-none-eabi/4.6.1/../../../../arm-none-eabi/lib/thumb2\libstdc++.a(eh_alloc.o)
 .bss._ZL10eh_globals
                0x10001b70        0xc c:/progra~2/codesourcery/source~1/bin/../lib/gcc/arm-none-eabi/4.6.1/../../../../arm-none-eabi/lib/thumb2\libstdc++.a(eh_globals.o)
 .bss._ZZN9__gnu_cxx27__verbose_terminate_handlerEvE11terminating
                0x10001b7c        0x1 c:/progra~2/codesourcery/source~1/bin/../lib/gcc/arm-none-eabi/4.6.1/../../../../arm-none-eabi/lib/thumb2\libstdc++.a(vterminate.o)
 *fill*         0x10001b7d        0x3 00
 .bss           0x10001b80       0x34 c:/progra~2/codesourcery/source~1/bin/../lib/gcc/arm-none-eabi/4.6.1/../../../../arm-none-eabi/lib/thumb2\libc.a(lib_a-mallocr.o)
                0x10001b80                __malloc_top_pad
                0x10001b84                __malloc_current_mallinfo
                0x10001bac                __malloc_max_sbrked_mem
                0x10001bb0                __malloc_max_total_mem
 *(.gnu.linkonce.b*)
 *(COMMON)
 COMMON         0x10001bb4        0x4 c:/progra~2/codesourcery/source~1/bin/../lib/gcc/arm-none-eabi/4.6.1/../../../../arm-none-eabi/lib/thumb2\libc.a(lib_a-reent.o)
                0x10001bb4                errno
                0x10001bb8                . = ALIGN (0x4)
                0x10001bb8                _ebss = .

.stackarea      0x10001bb8        0x0 load address 0x0002b0c4
                0x10001bb8                . = ALIGN (0x8)
                0x10001bb8                _sstack = .
 *(.stackarea .stackarea.*)
                0x10001bb8                . = ALIGN (0x8)
                0x10001bb8                _estack = .
                0x10001bb8                . = ALIGN (0x4)
                0x10001bb8                _end = .
                0x10001bb8                PROVIDE (end, .)
                0x10007000                _stack = (ORIGIN (IRAM0) + 0x7000)

.stab
 *(.stab)

.stabstr
 *(.stabstr)

.stab.excl
 *(.stab.excl)

.stab.exclstr
 *(.stab.exclstr)

.stab.index
 *(.stab.index)

.stab.indexstr
 *(.stab.indexstr)

.debug
 *(.debug)

.line
 *(.line)

.debug_srcinfo
 *(.debug_srcinfo)

.debug_sfnames
 *(.debug_sfnames)

.debug_aranges  0x00000000      0xa40
 *(.debug_aranges)
 .debug_aranges
                0x00000000       0x20 build\system\startup_LPC17xx.o
 .debug_aranges
                0x00000020       0x20 build\system\syscalls.o
 .debug_aranges
                0x00000040       0x20 build\system\system_LPC17xx.o
 .debug_aranges
                0x00000060       0x20 build\system\mini_cpp.o
 .debug_aranges
                0x00000080       0x20 build\lib\source\Uart32.o
 .debug_aranges
                0x000000a0       0x20 build\lib\source\lpc17xx_clkpwr.o
 .debug_aranges
                0x000000c0       0x20 build\lib\source\lpc17xx_gpio.o
 .debug_aranges
                0x000000e0       0x20 build\lib\source\lpc17xx_libcfg_default.o
 .debug_aranges
                0x00000100       0x20 build\lib\source\lpc17xx_pinsel.o
 .debug_aranges
                0x00000120       0x20 build\lib\source\lpc17xx_spi.o
 .debug_aranges
                0x00000140       0x20 build\lib\source\lpc17xx_timer.o
 .debug_aranges
                0x00000160       0x20 build\lib\source\lpc17xx_uart.o
 .debug_aranges
                0x00000180       0x20 build\lib_sd\fat.o
 .debug_aranges
                0x000001a0       0x20 build\lib_sd\partition.o
 .debug_aranges
                0x000001c0       0x20 build\lib_sd\sd_raw.o
 .debug_aranges
                0x000001e0       0x20 build\IAP_internal_flash_write\IAP.o
 .debug_aranges
                0x00000200       0x20 build\USBCDC\cdcuser.o
 .debug_aranges
                0x00000220       0x20 build\USBCDC\serial.o
 .debug_aranges
                0x00000240       0x20 build\USBCDC\usbcore.o
 .debug_aranges
                0x00000260       0x20 build\USBCDC\usbhw.o
 .debug_aranges
                0x00000280       0x20 build\USBCDC\usbuser.o
 .debug_aranges
                0x000002a0       0x20 build\USBCDC\vcomdemo.o
 .debug_aranges
                0x000002c0       0x20 build\Atomic.o
 .debug_aranges
                0x000002e0       0x28 build\ButtonArray.o
 .debug_aranges
                0x00000308       0x90 build\Command.o
 .debug_aranges
                0x00000398       0x38 build\DebugPacketProcessor.o
 .debug_aranges
                0x000003d0       0x20 build\Delay.o
 .debug_aranges
                0x000003f0       0x28 build\EepromMap.o
 .debug_aranges
                0x00000418      0x118 build\Host.o
 .debug_aranges
                0x00000530       0x68 build\Interface.o
 .debug_aranges
                0x00000598       0x48 build\InterfaceBoard.o
 .debug_aranges
                0x000005e0       0x78 build\LiquidCrystal.o
 .debug_aranges
                0x00000658       0x60 build\Main.o
 .debug_aranges
                0x000006b8       0x98 build\Menu.o
 .debug_aranges
                0x00000750       0x88 build\Motherboard.o
 .debug_aranges
                0x000007d8       0x30 build\Packet.o
 .debug_aranges
                0x00000808       0x30 build\SDCard.o
 .debug_aranges
                0x00000838       0x30 build\StepperAxis.o
 .debug_aranges
                0x00000868       0x68 build\StepperInterface.o
 .debug_aranges
                0x000008d0       0x40 build\Steppers.o
 .debug_aranges
                0x00000910       0x30 build\Timeout.o
 .debug_aranges
                0x00000940       0x60 build\Tool.o
 .debug_aranges
                0x000009a0       0x80 build\UART.o
 .debug_aranges
                0x00000a20       0x20 build\test_u.o

.debug_pubnames
 *(.debug_pubnames)

.debug_info     0x00000000    0x21377
 *(.debug_info .gnu.linkonce.wi.*)
 .debug_info    0x00000000      0x552 build\system\startup_LPC17xx.o
 .debug_info    0x00000552      0x53c build\system\syscalls.o
 .debug_info    0x00000a8e      0x38c build\system\system_LPC17xx.o
 .debug_info    0x00000e1a     0x111e build\system\mini_cpp.o
 .debug_info    0x00001f38      0x323 build\lib\source\Uart32.o
 .debug_info    0x0000225b      0x6d3 build\lib\source\lpc17xx_clkpwr.o
 .debug_info    0x0000292e      0xe6e build\lib\source\lpc17xx_gpio.o
 .debug_info    0x0000379c       0xc9 build\lib\source\lpc17xx_libcfg_default.o
 .debug_info    0x00003865      0x4b5 build\lib\source\lpc17xx_pinsel.o
 .debug_info    0x00003d1a      0x5cc build\lib\source\lpc17xx_spi.o
 .debug_info    0x000042e6      0x892 build\lib\source\lpc17xx_timer.o
 .debug_info    0x00004b78     0x115b build\lib\source\lpc17xx_uart.o
 .debug_info    0x00005cd3     0x14e0 build\lib_sd\fat.o
 .debug_info    0x000071b3      0x366 build\lib_sd\partition.o
 .debug_info    0x00007519      0x8bf build\lib_sd\sd_raw.o
 .debug_info    0x00007dd8      0x4f0 build\IAP_internal_flash_write\IAP.o
 .debug_info    0x000082c8      0x846 build\USBCDC\cdcuser.o
 .debug_info    0x00008b0e      0x7af build\USBCDC\serial.o
 .debug_info    0x000092bd      0x918 build\USBCDC\usbcore.o
 .debug_info    0x00009bd5       0xf7 build\USBCDC\usbdesc.o
 .debug_info    0x00009ccc     0x1485 build\USBCDC\usbhw.o
 .debug_info    0x0000b151      0x39c build\USBCDC\usbuser.o
 .debug_info    0x0000b4ed      0x15e build\USBCDC\vcomdemo.o
 .debug_info    0x0000b64b      0x160 build\Atomic.o
 .debug_info    0x0000b7ab      0x444 build\ButtonArray.o
 .debug_info    0x0000bbef     0x172a build\Command.o
 .debug_info    0x0000d319     0x1201 build\DebugPacketProcessor.o
 .debug_info    0x0000e51a      0x138 build\Delay.o
 .debug_info    0x0000e652      0x9cc build\EepromMap.o
 .debug_info    0x0000f01e     0x2271 build\Host.o
 .debug_info    0x0001128f      0x9d9 build\Interface.o
 .debug_info    0x00011c68      0x9b8 build\InterfaceBoard.o
 .debug_info    0x00012620     0x1538 build\LiquidCrystal.o
 .debug_info    0x00013b58     0x12f7 build\Main.o
 .debug_info    0x00014e4f     0x25dd build\Menu.o
 .debug_info    0x0001742c     0x211a build\Motherboard.o
 .debug_info    0x00019546      0x9ba build\Packet.o
 .debug_info    0x00019f00      0xd23 build\SDCard.o
 .debug_info    0x0001ac23      0x99a build\StepperAxis.o
 .debug_info    0x0001b5bd      0x95a build\StepperInterface.o
 .debug_info    0x0001bf17     0x1633 build\Steppers.o
 .debug_info    0x0001d54a      0xc7e build\Timeout.o
 .debug_info    0x0001e1c8     0x1655 build\Tool.o
 .debug_info    0x0001f81d     0x1748 build\UART.o
 .debug_info    0x00020f65      0x412 build\test_u.o

.debug_abbrev   0x00000000     0x62ff
 *(.debug_abbrev)
 .debug_abbrev  0x00000000      0x158 build\system\startup_LPC17xx.o
 .debug_abbrev  0x00000158      0x150 build\system\syscalls.o
 .debug_abbrev  0x000002a8       0xcc build\system\system_LPC17xx.o
 .debug_abbrev  0x00000374      0x20e build\system\mini_cpp.o
 .debug_abbrev  0x00000582      0x101 build\lib\source\Uart32.o
 .debug_abbrev  0x00000683      0x195 build\lib\source\lpc17xx_clkpwr.o
 .debug_abbrev  0x00000818      0x1c9 build\lib\source\lpc17xx_gpio.o
 .debug_abbrev  0x000009e1       0x68 build\lib\source\lpc17xx_libcfg_default.o
 .debug_abbrev  0x00000a49      0x11d build\lib\source\lpc17xx_pinsel.o
 .debug_abbrev  0x00000b66      0x187 build\lib\source\lpc17xx_spi.o
 .debug_abbrev  0x00000ced      0x1b4 build\lib\source\lpc17xx_timer.o
 .debug_abbrev  0x00000ea1      0x1ce build\lib\source\lpc17xx_uart.o
 .debug_abbrev  0x0000106f      0x197 build\lib_sd\fat.o
 .debug_abbrev  0x00001206       0xf0 build\lib_sd\partition.o
 .debug_abbrev  0x000012f6      0x210 build\lib_sd\sd_raw.o
 .debug_abbrev  0x00001506      0x13e build\IAP_internal_flash_write\IAP.o
 .debug_abbrev  0x00001644      0x205 build\USBCDC\cdcuser.o
 .debug_abbrev  0x00001849      0x18f build\USBCDC\serial.o
 .debug_abbrev  0x000019d8      0x234 build\USBCDC\usbcore.o
 .debug_abbrev  0x00001c0c       0x63 build\USBCDC\usbdesc.o
 .debug_abbrev  0x00001c6f      0x26c build\USBCDC\usbhw.o
 .debug_abbrev  0x00001edb       0xfd build\USBCDC\usbuser.o
 .debug_abbrev  0x00001fd8       0x9e build\USBCDC\vcomdemo.o
 .debug_abbrev  0x00002076       0xd6 build\Atomic.o
 .debug_abbrev  0x0000214c      0x200 build\ButtonArray.o
 .debug_abbrev  0x0000234c      0x3cd build\Command.o
 .debug_abbrev  0x00002719      0x336 build\DebugPacketProcessor.o
 .debug_abbrev  0x00002a4f       0xa0 build\Delay.o
 .debug_abbrev  0x00002aef      0x2d3 build\EepromMap.o
 .debug_abbrev  0x00002dc2      0x434 build\Host.o
 .debug_abbrev  0x000031f6      0x2d0 build\Interface.o
 .debug_abbrev  0x000034c6      0x294 build\InterfaceBoard.o
 .debug_abbrev  0x0000375a      0x30e build\LiquidCrystal.o
 .debug_abbrev  0x00003a68      0x40e build\Main.o
 .debug_abbrev  0x00003e76      0x4d3 build\Menu.o
 .debug_abbrev  0x00004349      0x52c build\Motherboard.o
 .debug_abbrev  0x00004875      0x2a5 build\Packet.o
 .debug_abbrev  0x00004b1a      0x330 build\SDCard.o
 .debug_abbrev  0x00004e4a      0x24d build\StepperAxis.o
 .debug_abbrev  0x00005097      0x27a build\StepperInterface.o
 .debug_abbrev  0x00005311      0x3cd build\Steppers.o
 .debug_abbrev  0x000056de      0x2c3 build\Timeout.o
 .debug_abbrev  0x000059a1      0x3ac build\Tool.o
 .debug_abbrev  0x00005d4d      0x46c build\UART.o
 .debug_abbrev  0x000061b9      0x146 build\test_u.o

.debug_line     0x00000000     0xa473
 *(.debug_line)
 .debug_line    0x00000000      0x1b0 build\system\startup_LPC17xx.o
 .debug_line    0x000001b0      0x3a9 build\system\syscalls.o
 .debug_line    0x00000559      0x1ec build\system\system_LPC17xx.o
 .debug_line    0x00000745      0x47c build\system\mini_cpp.o
 .debug_line    0x00000bc1      0x1c8 build\lib\source\Uart32.o
 .debug_line    0x00000d89      0x23b build\lib\source\lpc17xx_clkpwr.o
 .debug_line    0x00000fc4      0x311 build\lib\source\lpc17xx_gpio.o
 .debug_line    0x000012d5      0x167 build\lib\source\lpc17xx_libcfg_default.o
 .debug_line    0x0000143c      0x1ed build\lib\source\lpc17xx_pinsel.o
 .debug_line    0x00001629      0x317 build\lib\source\lpc17xx_spi.o
 .debug_line    0x00001940      0x49c build\lib\source\lpc17xx_timer.o
 .debug_line    0x00001ddc      0x77b build\lib\source\lpc17xx_uart.o
 .debug_line    0x00002557      0x934 build\lib_sd\fat.o
 .debug_line    0x00002e8b      0x3c2 build\lib_sd\partition.o
 .debug_line    0x0000324d      0x563 build\lib_sd\sd_raw.o
 .debug_line    0x000037b0      0x1b2 build\IAP_internal_flash_write\IAP.o
 .debug_line    0x00003962      0x2ac build\USBCDC\cdcuser.o
 .debug_line    0x00003c0e      0x1fb build\USBCDC\serial.o
 .debug_line    0x00003e09      0x48a build\USBCDC\usbcore.o
 .debug_line    0x00004293      0x15d build\USBCDC\usbdesc.o
 .debug_line    0x000043f0      0x3bf build\USBCDC\usbhw.o
 .debug_line    0x000047af      0x1d6 build\USBCDC\usbuser.o
 .debug_line    0x00004985      0x21c build\USBCDC\vcomdemo.o
 .debug_line    0x00004ba1      0x1b2 build\Atomic.o
 .debug_line    0x00004d53      0x22e build\ButtonArray.o
 .debug_line    0x00004f81      0x5a1 build\Command.o
 .debug_line    0x00005522      0x38b build\DebugPacketProcessor.o
 .debug_line    0x000058ad      0x1f5 build\Delay.o
 .debug_line    0x00005aa2      0x31a build\EepromMap.o
 .debug_line    0x00005dbc      0x869 build\Host.o
 .debug_line    0x00006625      0x311 build\Interface.o
 .debug_line    0x00006936      0x2ff build\InterfaceBoard.o
 .debug_line    0x00006c35      0x5ff build\LiquidCrystal.o
 .debug_line    0x00007234      0x478 build\Main.o
 .debug_line    0x000076ac      0x7eb build\Menu.o
 .debug_line    0x00007e97      0x52c build\Motherboard.o
 .debug_line    0x000083c3      0x291 build\Packet.o
 .debug_line    0x00008654      0x658 build\SDCard.o
 .debug_line    0x00008cac      0x29a build\StepperAxis.o
 .debug_line    0x00008f46      0x321 build\StepperInterface.o
 .debug_line    0x00009267      0x47e build\Steppers.o
 .debug_line    0x000096e5      0x2cc build\Timeout.o
 .debug_line    0x000099b1      0x489 build\Tool.o
 .debug_line    0x00009e3a      0x458 build\UART.o
 .debug_line    0x0000a292      0x1e1 build\test_u.o

.debug_frame    0x00000000     0x7014
 *(.debug_frame)
 .debug_frame   0x00000000       0x4c build\system\startup_LPC17xx.o
 .debug_frame   0x0000004c      0x15c build\system\syscalls.o
 .debug_frame   0x000001a8       0x40 build\system\system_LPC17xx.o
 .debug_frame   0x000001e8       0x8c build\system\mini_cpp.o
 .debug_frame   0x00000274       0x70 build\lib\source\Uart32.o
 .debug_frame   0x000002e4       0xe4 build\lib\source\lpc17xx_clkpwr.o
 .debug_frame   0x000003c8      0x398 build\lib\source\lpc17xx_gpio.o
 .debug_frame   0x00000760       0x2c build\lib\source\lpc17xx_libcfg_default.o
 .debug_frame   0x0000078c       0xbc build\lib\source\lpc17xx_pinsel.o
 .debug_frame   0x00000848      0x1ac build\lib\source\lpc17xx_spi.o
 .debug_frame   0x000009f4      0x208 build\lib\source\lpc17xx_timer.o
 .debug_frame   0x00000bfc      0x3ac build\lib\source\lpc17xx_uart.o
 .debug_frame   0x00000fa8      0x3d8 build\lib_sd\fat.o
 .debug_frame   0x00001380       0x4c build\lib_sd\partition.o
 .debug_frame   0x000013cc      0x180 build\lib_sd\sd_raw.o
 .debug_frame   0x0000154c      0x128 build\IAP_internal_flash_write\IAP.o
 .debug_frame   0x00001674      0x1e4 build\USBCDC\cdcuser.o
 .debug_frame   0x00001858       0xd4 build\USBCDC\serial.o
 .debug_frame   0x0000192c      0x1bc build\USBCDC\usbcore.o
 .debug_frame   0x00001ae8      0x350 build\USBCDC\usbhw.o
 .debug_frame   0x00001e38      0x1f0 build\USBCDC\usbuser.o
 .debug_frame   0x00002028       0x2c build\USBCDC\vcomdemo.o
 .debug_frame   0x00002054       0x2c build\Atomic.o
 .debug_frame   0x00002080       0xc0 build\ButtonArray.o
 .debug_frame   0x00002140      0x308 build\Command.o
 .debug_frame   0x00002448       0xbc build\DebugPacketProcessor.o
 .debug_frame   0x00002504       0x88 build\Delay.o
 .debug_frame   0x0000258c      0x13c build\EepromMap.o
 .debug_frame   0x000026c8      0x4f8 build\Host.o
 .debug_frame   0x00002bc0      0x230 build\Interface.o
 .debug_frame   0x00002df0      0x1c4 build\InterfaceBoard.o
 .debug_frame   0x00002fb4      0x550 build\LiquidCrystal.o
 .debug_frame   0x00003504      0x19c build\Main.o
 .debug_frame   0x000036a0      0x604 build\Menu.o
 .debug_frame   0x00003ca4      0x320 build\Motherboard.o
 .debug_frame   0x00003fc4      0x230 build\Packet.o
 .debug_frame   0x000041f4      0x2e0 build\SDCard.o
 .debug_frame   0x000044d4      0x19c build\StepperAxis.o
 .debug_frame   0x00004670      0x240 build\StepperInterface.o
 .debug_frame   0x000048b0      0x214 build\Steppers.o
 .debug_frame   0x00004ac4      0x118 build\Timeout.o
 .debug_frame   0x00004bdc      0x300 build\Tool.o
 .debug_frame   0x00004edc      0x2a8 build\UART.o
 .debug_frame   0x00005184       0x30 build\test_u.o
 .debug_frame   0x000051b4       0xa8 c:/progra~2/codesourcery/source~1/bin/../lib/gcc/arm-none-eabi/4.6.1/../../../../arm-none-eabi/lib/thumb2\libstdc++.a(si_class_type_info.o)
 .debug_frame   0x0000525c       0x28 c:/progra~2/codesourcery/source~1/bin/../lib/gcc/arm-none-eabi/4.6.1/../../../../arm-none-eabi/lib/thumb2\libstdc++.a(pure.o)
 .debug_frame   0x00005284       0x90 c:/progra~2/codesourcery/source~1/bin/../lib/gcc/arm-none-eabi/4.6.1/../../../../arm-none-eabi/lib/thumb2\libstdc++.a(eh_terminate.o)
 .debug_frame   0x00005314       0xcc c:/progra~2/codesourcery/source~1/bin/../lib/gcc/arm-none-eabi/4.6.1/../../../../arm-none-eabi/lib/thumb2\libstdc++.a(class_type_info.o)
 .debug_frame   0x000053e0       0x50 c:/progra~2/codesourcery/source~1/bin/../lib/gcc/arm-none-eabi/4.6.1/../../../../arm-none-eabi/lib/thumb2\libstdc++.a(eh_call.o)
 .debug_frame   0x00005430       0x60 c:/progra~2/codesourcery/source~1/bin/../lib/gcc/arm-none-eabi/4.6.1/../../../../arm-none-eabi/lib/thumb2\libstdc++.a(eh_throw.o)
 .debug_frame   0x00005490       0x64 c:/progra~2/codesourcery/source~1/bin/../lib/gcc/arm-none-eabi/4.6.1/../../../../arm-none-eabi/lib/thumb2\libstdc++.a(eh_arm.o)
 .debug_frame   0x000054f4       0xd0 c:/progra~2/codesourcery/source~1/bin/../lib/gcc/arm-none-eabi/4.6.1/../../../../arm-none-eabi/lib/thumb2\libstdc++.a(eh_exception.o)
 .debug_frame   0x000055c4       0x70 c:/progra~2/codesourcery/source~1/bin/../lib/gcc/arm-none-eabi/4.6.1/../../../../arm-none-eabi/lib/thumb2\libstdc++.a(eh_alloc.o)
 .debug_frame   0x00005634       0x30 c:/progra~2/codesourcery/source~1/bin/../lib/gcc/arm-none-eabi/4.6.1/../../../../arm-none-eabi/lib/thumb2\libstdc++.a(eh_globals.o)
 .debug_frame   0x00005664       0x90 c:/progra~2/codesourcery/source~1/bin/../lib/gcc/arm-none-eabi/4.6.1/../../../../arm-none-eabi/lib/thumb2\libstdc++.a(tinfo.o)
 .debug_frame   0x000056f4       0x6c c:/progra~2/codesourcery/source~1/bin/../lib/gcc/arm-none-eabi/4.6.1/../../../../arm-none-eabi/lib/thumb2\libstdc++.a(eh_catch.o)
 .debug_frame   0x00005760       0x30 c:/progra~2/codesourcery/source~1/bin/../lib/gcc/arm-none-eabi/4.6.1/../../../../arm-none-eabi/lib/thumb2\libstdc++.a(vterminate.o)
 .debug_frame   0x00005790      0x490 c:/progra~2/codesourcery/source~1/bin/../lib/gcc/arm-none-eabi/4.6.1/../../../../arm-none-eabi/lib/thumb2\libstdc++.a(cp-demangle.o)
 .debug_frame   0x00005c20       0x28 c:/progra~2/codesourcery/source~1/bin/../lib/gcc/arm-none-eabi/4.6.1/../../../../arm-none-eabi/lib/thumb2\libstdc++.a(eh_type.o)
 .debug_frame   0x00005c48       0x50 c:/progra~2/codesourcery/source~1/bin/../lib/gcc/arm-none-eabi/4.6.1/thumb2\libgcc.a(bpabi.o)
 .debug_frame   0x00005c98      0x274 c:/progra~2/codesourcery/source~1/bin/../lib/gcc/arm-none-eabi/4.6.1/thumb2\libgcc.a(unwind-arm.o)
 .debug_frame   0x00005f0c       0xf0 c:/progra~2/codesourcery/source~1/bin/../lib/gcc/arm-none-eabi/4.6.1/thumb2\libgcc.a(pr-support.o)
 .debug_frame   0x00005ffc       0x38 c:/progra~2/codesourcery/source~1/bin/../lib/gcc/arm-none-eabi/4.6.1/thumb2\libgcc.a(_divdi3.o)
 .debug_frame   0x00006034       0x38 c:/progra~2/codesourcery/source~1/bin/../lib/gcc/arm-none-eabi/4.6.1/thumb2\libgcc.a(_udivdi3.o)
 .debug_frame   0x0000606c       0x20 c:/progra~2/codesourcery/source~1/bin/../lib/gcc/arm-none-eabi/4.6.1/thumb2\libgcc.a(_udivsi3.o)
 .debug_frame   0x0000608c       0x28 c:/progra~2/codesourcery/source~1/bin/../lib/gcc/arm-none-eabi/4.6.1/../../../../arm-none-eabi/lib/thumb2\libc.a(lib_a-abort.o)
 .debug_frame   0x000060b4       0x48 c:/progra~2/codesourcery/source~1/bin/../lib/gcc/arm-none-eabi/4.6.1/../../../../arm-none-eabi/lib/thumb2\libc.a(lib_a-fputc.o)
 .debug_frame   0x000060fc       0x3c c:/progra~2/codesourcery/source~1/bin/../lib/gcc/arm-none-eabi/4.6.1/../../../../arm-none-eabi/lib/thumb2\libc.a(lib_a-fputs.o)
 .debug_frame   0x00006138       0x38 c:/progra~2/codesourcery/source~1/bin/../lib/gcc/arm-none-eabi/4.6.1/../../../../arm-none-eabi/lib/thumb2\libc.a(lib_a-fvwrite.o)
 .debug_frame   0x00006170       0x54 c:/progra~2/codesourcery/source~1/bin/../lib/gcc/arm-none-eabi/4.6.1/../../../../arm-none-eabi/lib/thumb2\libc.a(lib_a-fwrite.o)
 .debug_frame   0x000061c4       0x2c c:/progra~2/codesourcery/source~1/bin/../lib/gcc/arm-none-eabi/4.6.1/../../../../arm-none-eabi/lib/thumb2\libc.a(lib_a-init.o)
 .debug_frame   0x000061f0       0x30 c:/progra~2/codesourcery/source~1/bin/../lib/gcc/arm-none-eabi/4.6.1/../../../../arm-none-eabi/lib/thumb2\libc.a(lib_a-malloc.o)
 .debug_frame   0x00006220       0x38 c:/progra~2/codesourcery/source~1/bin/../lib/gcc/arm-none-eabi/4.6.1/../../../../arm-none-eabi/lib/thumb2\libc.a(lib_a-mallocr.o)
 .debug_frame   0x00006258       0x2c c:/progra~2/codesourcery/source~1/bin/../lib/gcc/arm-none-eabi/4.6.1/../../../../arm-none-eabi/lib/thumb2\libc.a(lib_a-memchr.o)
 .debug_frame   0x00006284       0x2c c:/progra~2/codesourcery/source~1/bin/../lib/gcc/arm-none-eabi/4.6.1/../../../../arm-none-eabi/lib/thumb2\libc.a(lib_a-memcmp.o)
 .debug_frame   0x000062b0       0x30 c:/progra~2/codesourcery/source~1/bin/../lib/gcc/arm-none-eabi/4.6.1/../../../../arm-none-eabi/lib/thumb2\libc.a(lib_a-memcpy.o)
 .debug_frame   0x000062e0       0x2c c:/progra~2/codesourcery/source~1/bin/../lib/gcc/arm-none-eabi/4.6.1/../../../../arm-none-eabi/lib/thumb2\libc.a(lib_a-memmove.o)
 .debug_frame   0x0000630c       0x2c c:/progra~2/codesourcery/source~1/bin/../lib/gcc/arm-none-eabi/4.6.1/../../../../arm-none-eabi/lib/thumb2\libc.a(lib_a-memset.o)
 .debug_frame   0x00006338       0x30 c:/progra~2/codesourcery/source~1/bin/../lib/gcc/arm-none-eabi/4.6.1/../../../../arm-none-eabi/lib/thumb2\libc.a(lib_a-mlock.o)
 .debug_frame   0x00006368       0x48 c:/progra~2/codesourcery/source~1/bin/../lib/gcc/arm-none-eabi/4.6.1/../../../../arm-none-eabi/lib/thumb2\libc.a(lib_a-putc.o)
 .debug_frame   0x000063b0       0x4c c:/progra~2/codesourcery/source~1/bin/../lib/gcc/arm-none-eabi/4.6.1/../../../../arm-none-eabi/lib/thumb2\libc.a(lib_a-rand.o)
 .debug_frame   0x000063fc       0x20 c:/progra~2/codesourcery/source~1/bin/../lib/gcc/arm-none-eabi/4.6.1/../../../../arm-none-eabi/lib/thumb2\libc.a(lib_a-realloc.o)
 .debug_frame   0x0000641c       0x38 c:/progra~2/codesourcery/source~1/bin/../lib/gcc/arm-none-eabi/4.6.1/../../../../arm-none-eabi/lib/thumb2\libc.a(lib_a-reallocr.o)
 .debug_frame   0x00006454       0x64 c:/progra~2/codesourcery/source~1/bin/../lib/gcc/arm-none-eabi/4.6.1/../../../../arm-none-eabi/lib/thumb2\libc.a(lib_a-reent.o)
 .debug_frame   0x000064b8       0x2c c:/progra~2/codesourcery/source~1/bin/../lib/gcc/arm-none-eabi/4.6.1/../../../../arm-none-eabi/lib/thumb2\libc.a(lib_a-sbrkr.o)
 .debug_frame   0x000064e4       0xc0 c:/progra~2/codesourcery/source~1/bin/../lib/gcc/arm-none-eabi/4.6.1/../../../../arm-none-eabi/lib/thumb2\libc.a(lib_a-signal.o)
 .debug_frame   0x000065a4       0x3c c:/progra~2/codesourcery/source~1/bin/../lib/gcc/arm-none-eabi/4.6.1/../../../../arm-none-eabi/lib/thumb2\libc.a(lib_a-signalr.o)
 .debug_frame   0x000065e0       0x64 c:/progra~2/codesourcery/source~1/bin/../lib/gcc/arm-none-eabi/4.6.1/../../../../arm-none-eabi/lib/thumb2\libc.a(lib_a-sprintf.o)
 .debug_frame   0x00006644       0x2c c:/progra~2/codesourcery/source~1/bin/../lib/gcc/arm-none-eabi/4.6.1/../../../../arm-none-eabi/lib/thumb2\libc.a(lib_a-strchr.o)
 .debug_frame   0x00006670       0x30 c:/progra~2/codesourcery/source~1/bin/../lib/gcc/arm-none-eabi/4.6.1/../../../../arm-none-eabi/lib/thumb2\libc.a(lib_a-strcmp.o)
 .debug_frame   0x000066a0       0x20 c:/progra~2/codesourcery/source~1/bin/../lib/gcc/arm-none-eabi/4.6.1/../../../../arm-none-eabi/lib/thumb2\libc.a(lib_a-strcpy.o)
 .debug_frame   0x000066c0       0x20 c:/progra~2/codesourcery/source~1/bin/../lib/gcc/arm-none-eabi/4.6.1/../../../../arm-none-eabi/lib/thumb2\libc.a(lib_a-strlen.o)
 .debug_frame   0x000066e0       0x30 c:/progra~2/codesourcery/source~1/bin/../lib/gcc/arm-none-eabi/4.6.1/../../../../arm-none-eabi/lib/thumb2\libc.a(lib_a-strncmp.o)
 .debug_frame   0x00006710       0x2c c:/progra~2/codesourcery/source~1/bin/../lib/gcc/arm-none-eabi/4.6.1/../../../../arm-none-eabi/lib/thumb2\libc.a(lib_a-strncpy.o)
 .debug_frame   0x0000673c       0x2c c:/progra~2/codesourcery/source~1/bin/../lib/gcc/arm-none-eabi/4.6.1/../../../../arm-none-eabi/lib/thumb2\libc.a(lib_a-strrchr.o)
 .debug_frame   0x00006768       0x3c c:/progra~2/codesourcery/source~1/bin/../lib/gcc/arm-none-eabi/4.6.1/../../../../arm-none-eabi/lib/thumb2\libc.a(lib_a-svfprintf.o)
 .debug_frame   0x000067a4       0x28 c:/progra~2/codesourcery/source~1/bin/../lib/gcc/arm-none-eabi/4.6.1/../../../../arm-none-eabi/lib/thumb2\libc.a(lib_a-syswrite.o)
 .debug_frame   0x000067cc       0x3c c:/progra~2/codesourcery/source~1/bin/../lib/gcc/arm-none-eabi/4.6.1/../../../../arm-none-eabi/lib/thumb2\libc.a(lib_a-wbuf.o)
 .debug_frame   0x00006808       0x2c c:/progra~2/codesourcery/source~1/bin/../lib/gcc/arm-none-eabi/4.6.1/../../../../arm-none-eabi/lib/thumb2\libc.a(lib_a-writer.o)
 .debug_frame   0x00006834       0x2c c:/progra~2/codesourcery/source~1/bin/../lib/gcc/arm-none-eabi/4.6.1/../../../../arm-none-eabi/lib/thumb2\libc.a(lib_a-wsetup.o)
 .debug_frame   0x00006860       0x64 c:/progra~2/codesourcery/source~1/bin/../lib/gcc/arm-none-eabi/4.6.1/../../../../arm-none-eabi/lib/thumb2\libc.a(lib_a-dtoa.o)
 .debug_frame   0x000068c4       0x40 c:/progra~2/codesourcery/source~1/bin/../lib/gcc/arm-none-eabi/4.6.1/../../../../arm-none-eabi/lib/thumb2\libc.a(lib_a-fflush.o)
 .debug_frame   0x00006904      0x11c c:/progra~2/codesourcery/source~1/bin/../lib/gcc/arm-none-eabi/4.6.1/../../../../arm-none-eabi/lib/thumb2\libc.a(lib_a-findfp.o)
 .debug_frame   0x00006a20       0x50 c:/progra~2/codesourcery/source~1/bin/../lib/gcc/arm-none-eabi/4.6.1/../../../../arm-none-eabi/lib/thumb2\libc.a(lib_a-freer.o)
 .debug_frame   0x00006a70       0x54 c:/progra~2/codesourcery/source~1/bin/../lib/gcc/arm-none-eabi/4.6.1/../../../../arm-none-eabi/lib/thumb2\libc.a(lib_a-fwalk.o)
 .debug_frame   0x00006ac4       0x98 c:/progra~2/codesourcery/source~1/bin/../lib/gcc/arm-none-eabi/4.6.1/../../../../arm-none-eabi/lib/thumb2\libc.a(lib_a-locale.o)
 .debug_frame   0x00006b5c       0x30 c:/progra~2/codesourcery/source~1/bin/../lib/gcc/arm-none-eabi/4.6.1/../../../../arm-none-eabi/lib/thumb2\libc.a(lib_a-makebuf.o)
 .debug_frame   0x00006b8c      0x23c c:/progra~2/codesourcery/source~1/bin/../lib/gcc/arm-none-eabi/4.6.1/../../../../arm-none-eabi/lib/thumb2\libc.a(lib_a-mprec.o)
 .debug_frame   0x00006dc8       0x28 c:/progra~2/codesourcery/source~1/bin/../lib/gcc/arm-none-eabi/4.6.1/../../../../arm-none-eabi/lib/thumb2\libc.a(lib_a-s_fpclassify.o)
 .debug_frame   0x00006df0       0x80 c:/progra~2/codesourcery/source~1/bin/../lib/gcc/arm-none-eabi/4.6.1/../../../../arm-none-eabi/lib/thumb2\libc.a(lib_a-stdio.o)
 .debug_frame   0x00006e70       0x64 c:/progra~2/codesourcery/source~1/bin/../lib/gcc/arm-none-eabi/4.6.1/../../../../arm-none-eabi/lib/thumb2\libc.a(lib_a-svfiprintf.o)
 .debug_frame   0x00006ed4       0x28 c:/progra~2/codesourcery/source~1/bin/../lib/gcc/arm-none-eabi/4.6.1/../../../../arm-none-eabi/lib/thumb2\libc.a(lib_a-callocr.o)
 .debug_frame   0x00006efc       0x2c c:/progra~2/codesourcery/source~1/bin/../lib/gcc/arm-none-eabi/4.6.1/../../../../arm-none-eabi/lib/thumb2\libc.a(lib_a-closer.o)
 .debug_frame   0x00006f28       0x3c c:/progra~2/codesourcery/source~1/bin/../lib/gcc/arm-none-eabi/4.6.1/../../../../arm-none-eabi/lib/thumb2\libc.a(lib_a-fclose.o)
 .debug_frame   0x00006f64       0x2c c:/progra~2/codesourcery/source~1/bin/../lib/gcc/arm-none-eabi/4.6.1/../../../../arm-none-eabi/lib/thumb2\libc.a(lib_a-fstatr.o)
 .debug_frame   0x00006f90       0x2c c:/progra~2/codesourcery/source~1/bin/../lib/gcc/arm-none-eabi/4.6.1/../../../../arm-none-eabi/lib/thumb2\libc.a(lib_a-isattyr.o)
 .debug_frame   0x00006fbc       0x2c c:/progra~2/codesourcery/source~1/bin/../lib/gcc/arm-none-eabi/4.6.1/../../../../arm-none-eabi/lib/thumb2\libc.a(lib_a-lseekr.o)
 .debug_frame   0x00006fe8       0x2c c:/progra~2/codesourcery/source~1/bin/../lib/gcc/arm-none-eabi/4.6.1/../../../../arm-none-eabi/lib/thumb2\libc.a(lib_a-readr.o)

.debug_str      0x00000000     0x7fdf
 *(.debug_str)
 .debug_str     0x00000000      0x28f build\system\startup_LPC17xx.o
                                0x2cb (size before relaxing)
 .debug_str     0x0000028f      0x15d build\system\syscalls.o
                                0x289 (size before relaxing)
 .debug_str     0x000003ec      0x18f build\system\system_LPC17xx.o
                                0x268 (size before relaxing)
 .debug_str     0x0000057b      0x535 build\system\mini_cpp.o
                                0x689 (size before relaxing)
 .debug_str     0x00000ab0       0x47 build\lib\source\Uart32.o
                                0x17f (size before relaxing)
 .debug_str     0x00000af7      0x132 build\lib\source\lpc17xx_clkpwr.o
                                0x381 (size before relaxing)
 .debug_str     0x00000c29      0x30f build\lib\source\lpc17xx_gpio.o
                                0x552 (size before relaxing)
 .debug_str     0x00000f38       0x37 build\lib\source\lpc17xx_libcfg_default.o
                                0x108 (size before relaxing)
 .debug_str     0x00000f6f      0x23c build\lib\source\lpc17xx_pinsel.o
                                0x35a (size before relaxing)
 .debug_str     0x000011ab      0x240 build\lib\source\lpc17xx_spi.o
                                0x38d (size before relaxing)
 .debug_str     0x000013eb      0x3fc build\lib\source\lpc17xx_timer.o
                                0x588 (size before relaxing)
 .debug_str     0x000017e7      0x8b0 build\lib\source\lpc17xx_uart.o
                                0xaf4 (size before relaxing)
 .debug_str     0x00002097      0x708 build\lib_sd\fat.o
                                0x8b2 (size before relaxing)
 .debug_str     0x0000279f       0x58 build\lib_sd\partition.o
                                0x248 (size before relaxing)
 .debug_str     0x000027f7      0x275 build\lib_sd\sd_raw.o
                                0x4cf (size before relaxing)
 .debug_str     0x00002a6c      0x2cb build\IAP_internal_flash_write\IAP.o
                                0x3b3 (size before relaxing)
 .debug_str     0x00002d37      0x4e9 build\USBCDC\cdcuser.o
                                0x638 (size before relaxing)
 .debug_str     0x00003220       0xbe build\USBCDC\serial.o
                                0x2fd (size before relaxing)
 .debug_str     0x000032de      0x42c build\USBCDC\usbcore.o
                                0x5ca (size before relaxing)
 .debug_str     0x0000370a       0x17 build\USBCDC\usbdesc.o
                                0x114 (size before relaxing)
 .debug_str     0x00003721      0x54f build\USBCDC\usbhw.o
                                0xba9 (size before relaxing)
 .debug_str     0x00003c70      0x11f build\USBCDC\usbuser.o
                                0x215 (size before relaxing)
 .debug_str     0x00003d8f       0x23 build\USBCDC\vcomdemo.o
                                0x137 (size before relaxing)
 .debug_str     0x00003db2       0xba build\Atomic.o
                                0x1b7 (size before relaxing)
 .debug_str     0x00003e6c      0x24b build\ButtonArray.o
                                0x3d3 (size before relaxing)
 .debug_str     0x000040b7      0xa76 build\Command.o
                                0xdcf (size before relaxing)
 .debug_str     0x00004b2d      0x7c7 build\DebugPacketProcessor.o
                               0x1031 (size before relaxing)
 .debug_str     0x000052f4       0x2c build\Delay.o
                                0x10c (size before relaxing)
 .debug_str     0x00005320      0x26e build\EepromMap.o
                                0x670 (size before relaxing)
 .debug_str     0x0000558e      0x935 build\Host.o
                               0x1966 (size before relaxing)
 .debug_str     0x00005ec3      0x173 build\Interface.o
                                0x6ea (size before relaxing)
 .debug_str     0x00006036       0x56 build\InterfaceBoard.o
                                0x677 (size before relaxing)
 .debug_str     0x0000608c      0x57a build\LiquidCrystal.o
                                0x8a3 (size before relaxing)
 .debug_str     0x00006606       0xba build\Main.o
                                0xceb (size before relaxing)
 .debug_str     0x000066c0      0x889 build\Menu.o
                               0x1343 (size before relaxing)
 .debug_str     0x00006f49      0x1e8 build\Motherboard.o
                               0x16e3 (size before relaxing)
 .debug_str     0x00007131       0x2e build\Packet.o
                                0x561 (size before relaxing)
 .debug_str     0x0000715f      0x4b1 build\SDCard.o
                                0xa3c (size before relaxing)
 .debug_str     0x00007610      0x1c9 build\StepperAxis.o
                                0x636 (size before relaxing)
 .debug_str     0x000077d9       0x5e build\StepperInterface.o
                                0x4a8 (size before relaxing)
 .debug_str     0x00007837      0x2d4 build\Steppers.o
                                0xf76 (size before relaxing)
 .debug_str     0x00007b0b       0x24 build\Timeout.o
                                0xa2f (size before relaxing)
 .debug_str     0x00007b2f      0x36f build\Tool.o
                               0x1262 (size before relaxing)
 .debug_str     0x00007e9e      0x11f build\UART.o
                                0xde1 (size before relaxing)
 .debug_str     0x00007fbd       0x22 build\test_u.o
                                0x35a (size before relaxing)

.debug_loc      0x00000000     0x8e76
 *(.debug_loc)
 .debug_loc     0x00000000       0x64 build\system\startup_LPC17xx.o
 .debug_loc     0x00000064      0x27c build\system\syscalls.o
 .debug_loc     0x000002e0       0x58 build\system\system_LPC17xx.o
 .debug_loc     0x00000338       0xe0 build\system\mini_cpp.o
 .debug_loc     0x00000418       0xa8 build\lib\source\Uart32.o
 .debug_loc     0x000004c0      0x190 build\lib\source\lpc17xx_clkpwr.o
 .debug_loc     0x00000650      0x658 build\lib\source\lpc17xx_gpio.o
 .debug_loc     0x00000ca8       0x38 build\lib\source\lpc17xx_libcfg_default.o
 .debug_loc     0x00000ce0      0x150 build\lib\source\lpc17xx_pinsel.o
 .debug_loc     0x00000e30      0x2d8 build\lib\source\lpc17xx_spi.o
 .debug_loc     0x00001108      0x380 build\lib\source\lpc17xx_timer.o
 .debug_loc     0x00001488      0x65a build\lib\source\lpc17xx_uart.o
 .debug_loc     0x00001ae2      0x6d2 build\lib_sd\fat.o
 .debug_loc     0x000021b4       0x70 build\lib_sd\partition.o
 .debug_loc     0x00002224      0x27c build\lib_sd\sd_raw.o
 .debug_loc     0x000024a0      0x1f8 build\IAP_internal_flash_write\IAP.o
 .debug_loc     0x00002698      0x370 build\USBCDC\cdcuser.o
 .debug_loc     0x00002a08      0x188 build\USBCDC\serial.o
 .debug_loc     0x00002b90      0x2f4 build\USBCDC\usbcore.o
 .debug_loc     0x00002e84      0x5e4 build\USBCDC\usbhw.o
 .debug_loc     0x00003468      0x3a0 build\USBCDC\usbuser.o
 .debug_loc     0x00003808       0x2c build\USBCDC\vcomdemo.o
 .debug_loc     0x00003834       0x38 build\Atomic.o
 .debug_loc     0x0000386c      0x144 build\ButtonArray.o
 .debug_loc     0x000039b0      0x576 build\Command.o
 .debug_loc     0x00003f26      0x13a build\DebugPacketProcessor.o
 .debug_loc     0x00004060       0xd4 build\Delay.o
 .debug_loc     0x00004134      0x226 build\EepromMap.o
 .debug_loc     0x0000435a      0x8ec build\Host.o
 .debug_loc     0x00004c46      0x3b4 build\Interface.o
 .debug_loc     0x00004ffa      0x304 build\InterfaceBoard.o
 .debug_loc     0x000052fe      0x928 build\LiquidCrystal.o
 .debug_loc     0x00005c26      0x2c2 build\Main.o
 .debug_loc     0x00005ee8      0xae6 build\Menu.o
 .debug_loc     0x000069ce      0x578 build\Motherboard.o
 .debug_loc     0x00006f46      0x3f0 build\Packet.o
 .debug_loc     0x00007336      0x4e8 build\SDCard.o
 .debug_loc     0x0000781e      0x2cc build\StepperAxis.o
 .debug_loc     0x00007aea      0x3e4 build\StepperInterface.o
 .debug_loc     0x00007ece      0x396 build\Steppers.o
 .debug_loc     0x00008264      0x1e0 build\Timeout.o
 .debug_loc     0x00008444      0x54c build\Tool.o
 .debug_loc     0x00008990      0x4ae build\UART.o
 .debug_loc     0x00008e3e       0x38 build\test_u.o

.debug_macinfo  0x00000000   0x17babb
 *(.debug_macinfo)
 .debug_macinfo
                0x00000000     0x7166 build\system\startup_LPC17xx.o
 .debug_macinfo
                0x00007166     0xa1ba build\system\syscalls.o
 .debug_macinfo
                0x00011320     0x7422 build\system\system_LPC17xx.o
 .debug_macinfo
                0x00018742     0x6b64 build\system\mini_cpp.o
 .debug_macinfo
                0x0001f2a6     0x8bab build\lib\source\Uart32.o
 .debug_macinfo
                0x00027e51     0x8623 build\lib\source\lpc17xx_clkpwr.o
 .debug_macinfo
                0x00030474     0x76e9 build\lib\source\lpc17xx_gpio.o
 .debug_macinfo
                0x00037b5d     0x2ed5 build\lib\source\lpc17xx_libcfg_default.o
 .debug_macinfo
                0x0003aa32     0x77fe build\lib\source\lpc17xx_pinsel.o
 .debug_macinfo
                0x00042230     0x9242 build\lib\source\lpc17xx_spi.o
 .debug_macinfo
                0x0004b472     0x9507 build\lib\source\lpc17xx_timer.o
 .debug_macinfo
                0x00054979     0xa085 build\lib\source\lpc17xx_uart.o
 .debug_macinfo
                0x0005e9fe     0x9f30 build\lib_sd\fat.o
 .debug_macinfo
                0x0006892e     0x98e0 build\lib_sd\partition.o
 .debug_macinfo
                0x0007220e     0xadf4 build\lib_sd\sd_raw.o
 .debug_macinfo
                0x0007d002     0x307e build\IAP_internal_flash_write\IAP.o
 .debug_macinfo
                0x00080080     0x9012 build\USBCDC\cdcuser.o
 .debug_macinfo
                0x00089092     0x74b8 build\USBCDC\serial.o
 .debug_macinfo
                0x0009054a     0x4b03 build\USBCDC\usbcore.o
 .debug_macinfo
                0x0009504d     0x4682 build\USBCDC\usbdesc.o
 .debug_macinfo
                0x000996cf     0xa308 build\USBCDC\usbhw.o
 .debug_macinfo
                0x000a39d7     0x3db2 build\USBCDC\usbuser.o
 .debug_macinfo
                0x000a7789     0xa71b build\USBCDC\vcomdemo.o
 .debug_macinfo
                0x000b1ea4     0x71c8 build\Atomic.o
 .debug_macinfo
                0x000b906c     0x7c28 build\ButtonArray.o
 .debug_macinfo
                0x000c0c94     0xa4da build\Command.o
 .debug_macinfo
                0x000cb16e     0x815f build\DebugPacketProcessor.o
 .debug_macinfo
                0x000d32cd     0x71c8 build\Delay.o
 .debug_macinfo
                0x000da495     0x9327 build\EepromMap.o
 .debug_macinfo
                0x000e37bc     0xa61c build\Host.o
 .debug_macinfo
                0x000eddd8     0x7f9a build\Interface.o
 .debug_macinfo
                0x000f5d72     0x8007 build\InterfaceBoard.o
 .debug_macinfo
                0x000fdd79     0xa50f build\LiquidCrystal.o
 .debug_macinfo
                0x00108288     0x9c33 build\Main.o
 .debug_macinfo
                0x00111ebb     0xaa7b build\Menu.o
 .debug_macinfo
                0x0011c936     0xacaf build\Motherboard.o
 .debug_macinfo
                0x001275e5     0x8cb5 build\Packet.o
 .debug_macinfo
                0x0013029a     0xc616 build\SDCard.o
 .debug_macinfo
                0x0013c8b0     0x7c07 build\StepperAxis.o
 .debug_macinfo
                0x001444b7     0x7e28 build\StepperInterface.o
 .debug_macinfo
                0x0014c2df     0x998c build\Steppers.o
 .debug_macinfo
                0x00155c6b     0x8036 build\Timeout.o
 .debug_macinfo
                0x0015dca1     0xa344 build\Tool.o
 .debug_macinfo
                0x00167fe5     0xa98a build\UART.o
 .debug_macinfo
                0x0017296f     0x914c build\test_u.o

.debug_weaknames
 *(.debug_weaknames)

.debug_funcnames
 *(.debug_funcnames)

.debug_typenames
 *(.debug_typenames)

.debug_varnames
 *(.debug_varnames)
LOAD c:/progra~2/codesourcery/source~1/bin/../lib/gcc/arm-none-eabi/4.6.1/../../../../arm-none-eabi/lib/thumb2\libstdc++.a
LOAD c:/progra~2/codesourcery/source~1/bin/../lib/gcc/arm-none-eabi/4.6.1/../../../../arm-none-eabi/lib/thumb2\libm.a
START GROUP
LOAD c:/progra~2/codesourcery/source~1/bin/../lib/gcc/arm-none-eabi/4.6.1/thumb2\libgcc.a
LOAD c:/progra~2/codesourcery/source~1/bin/../lib/gcc/arm-none-eabi/4.6.1/../../../../arm-none-eabi/lib/thumb2\libc.a
END GROUP
LOAD c:/progra~2/codesourcery/source~1/bin/../lib/gcc/arm-none-eabi/4.6.1/thumb2/crtend.o
LOAD c:/progra~2/codesourcery/source~1/bin/../lib/gcc/arm-none-eabi/4.6.1/thumb2/crtn.o
OUTPUT(build\MB-lpc1768-v3.0.elf elf32-littlearm)

.ARM.attributes
                0x00000000       0x29
 .ARM.attributes
                0x00000000       0x1b c:/progra~2/codesourcery/source~1/bin/../lib/gcc/arm-none-eabi/4.6.1/thumb2/crti.o
 .ARM.attributes
                0x0000001b       0x2b c:/progra~2/codesourcery/source~1/bin/../lib/gcc/arm-none-eabi/4.6.1/thumb2/crtbegin.o
 .ARM.attributes
                0x00000046       0x33 build\system\startup_LPC17xx.o
 .ARM.attributes
                0x00000079       0x33 build\system\syscalls.o
 .ARM.attributes
                0x000000ac       0x33 build\system\system_LPC17xx.o
 .ARM.attributes
                0x000000df       0x33 build\system\mini_cpp.o
 .ARM.attributes
                0x00000112       0x33 build\lib\source\Uart32.o
 .ARM.attributes
                0x00000145       0x33 build\lib\source\lpc17xx_clkpwr.o
 .ARM.attributes
                0x00000178       0x33 build\lib\source\lpc17xx_gpio.o
 .ARM.attributes
                0x000001ab       0x33 build\lib\source\lpc17xx_libcfg_default.o
 .ARM.attributes
                0x000001de       0x33 build\lib\source\lpc17xx_pinsel.o
 .ARM.attributes
                0x00000211       0x33 build\lib\source\lpc17xx_spi.o
 .ARM.attributes
                0x00000244       0x33 build\lib\source\lpc17xx_timer.o
 .ARM.attributes
                0x00000277       0x33 build\lib\source\lpc17xx_uart.o
 .ARM.attributes
                0x000002aa       0x33 build\lib_sd\fat.o
 .ARM.attributes
                0x000002dd       0x33 build\lib_sd\partition.o
 .ARM.attributes
                0x00000310       0x33 build\lib_sd\sd_raw.o
 .ARM.attributes
                0x00000343       0x33 build\IAP_internal_flash_write\IAP.o
 .ARM.attributes
                0x00000376       0x33 build\USBCDC\cdcuser.o
 .ARM.attributes
                0x000003a9       0x33 build\USBCDC\serial.o
 .ARM.attributes
                0x000003dc       0x33 build\USBCDC\usbcore.o
 .ARM.attributes
                0x0000040f       0x33 build\USBCDC\usbdesc.o
 .ARM.attributes
                0x00000442       0x33 build\USBCDC\usbhw.o
 .ARM.attributes
                0x00000475       0x33 build\USBCDC\usbuser.o
 .ARM.attributes
                0x000004a8       0x33 build\USBCDC\vcomdemo.o
 .ARM.attributes
                0x000004db       0x33 build\Atomic.o
 .ARM.attributes
                0x0000050e       0x33 build\ButtonArray.o
 .ARM.attributes
                0x00000541       0x33 build\Command.o
 .ARM.attributes
                0x00000574       0x33 build\DebugPacketProcessor.o
 .ARM.attributes
                0x000005a7       0x33 build\Delay.o
 .ARM.attributes
                0x000005da       0x33 build\EepromMap.o
 .ARM.attributes
                0x0000060d       0x33 build\Host.o
 .ARM.attributes
                0x00000640       0x33 build\Interface.o
 .ARM.attributes
                0x00000673       0x33 build\InterfaceBoard.o
 .ARM.attributes
                0x000006a6       0x33 build\LiquidCrystal.o
 .ARM.attributes
                0x000006d9       0x33 build\Main.o
 .ARM.attributes
                0x0000070c       0x33 build\Menu.o
 .ARM.attributes
                0x0000073f       0x33 build\Motherboard.o
 .ARM.attributes
                0x00000772       0x33 build\Packet.o
 .ARM.attributes
                0x000007a5       0x33 build\SDCard.o
 .ARM.attributes
                0x000007d8       0x33 build\StepperAxis.o
 .ARM.attributes
                0x0000080b       0x33 build\StepperInterface.o
 .ARM.attributes
                0x0000083e       0x33 build\Steppers.o
 .ARM.attributes
                0x00000871       0x33 build\Timeout.o
 .ARM.attributes
                0x000008a4       0x33 build\Tool.o
 .ARM.attributes
                0x000008d7       0x33 build\UART.o
 .ARM.attributes
                0x0000090a       0x33 build\test_u.o
 .ARM.attributes
                0x0000093d       0x2b c:/progra~2/codesourcery/source~1/bin/../lib/gcc/arm-none-eabi/4.6.1/../../../../arm-none-eabi/lib/thumb2\libstdc++.a(si_class_type_info.o)
 .ARM.attributes
                0x00000968       0x2b c:/progra~2/codesourcery/source~1/bin/../lib/gcc/arm-none-eabi/4.6.1/../../../../arm-none-eabi/lib/thumb2\libstdc++.a(pure.o)
 .ARM.attributes
                0x00000993       0x2b c:/progra~2/codesourcery/source~1/bin/../lib/gcc/arm-none-eabi/4.6.1/../../../../arm-none-eabi/lib/thumb2\libstdc++.a(eh_terminate.o)
 .ARM.attributes
                0x000009be       0x2b c:/progra~2/codesourcery/source~1/bin/../lib/gcc/arm-none-eabi/4.6.1/../../../../arm-none-eabi/lib/thumb2\libstdc++.a(class_type_info.o)
 .ARM.attributes
                0x000009e9       0x2b c:/progra~2/codesourcery/source~1/bin/../lib/gcc/arm-none-eabi/4.6.1/../../../../arm-none-eabi/lib/thumb2\libstdc++.a(eh_unex_handler.o)
 .ARM.attributes
                0x00000a14       0x2b c:/progra~2/codesourcery/source~1/bin/../lib/gcc/arm-none-eabi/4.6.1/../../../../arm-none-eabi/lib/thumb2\libstdc++.a(eh_call.o)
 .ARM.attributes
                0x00000a3f       0x2b c:/progra~2/codesourcery/source~1/bin/../lib/gcc/arm-none-eabi/4.6.1/../../../../arm-none-eabi/lib/thumb2\libstdc++.a(eh_throw.o)
 .ARM.attributes
                0x00000a6a       0x2b c:/progra~2/codesourcery/source~1/bin/../lib/gcc/arm-none-eabi/4.6.1/../../../../arm-none-eabi/lib/thumb2\libstdc++.a(eh_arm.o)
 .ARM.attributes
                0x00000a95       0x2b c:/progra~2/codesourcery/source~1/bin/../lib/gcc/arm-none-eabi/4.6.1/../../../../arm-none-eabi/lib/thumb2\libstdc++.a(eh_exception.o)
 .ARM.attributes
                0x00000ac0       0x2b c:/progra~2/codesourcery/source~1/bin/../lib/gcc/arm-none-eabi/4.6.1/../../../../arm-none-eabi/lib/thumb2\libstdc++.a(eh_alloc.o)
 .ARM.attributes
                0x00000aeb       0x2b c:/progra~2/codesourcery/source~1/bin/../lib/gcc/arm-none-eabi/4.6.1/../../../../arm-none-eabi/lib/thumb2\libstdc++.a(eh_globals.o)
 .ARM.attributes
                0x00000b16       0x2b c:/progra~2/codesourcery/source~1/bin/../lib/gcc/arm-none-eabi/4.6.1/../../../../arm-none-eabi/lib/thumb2\libstdc++.a(tinfo.o)
 .ARM.attributes
                0x00000b41       0x2b c:/progra~2/codesourcery/source~1/bin/../lib/gcc/arm-none-eabi/4.6.1/../../../../arm-none-eabi/lib/thumb2\libstdc++.a(eh_term_handler.o)
 .ARM.attributes
                0x00000b6c       0x2b c:/progra~2/codesourcery/source~1/bin/../lib/gcc/arm-none-eabi/4.6.1/../../../../arm-none-eabi/lib/thumb2\libstdc++.a(eh_catch.o)
 .ARM.attributes
                0x00000b97       0x2b c:/progra~2/codesourcery/source~1/bin/../lib/gcc/arm-none-eabi/4.6.1/../../../../arm-none-eabi/lib/thumb2\libstdc++.a(vterminate.o)
 .ARM.attributes
                0x00000bc2       0x2b c:/progra~2/codesourcery/source~1/bin/../lib/gcc/arm-none-eabi/4.6.1/../../../../arm-none-eabi/lib/thumb2\libstdc++.a(cp-demangle.o)
 .ARM.attributes
                0x00000bed       0x2b c:/progra~2/codesourcery/source~1/bin/../lib/gcc/arm-none-eabi/4.6.1/../../../../arm-none-eabi/lib/thumb2\libstdc++.a(eh_type.o)
 .ARM.attributes
                0x00000c18       0x1b c:/progra~2/codesourcery/source~1/bin/../lib/gcc/arm-none-eabi/4.6.1/thumb2\libgcc.a(_aeabi_uldivmod.o)
 .ARM.attributes
                0x00000c33       0x2b c:/progra~2/codesourcery/source~1/bin/../lib/gcc/arm-none-eabi/4.6.1/thumb2\libgcc.a(bpabi.o)
 .ARM.attributes
                0x00000c5e       0x2b c:/progra~2/codesourcery/source~1/bin/../lib/gcc/arm-none-eabi/4.6.1/thumb2\libgcc.a(unwind-arm.o)
 .ARM.attributes
                0x00000c89       0x1b c:/progra~2/codesourcery/source~1/bin/../lib/gcc/arm-none-eabi/4.6.1/thumb2\libgcc.a(libunwind.o)
 .ARM.attributes
                0x00000ca4       0x2b c:/progra~2/codesourcery/source~1/bin/../lib/gcc/arm-none-eabi/4.6.1/thumb2\libgcc.a(pr-support.o)
 .ARM.attributes
                0x00000ccf       0x1b c:/progra~2/codesourcery/source~1/bin/../lib/gcc/arm-none-eabi/4.6.1/thumb2\libgcc.a(_dvmd_tls.o)
 .ARM.attributes
                0x00000cea       0x2b c:/progra~2/codesourcery/source~1/bin/../lib/gcc/arm-none-eabi/4.6.1/thumb2\libgcc.a(_divdi3.o)
 .ARM.attributes
                0x00000d15       0x2b c:/progra~2/codesourcery/source~1/bin/../lib/gcc/arm-none-eabi/4.6.1/thumb2\libgcc.a(_udivdi3.o)
 .ARM.attributes
                0x00000d40       0x1b c:/progra~2/codesourcery/source~1/bin/../lib/gcc/arm-none-eabi/4.6.1/thumb2\libgcc.a(_udivsi3.o)
 .ARM.attributes
                0x00000d5b       0x2b c:/progra~2/codesourcery/source~1/bin/../lib/gcc/arm-none-eabi/4.6.1/../../../../arm-none-eabi/lib/thumb2\libc.a(lib_a-abort.o)
 .ARM.attributes
                0x00000d86       0x2b c:/progra~2/codesourcery/source~1/bin/../lib/gcc/arm-none-eabi/4.6.1/../../../../arm-none-eabi/lib/thumb2\libc.a(lib_a-fputc.o)
 .ARM.attributes
                0x00000db1       0x2b c:/progra~2/codesourcery/source~1/bin/../lib/gcc/arm-none-eabi/4.6.1/../../../../arm-none-eabi/lib/thumb2\libc.a(lib_a-fputs.o)
 .ARM.attributes
                0x00000ddc       0x2b c:/progra~2/codesourcery/source~1/bin/../lib/gcc/arm-none-eabi/4.6.1/../../../../arm-none-eabi/lib/thumb2\libc.a(lib_a-fvwrite.o)
 .ARM.attributes
                0x00000e07       0x2b c:/progra~2/codesourcery/source~1/bin/../lib/gcc/arm-none-eabi/4.6.1/../../../../arm-none-eabi/lib/thumb2\libc.a(lib_a-fwrite.o)
 .ARM.attributes
                0x00000e32       0x2b c:/progra~2/codesourcery/source~1/bin/../lib/gcc/arm-none-eabi/4.6.1/../../../../arm-none-eabi/lib/thumb2\libc.a(lib_a-impure.o)
 .ARM.attributes
                0x00000e5d       0x2b c:/progra~2/codesourcery/source~1/bin/../lib/gcc/arm-none-eabi/4.6.1/../../../../arm-none-eabi/lib/thumb2\libc.a(lib_a-init.o)
 .ARM.attributes
                0x00000e88       0x2b c:/progra~2/codesourcery/source~1/bin/../lib/gcc/arm-none-eabi/4.6.1/../../../../arm-none-eabi/lib/thumb2\libc.a(lib_a-malloc.o)
 .ARM.attributes
                0x00000eb3       0x2b c:/progra~2/codesourcery/source~1/bin/../lib/gcc/arm-none-eabi/4.6.1/../../../../arm-none-eabi/lib/thumb2\libc.a(lib_a-mallocr.o)
 .ARM.attributes
                0x00000ede       0x2b c:/progra~2/codesourcery/source~1/bin/../lib/gcc/arm-none-eabi/4.6.1/../../../../arm-none-eabi/lib/thumb2\libc.a(lib_a-memchr.o)
 .ARM.attributes
                0x00000f09       0x2b c:/progra~2/codesourcery/source~1/bin/../lib/gcc/arm-none-eabi/4.6.1/../../../../arm-none-eabi/lib/thumb2\libc.a(lib_a-memcmp.o)
 .ARM.attributes
                0x00000f34       0x2b c:/progra~2/codesourcery/source~1/bin/../lib/gcc/arm-none-eabi/4.6.1/../../../../arm-none-eabi/lib/thumb2\libc.a(lib_a-memcpy.o)
 .ARM.attributes
                0x00000f5f       0x2b c:/progra~2/codesourcery/source~1/bin/../lib/gcc/arm-none-eabi/4.6.1/../../../../arm-none-eabi/lib/thumb2\libc.a(lib_a-memmove.o)
 .ARM.attributes
                0x00000f8a       0x2b c:/progra~2/codesourcery/source~1/bin/../lib/gcc/arm-none-eabi/4.6.1/../../../../arm-none-eabi/lib/thumb2\libc.a(lib_a-memset.o)
 .ARM.attributes
                0x00000fb5       0x2b c:/progra~2/codesourcery/source~1/bin/../lib/gcc/arm-none-eabi/4.6.1/../../../../arm-none-eabi/lib/thumb2\libc.a(lib_a-mlock.o)
 .ARM.attributes
                0x00000fe0       0x2b c:/progra~2/codesourcery/source~1/bin/../lib/gcc/arm-none-eabi/4.6.1/../../../../arm-none-eabi/lib/thumb2\libc.a(lib_a-putc.o)
 .ARM.attributes
                0x0000100b       0x2b c:/progra~2/codesourcery/source~1/bin/../lib/gcc/arm-none-eabi/4.6.1/../../../../arm-none-eabi/lib/thumb2\libc.a(lib_a-rand.o)
 .ARM.attributes
                0x00001036       0x2b c:/progra~2/codesourcery/source~1/bin/../lib/gcc/arm-none-eabi/4.6.1/../../../../arm-none-eabi/lib/thumb2\libc.a(lib_a-realloc.o)
 .ARM.attributes
                0x00001061       0x2b c:/progra~2/codesourcery/source~1/bin/../lib/gcc/arm-none-eabi/4.6.1/../../../../arm-none-eabi/lib/thumb2\libc.a(lib_a-reallocr.o)
 .ARM.attributes
                0x0000108c       0x2b c:/progra~2/codesourcery/source~1/bin/../lib/gcc/arm-none-eabi/4.6.1/../../../../arm-none-eabi/lib/thumb2\libc.a(lib_a-reent.o)
 .ARM.attributes
                0x000010b7       0x2b c:/progra~2/codesourcery/source~1/bin/../lib/gcc/arm-none-eabi/4.6.1/../../../../arm-none-eabi/lib/thumb2\libc.a(lib_a-sbrkr.o)
 .ARM.attributes
                0x000010e2       0x2b c:/progra~2/codesourcery/source~1/bin/../lib/gcc/arm-none-eabi/4.6.1/../../../../arm-none-eabi/lib/thumb2\libc.a(lib_a-signal.o)
 .ARM.attributes
                0x0000110d       0x2b c:/progra~2/codesourcery/source~1/bin/../lib/gcc/arm-none-eabi/4.6.1/../../../../arm-none-eabi/lib/thumb2\libc.a(lib_a-signalr.o)
 .ARM.attributes
                0x00001138       0x2b c:/progra~2/codesourcery/source~1/bin/../lib/gcc/arm-none-eabi/4.6.1/../../../../arm-none-eabi/lib/thumb2\libc.a(lib_a-sprintf.o)
 .ARM.attributes
                0x00001163       0x2b c:/progra~2/codesourcery/source~1/bin/../lib/gcc/arm-none-eabi/4.6.1/../../../../arm-none-eabi/lib/thumb2\libc.a(lib_a-strchr.o)
 .ARM.attributes
                0x0000118e       0x2b c:/progra~2/codesourcery/source~1/bin/../lib/gcc/arm-none-eabi/4.6.1/../../../../arm-none-eabi/lib/thumb2\libc.a(lib_a-strcmp.o)
 .ARM.attributes
                0x000011b9       0x2b c:/progra~2/codesourcery/source~1/bin/../lib/gcc/arm-none-eabi/4.6.1/../../../../arm-none-eabi/lib/thumb2\libc.a(lib_a-strcpy.o)
 .ARM.attributes
                0x000011e4       0x2b c:/progra~2/codesourcery/source~1/bin/../lib/gcc/arm-none-eabi/4.6.1/../../../../arm-none-eabi/lib/thumb2\libc.a(lib_a-strlen.o)
 .ARM.attributes
                0x0000120f       0x2b c:/progra~2/codesourcery/source~1/bin/../lib/gcc/arm-none-eabi/4.6.1/../../../../arm-none-eabi/lib/thumb2\libc.a(lib_a-strncmp.o)
 .ARM.attributes
                0x0000123a       0x2b c:/progra~2/codesourcery/source~1/bin/../lib/gcc/arm-none-eabi/4.6.1/../../../../arm-none-eabi/lib/thumb2\libc.a(lib_a-strncpy.o)
 .ARM.attributes
                0x00001265       0x2b c:/progra~2/codesourcery/source~1/bin/../lib/gcc/arm-none-eabi/4.6.1/../../../../arm-none-eabi/lib/thumb2\libc.a(lib_a-strrchr.o)
 .ARM.attributes
                0x00001290       0x2b c:/progra~2/codesourcery/source~1/bin/../lib/gcc/arm-none-eabi/4.6.1/../../../../arm-none-eabi/lib/thumb2\libc.a(lib_a-svfprintf.o)
 .ARM.attributes
                0x000012bb       0x2b c:/progra~2/codesourcery/source~1/bin/../lib/gcc/arm-none-eabi/4.6.1/../../../../arm-none-eabi/lib/thumb2\libc.a(lib_a-syswrite.o)
 .ARM.attributes
                0x000012e6       0x2b c:/progra~2/codesourcery/source~1/bin/../lib/gcc/arm-none-eabi/4.6.1/../../../../arm-none-eabi/lib/thumb2\libc.a(lib_a-wbuf.o)
 .ARM.attributes
                0x00001311       0x2b c:/progra~2/codesourcery/source~1/bin/../lib/gcc/arm-none-eabi/4.6.1/../../../../arm-none-eabi/lib/thumb2\libc.a(lib_a-writer.o)
 .ARM.attributes
                0x0000133c       0x2b c:/progra~2/codesourcery/source~1/bin/../lib/gcc/arm-none-eabi/4.6.1/../../../../arm-none-eabi/lib/thumb2\libc.a(lib_a-wsetup.o)
 .ARM.attributes
                0x00001367       0x2b c:/progra~2/codesourcery/source~1/bin/../lib/gcc/arm-none-eabi/4.6.1/../../../../arm-none-eabi/lib/thumb2\libc.a(lib_a-dtoa.o)
 .ARM.attributes
                0x00001392       0x2b c:/progra~2/codesourcery/source~1/bin/../lib/gcc/arm-none-eabi/4.6.1/../../../../arm-none-eabi/lib/thumb2\libc.a(lib_a-fflush.o)
 .ARM.attributes
                0x000013bd       0x2b c:/progra~2/codesourcery/source~1/bin/../lib/gcc/arm-none-eabi/4.6.1/../../../../arm-none-eabi/lib/thumb2\libc.a(lib_a-findfp.o)
 .ARM.attributes
                0x000013e8       0x2b c:/progra~2/codesourcery/source~1/bin/../lib/gcc/arm-none-eabi/4.6.1/../../../../arm-none-eabi/lib/thumb2\libc.a(lib_a-freer.o)
 .ARM.attributes
                0x00001413       0x2b c:/progra~2/codesourcery/source~1/bin/../lib/gcc/arm-none-eabi/4.6.1/../../../../arm-none-eabi/lib/thumb2\libc.a(lib_a-fwalk.o)
 .ARM.attributes
                0x0000143e       0x2b c:/progra~2/codesourcery/source~1/bin/../lib/gcc/arm-none-eabi/4.6.1/../../../../arm-none-eabi/lib/thumb2\libc.a(lib_a-locale.o)
 .ARM.attributes
                0x00001469       0x2b c:/progra~2/codesourcery/source~1/bin/../lib/gcc/arm-none-eabi/4.6.1/../../../../arm-none-eabi/lib/thumb2\libc.a(lib_a-makebuf.o)
 .ARM.attributes
                0x00001494       0x2b c:/progra~2/codesourcery/source~1/bin/../lib/gcc/arm-none-eabi/4.6.1/../../../../arm-none-eabi/lib/thumb2\libc.a(lib_a-mprec.o)
 .ARM.attributes
                0x000014bf       0x2b c:/progra~2/codesourcery/source~1/bin/../lib/gcc/arm-none-eabi/4.6.1/../../../../arm-none-eabi/lib/thumb2\libc.a(lib_a-s_fpclassify.o)
 .ARM.attributes
                0x000014ea       0x2b c:/progra~2/codesourcery/source~1/bin/../lib/gcc/arm-none-eabi/4.6.1/../../../../arm-none-eabi/lib/thumb2\libc.a(lib_a-stdio.o)
 .ARM.attributes
                0x00001515       0x2b c:/progra~2/codesourcery/source~1/bin/../lib/gcc/arm-none-eabi/4.6.1/../../../../arm-none-eabi/lib/thumb2\libc.a(lib_a-svfiprintf.o)
 .ARM.attributes
                0x00001540       0x2b c:/progra~2/codesourcery/source~1/bin/../lib/gcc/arm-none-eabi/4.6.1/../../../../arm-none-eabi/lib/thumb2\libc.a(lib_a-callocr.o)
 .ARM.attributes
                0x0000156b       0x2b c:/progra~2/codesourcery/source~1/bin/../lib/gcc/arm-none-eabi/4.6.1/../../../../arm-none-eabi/lib/thumb2\libc.a(lib_a-closer.o)
 .ARM.attributes
                0x00001596       0x2b c:/progra~2/codesourcery/source~1/bin/../lib/gcc/arm-none-eabi/4.6.1/../../../../arm-none-eabi/lib/thumb2\libc.a(lib_a-fclose.o)
 .ARM.attributes
                0x000015c1       0x2b c:/progra~2/codesourcery/source~1/bin/../lib/gcc/arm-none-eabi/4.6.1/../../../../arm-none-eabi/lib/thumb2\libc.a(lib_a-fstatr.o)
 .ARM.attributes
                0x000015ec       0x2b c:/progra~2/codesourcery/source~1/bin/../lib/gcc/arm-none-eabi/4.6.1/../../../../arm-none-eabi/lib/thumb2\libc.a(lib_a-isattyr.o)
 .ARM.attributes
                0x00001617       0x2b c:/progra~2/codesourcery/source~1/bin/../lib/gcc/arm-none-eabi/4.6.1/../../../../arm-none-eabi/lib/thumb2\libc.a(lib_a-lseekr.o)
 .ARM.attributes
                0x00001642       0x2b c:/progra~2/codesourcery/source~1/bin/../lib/gcc/arm-none-eabi/4.6.1/../../../../arm-none-eabi/lib/thumb2\libc.a(lib_a-readr.o)
 .ARM.attributes
                0x0000166d       0x1b c:/progra~2/codesourcery/source~1/bin/../lib/gcc/arm-none-eabi/4.6.1/thumb2\libgcc.a(_arm_addsubdf3.o)
 .ARM.attributes
                0x00001688       0x1b c:/progra~2/codesourcery/source~1/bin/../lib/gcc/arm-none-eabi/4.6.1/thumb2\libgcc.a(_arm_muldivdf3.o)
 .ARM.attributes
                0x000016a3       0x1b c:/progra~2/codesourcery/source~1/bin/../lib/gcc/arm-none-eabi/4.6.1/thumb2\libgcc.a(_arm_cmpdf2.o)
 .ARM.attributes
                0x000016be       0x1b c:/progra~2/codesourcery/source~1/bin/../lib/gcc/arm-none-eabi/4.6.1/thumb2\libgcc.a(_arm_fixdfsi.o)
 .ARM.attributes
                0x000016d9       0x1b c:/progra~2/codesourcery/source~1/bin/../lib/gcc/arm-none-eabi/4.6.1/thumb2/crtn.o

.comment        0x00000000       0x30
 .comment       0x00000000       0x30 build\system\startup_LPC17xx.o
                                 0x31 (size before relaxing)
 .comment       0x00000000       0x31 build\system\syscalls.o
 .comment       0x00000000       0x31 build\system\system_LPC17xx.o
 .comment       0x00000000       0x31 build\system\mini_cpp.o
 .comment       0x00000000       0x31 build\lib\source\Uart32.o
 .comment       0x00000000       0x31 build\lib\source\lpc17xx_clkpwr.o
 .comment       0x00000000       0x31 build\lib\source\lpc17xx_gpio.o
 .comment       0x00000000       0x31 build\lib\source\lpc17xx_libcfg_default.o
 .comment       0x00000000       0x31 build\lib\source\lpc17xx_pinsel.o
 .comment       0x00000000       0x31 build\lib\source\lpc17xx_spi.o
 .comment       0x00000000       0x31 build\lib\source\lpc17xx_timer.o
 .comment       0x00000000       0x31 build\lib\source\lpc17xx_uart.o
 .comment       0x00000000       0x31 build\lib_sd\fat.o
 .comment       0x00000000       0x31 build\lib_sd\partition.o
 .comment       0x00000000       0x31 build\lib_sd\sd_raw.o
 .comment       0x00000000       0x31 build\IAP_internal_flash_write\IAP.o
 .comment       0x00000000       0x31 build\USBCDC\cdcuser.o
 .comment       0x00000000       0x31 build\USBCDC\serial.o
 .comment       0x00000000       0x31 build\USBCDC\usbcore.o
 .comment       0x00000000       0x31 build\USBCDC\usbdesc.o
 .comment       0x00000000       0x31 build\USBCDC\usbhw.o
 .comment       0x00000000       0x31 build\USBCDC\usbuser.o
 .comment       0x00000000       0x31 build\USBCDC\vcomdemo.o
 .comment       0x00000000       0x31 build\Atomic.o
 .comment       0x00000000       0x31 build\ButtonArray.o
 .comment       0x00000000       0x31 build\Command.o
 .comment       0x00000000       0x31 build\DebugPacketProcessor.o
 .comment       0x00000000       0x31 build\Delay.o
 .comment       0x00000000       0x31 build\EepromMap.o
 .comment       0x00000000       0x31 build\Host.o
 .comment       0x00000000       0x31 build\Interface.o
 .comment       0x00000000       0x31 build\InterfaceBoard.o
 .comment       0x00000000       0x31 build\LiquidCrystal.o
 .comment       0x00000000       0x31 build\Main.o
 .comment       0x00000000       0x31 build\Menu.o
 .comment       0x00000000       0x31 build\Motherboard.o
 .comment       0x00000000       0x31 build\Packet.o
 .comment       0x00000000       0x31 build\SDCard.o
 .comment       0x00000000       0x31 build\StepperAxis.o
 .comment       0x00000000       0x31 build\StepperInterface.o
 .comment       0x00000000       0x31 build\Steppers.o
 .comment       0x00000000       0x31 build\Timeout.o
 .comment       0x00000000       0x31 build\Tool.o
 .comment       0x00000000       0x31 build\UART.o
 .comment       0x00000000       0x31 build\test_u.o

.debug_ranges   0x00000000      0x6d0
 .debug_ranges  0x00000000       0x80 build\lib_sd\fat.o
 .debug_ranges  0x00000080       0x18 build\lib_sd\sd_raw.o
 .debug_ranges  0x00000098       0x18 build\ButtonArray.o
 .debug_ranges  0x000000b0       0x98 build\Command.o
 .debug_ranges  0x00000148       0x28 build\DebugPacketProcessor.o
 .debug_ranges  0x00000170       0x18 build\EepromMap.o
 .debug_ranges  0x00000188      0x108 build\Host.o
 .debug_ranges  0x00000290       0x58 build\Interface.o
 .debug_ranges  0x000002e8       0x38 build\InterfaceBoard.o
 .debug_ranges  0x00000320       0x68 build\LiquidCrystal.o
 .debug_ranges  0x00000388       0x50 build\Main.o
 .debug_ranges  0x000003d8       0xa0 build\Menu.o
 .debug_ranges  0x00000478       0x78 build\Motherboard.o
 .debug_ranges  0x000004f0       0x20 build\Packet.o
 .debug_ranges  0x00000510       0x38 build\SDCard.o
 .debug_ranges  0x00000548       0x20 build\StepperAxis.o
 .debug_ranges  0x00000568       0x58 build\StepperInterface.o
 .debug_ranges  0x000005c0       0x30 build\Steppers.o
 .debug_ranges  0x000005f0       0x20 build\Timeout.o
 .debug_ranges  0x00000610       0x50 build\Tool.o
 .debug_ranges  0x00000660       0x70 build\UART.o

Cross Reference Table

Symbol                                            File
ADC_BurstCmd                                      build\lib\source\lpc17xx_adc.o
ADC_ChannelCmd                                    build\lib\source\lpc17xx_adc.o
ADC_ChannelGetData                                build\lib\source\lpc17xx_adc.o
ADC_ChannelGetStatus                              build\lib\source\lpc17xx_adc.o
ADC_DeInit                                        build\lib\source\lpc17xx_adc.o
ADC_EdgeStartConfig                               build\lib\source\lpc17xx_adc.o
ADC_GetData                                       build\lib\source\lpc17xx_adc.o
ADC_GlobalGetData                                 build\lib\source\lpc17xx_adc.o
ADC_GlobalGetStatus                               build\lib\source\lpc17xx_adc.o
ADC_IRQHandler                                    build\system\startup_LPC17xx.o
ADC_Init                                          build\lib\source\lpc17xx_adc.o
ADC_IntConfig                                     build\lib\source\lpc17xx_adc.o
ADC_PowerdownCmd                                  build\lib\source\lpc17xx_adc.o
ADC_StartCmd                                      build\lib\source\lpc17xx_adc.o
A_MS1                                             build\EepromMap.o
A_MS2                                             build\EepromMap.o
A_MS3                                             build\EepromMap.o
Atomic(EN_DIS_INT)                                build\Atomic.o
                                                  build\Main.o
                                                  build\Host.o
                                                  build\EepromMap.o
                                                  build\ButtonArray.o
BOD_IRQHandler                                    build\system\startup_LPC17xx.o
B_MS1                                             build\EepromMap.o
B_MS2                                             build\EepromMap.o
B_MS3                                             build\EepromMap.o
BulkBufIn                                         build\USBCDC\cdcuser.o
BulkBufOut                                        build\USBCDC\cdcuser.o
BusFault_Handler                                  build\system\startup_LPC17xx.o
ButtonArray::getButton(ButtonArray::ButtonName&)  build\ButtonArray.o
                                                  build\InterfaceBoard.o
ButtonArray::init()                               build\ButtonArray.o
                                                  build\InterfaceBoard.o
ButtonArray::scanButtons()                        build\ButtonArray.o
                                                  build\InterfaceBoard.o
CANActivity_IRQHandler                            build\UART.o
CAN_IRQHandler                                    build\system\startup_LPC17xx.o
CDC_BulkIn                                        build\USBCDC\cdcuser.o
                                                  build\USBCDC\usbuser.o
CDC_BulkOut                                       build\USBCDC\cdcuser.o
                                                  build\USBCDC\usbuser.o
CDC_ClearCommFeature                              build\USBCDC\cdcuser.o
                                                  build\USBCDC\usbcore.o
CDC_DepInEmpty                                    build\USBCDC\cdcuser.o
CDC_GetCommFeature                                build\USBCDC\cdcuser.o
                                                  build\USBCDC\usbcore.o
CDC_GetEncapsulatedResponse                       build\USBCDC\cdcuser.o
                                                  build\USBCDC\usbcore.o
CDC_GetLineCoding                                 build\USBCDC\cdcuser.o
                                                  build\USBCDC\usbcore.o
CDC_GetSerialState                                build\USBCDC\cdcuser.o
                                                  build\USBCDC\usbuser.o
CDC_LineCoding                                    build\USBCDC\cdcuser.o
CDC_NotificationIn                                build\USBCDC\cdcuser.o
                                                  build\USBCDC\usbuser.o
CDC_OutBuf                                        build\USBCDC\cdcuser.o
CDC_OutBufAvailChar                               build\USBCDC\cdcuser.o
CDC_RdOutBuf                                      build\USBCDC\cdcuser.o
CDC_SendBreak                                     build\USBCDC\cdcuser.o
                                                  build\USBCDC\usbcore.o
CDC_SendEncapsulatedCommand                       build\USBCDC\cdcuser.o
                                                  build\USBCDC\usbcore.o
CDC_SerialState                                   build\USBCDC\cdcuser.o
CDC_SetCommFeature                                build\USBCDC\cdcuser.o
                                                  build\USBCDC\usbcore.o
CDC_SetControlLineState                           build\USBCDC\cdcuser.o
                                                  build\USBCDC\usbcore.o
CDC_SetLineCoding                                 build\USBCDC\cdcuser.o
                                                  build\USBCDC\usbcore.o
CDC_WrOutBuf                                      build\USBCDC\cdcuser.o
CLKPWR_ConfigPPWR                                 build\lib\source\lpc17xx_clkpwr.o
                                                  build\lib\source\lpc17xx_uart.o
                                                  build\lib\source\lpc17xx_timer.o
                                                  build\lib\source\lpc17xx_spi.o
                                                  build\lib\source\lpc17xx_i2c.o
                                                  build\lib\source\lpc17xx_adc.o
CLKPWR_DeepPowerDown                              build\lib\source\lpc17xx_clkpwr.o
CLKPWR_DeepSleep                                  build\lib\source\lpc17xx_clkpwr.o
CLKPWR_GetPCLK                                    build\lib\source\lpc17xx_clkpwr.o
                                                  build\lib\source\lpc17xx_uart.o
                                                  build\lib\source\lpc17xx_timer.o
                                                  build\lib\source\lpc17xx_spi.o
                                                  build\lib\source\lpc17xx_i2c.o
                                                  build\lib\source\lpc17xx_adc.o
CLKPWR_GetPCLKSEL                                 build\lib\source\lpc17xx_clkpwr.o
CLKPWR_PowerDown                                  build\lib\source\lpc17xx_clkpwr.o
CLKPWR_SetPCLKDiv                                 build\lib\source\lpc17xx_clkpwr.o
                                                  build\lib\source\lpc17xx_timer.o
                                                  build\lib\source\lpc17xx_i2c.o
CLKPWR_Sleep                                      build\lib\source\lpc17xx_clkpwr.o
CancelBuildMenu::CancelBuildMenu()                build\Menu.o
CancelBuildMenu::CancelBuildMenu()                build\Menu.o
                                                  build\Motherboard.o
CancelBuildMenu::drawItem(unsigned char, LiquidCrystal&) build\Menu.o
CancelBuildMenu::handleSelect(unsigned char)      build\Menu.o
CancelBuildMenu::resetState()                     build\Menu.o
CircularBufferTempl<unsigned char>::CircularBufferTempl(unsigned short, unsigned char*) build\Command.o
CircularBufferTempl<unsigned char>::CircularBufferTempl(unsigned short, unsigned char*) build\Command.o
CircularBufferTempl<unsigned char>::getLength() const build\Command.o
CircularBufferTempl<unsigned char>::getRemainingCapacity() const build\Command.o
CircularBufferTempl<unsigned char>::isEmpty() const build\Command.o
CircularBufferTempl<unsigned char>::operator[](unsigned short) build\Command.o
CircularBufferTempl<unsigned char>::pop()         build\Command.o
CircularBufferTempl<unsigned char>::push(unsigned char) build\Command.o
CircularBufferTempl<unsigned char>::reset()       build\Command.o
DLL_0                                             build\USBCDC\vcomdemo.o
                                                  build\USBCDC\serial.o
                                                  build\USBCDC\cdcuser.o
DLM_0                                             build\USBCDC\vcomdemo.o
                                                  build\USBCDC\serial.o
                                                  build\USBCDC\cdcuser.o
DMA_IRQHandler                                    build\system\startup_LPC17xx.o
DebugMon_Handler                                  build\system\startup_LPC17xx.o
Default_Handler                                   build\system\startup_LPC17xx.o
EINT0_IRQHandler                                  build\system\startup_LPC17xx.o
EINT1_IRQHandler                                  build\system\startup_LPC17xx.o
EINT2_IRQHandler                                  build\system\startup_LPC17xx.o
EINT3_IRQHandler                                  build\system\startup_LPC17xx.o
ENET_IRQHandler                                   build\system\startup_LPC17xx.o
EP0Buf                                            build\USBCDC\usbcore.o
                                                  build\USBCDC\cdcuser.o
EP0Data                                           build\USBCDC\usbcore.o
EPAdr                                             build\USBCDC\usbhw.o
FCR_0                                             build\USBCDC\vcomdemo.o
                                                  build\USBCDC\serial.o
                                                  build\USBCDC\cdcuser.o
FDR_0                                             build\USBCDC\vcomdemo.o
                                                  build\USBCDC\serial.o
                                                  build\USBCDC\cdcuser.o
FIO_ByteClearValue                                build\lib\source\lpc17xx_gpio.o
FIO_ByteReadValue                                 build\lib\source\lpc17xx_gpio.o
FIO_ByteSetDir                                    build\lib\source\lpc17xx_gpio.o
FIO_ByteSetMask                                   build\lib\source\lpc17xx_gpio.o
FIO_ByteSetValue                                  build\lib\source\lpc17xx_gpio.o
FIO_ClearInt                                      build\lib\source\lpc17xx_gpio.o
FIO_ClearValue                                    build\lib\source\lpc17xx_gpio.o
FIO_GetIntStatus                                  build\lib\source\lpc17xx_gpio.o
FIO_HalfWordClearValue                            build\lib\source\lpc17xx_gpio.o
FIO_HalfWordReadValue                             build\lib\source\lpc17xx_gpio.o
FIO_HalfWordSetDir                                build\lib\source\lpc17xx_gpio.o
FIO_HalfWordSetMask                               build\lib\source\lpc17xx_gpio.o
FIO_HalfWordSetValue                              build\lib\source\lpc17xx_gpio.o
FIO_IntCmd                                        build\lib\source\lpc17xx_gpio.o
FIO_ReadValue                                     build\lib\source\lpc17xx_gpio.o
FIO_SetDir                                        build\lib\source\lpc17xx_gpio.o
FIO_SetMask                                       build\lib\source\lpc17xx_gpio.o
                                                  build\lib_sd\sd_raw.o
FIO_SetValue                                      build\lib\source\lpc17xx_gpio.o
GPIO_ClearInt                                     build\lib\source\lpc17xx_gpio.o
GPIO_ClearValue                                   build\lib\source\lpc17xx_gpio.o
                                                  build\UART.o
                                                  build\StepperInterface.o
                                                  build\Motherboard.o
                                                  build\Main.o
                                                  build\LiquidCrystal.o
                                                  build\InterfaceBoard.o
                                                  build\Interface.o
                                                  build\lib_sd\sd_raw.o
GPIO_GetDir                                       build\lib\source\lpc17xx_gpio.o
                                                  build\UART.o
                                                  build\StepperInterface.o
                                                  build\Main.o
                                                  build\LiquidCrystal.o
                                                  build\InterfaceBoard.o
                                                  build\Interface.o
GPIO_GetIntStatus                                 build\lib\source\lpc17xx_gpio.o
GPIO_IntCmd                                       build\lib\source\lpc17xx_gpio.o
GPIO_ReadValue                                    build\lib\source\lpc17xx_gpio.o
                                                  build\StepperInterface.o
                                                  build\Interface.o
                                                  build\lib_sd\sd_raw.o
GPIO_SetDir                                       build\lib\source\lpc17xx_gpio.o
                                                  build\UART.o
                                                  build\StepperInterface.o
                                                  build\Main.o
                                                  build\LiquidCrystal.o
                                                  build\InterfaceBoard.o
                                                  build\Interface.o
                                                  build\lib_sd\sd_raw.o
GPIO_SetValue                                     build\lib\source\lpc17xx_gpio.o
                                                  build\UART.o
                                                  build\StepperInterface.o
                                                  build\Motherboard.o
                                                  build\Main.o
                                                  build\LiquidCrystal.o
                                                  build\InterfaceBoard.o
                                                  build\Interface.o
                                                  build\lib_sd\sd_raw.o
HardFault_Handler                                 build\system\startup_LPC17xx.o
I2C0_IRQHandler                                   build\system\startup_LPC17xx.o
I2C1_IRQHandler                                   build\system\startup_LPC17xx.o
I2C2_IRQHandler                                   build\system\startup_LPC17xx.o
I2C_Cmd                                           build\lib\source\lpc17xx_i2c.o
                                                  build\Microsteps.o
I2C_DeInit                                        build\lib\source\lpc17xx_i2c.o
I2C_Init                                          build\lib\source\lpc17xx_i2c.o
                                                  build\Microsteps.o
I2C_IntCmd                                        build\lib\source\lpc17xx_i2c.o
I2C_MasterHandler                                 build\lib\source\lpc17xx_i2c.o
I2C_MasterTransferComplete                        build\lib\source\lpc17xx_i2c.o
I2C_MasterTransferData                            build\lib\source\lpc17xx_i2c.o
                                                  build\Microsteps.o
I2C_MonitorGetDatabuffer                          build\lib\source\lpc17xx_i2c.o
I2C_MonitorHandler                                build\lib\source\lpc17xx_i2c.o
I2C_MonitorModeCmd                                build\lib\source\lpc17xx_i2c.o
I2C_MonitorModeConfig                             build\lib\source\lpc17xx_i2c.o
I2C_SetOwnSlaveAddr                               build\lib\source\lpc17xx_i2c.o
I2C_SlaveHandler                                  build\lib\source\lpc17xx_i2c.o
I2C_SlaveTransferComplete                         build\lib\source\lpc17xx_i2c.o
I2C_SlaveTransferData                             build\lib\source\lpc17xx_i2c.o
I2S_IRQHandler                                    build\system\startup_LPC17xx.o
IAP::IAP()                                        build\EepromMap.o
IAP::IAP()                                        build\EepromMap.o
IAP::blank_check(int, int)                        build\IAP_internal_flash_write\IAP.o
IAP::compare(char*, char*, int)                   build\IAP_internal_flash_write\IAP.o
IAP::erase(int, int)                              build\IAP_internal_flash_write\IAP.o
                                                  build\EepromMap.o
IAP::prepare(int, int)                            build\IAP_internal_flash_write\IAP.o
                                                  build\EepromMap.o
IAP::read_ID()                                    build\IAP_internal_flash_write\IAP.o
IAP::read_serial()                                build\IAP_internal_flash_write\IAP.o
IAP::reserved_flash_area_size()                   build\IAP_internal_flash_write\IAP.o
IAP::reserved_flash_area_start()                  build\IAP_internal_flash_write\IAP.o
IAP::write(char*, char*, int)                     build\IAP_internal_flash_write\IAP.o
                                                  build\EepromMap.o
IER_0                                             build\USBCDC\vcomdemo.o
                                                  build\USBCDC\serial.o
                                                  build\USBCDC\cdcuser.o
InPacket::InPacket()                              build\Packet.o
InPacket::InPacket()                              build\Packet.o
                                                  build\UART.o
InPacket::isFinished() const                      build\Host.o
                                                  build\Tool.o
InPacket::isStarted() const                       build\Host.o
InPacket::processByte(unsigned char)              build\Packet.o
                                                  build\UART.o
InPacket::reset()                                 build\Packet.o
                                                  build\Tool.o
                                                  build\Motherboard.o
                                                  build\Host.o
InPacket::timeout()                               build\Host.o
                                                  build\Tool.o
InterfaceBoard::InterfaceBoard(ButtonArray&, LiquidCrystal&, Pin const&, Pin const&, Screen*, Screen*) build\InterfaceBoard.o
InterfaceBoard::InterfaceBoard(ButtonArray&, LiquidCrystal&, Pin const&, Pin const&, Screen*, Screen*) build\InterfaceBoard.o
                                                  build\Motherboard.o
InterfaceBoard::doInterrupt()                     build\InterfaceBoard.o
                                                  build\Motherboard.o
                                                  build\Interface.o
InterfaceBoard::doUpdate()                        build\InterfaceBoard.o
                                                  build\Motherboard.o
                                                  build\Interface.o
InterfaceBoard::getUpdateRate()                   build\InterfaceBoard.o
                                                  build\Motherboard.o
                                                  build\Interface.o
InterfaceBoard::init()                            build\InterfaceBoard.o
                                                  build\Motherboard.o
InterfaceBoard::popScreen()                       build\InterfaceBoard.o
                                                  build\Interface.o
InterfaceBoard::pushScreen(Screen*)               build\InterfaceBoard.o
                                                  build\Motherboard.o
                                                  build\Interface.o
JogMode::JogMode()                                build\Menu.o
JogMode::JogMode()                                build\Menu.o
JogMode::getUpdateRate()                          build\Menu.o
JogMode::jog(ButtonArray::ButtonName)             build\Menu.o
JogMode::notifyButtonPressed(ButtonArray::ButtonName) build\Menu.o
JogMode::reset()                                  build\Menu.o
JogMode::update(LiquidCrystal&, bool)             build\Menu.o
LCR_0                                             build\USBCDC\vcomdemo.o
                                                  build\USBCDC\serial.o
                                                  build\USBCDC\cdcuser.o
LiquidCrystal::LiquidCrystal(Pin, Pin, Pin, Pin, Pin, Pin) build\LiquidCrystal.o
LiquidCrystal::LiquidCrystal(Pin, Pin, Pin, Pin, Pin, Pin) build\LiquidCrystal.o
                                                  build\Motherboard.o
LiquidCrystal::LiquidCrystal(Pin, Pin, Pin, Pin, Pin, Pin, Pin) build\LiquidCrystal.o
LiquidCrystal::LiquidCrystal(Pin, Pin, Pin, Pin, Pin, Pin, Pin) build\LiquidCrystal.o
LiquidCrystal::LiquidCrystal(Pin, Pin, Pin, Pin, Pin, Pin, Pin, Pin, Pin, Pin) build\LiquidCrystal.o
LiquidCrystal::LiquidCrystal(Pin, Pin, Pin, Pin, Pin, Pin, Pin, Pin, Pin, Pin) build\LiquidCrystal.o
LiquidCrystal::LiquidCrystal(Pin, Pin, Pin, Pin, Pin, Pin, Pin, Pin, Pin, Pin, Pin) build\LiquidCrystal.o
LiquidCrystal::LiquidCrystal(Pin, Pin, Pin, Pin, Pin, Pin, Pin, Pin, Pin, Pin, Pin) build\LiquidCrystal.o
LiquidCrystal::autoscroll()                       build\LiquidCrystal.o
LiquidCrystal::begin(unsigned char, unsigned char, unsigned char) build\LiquidCrystal.o
                                                  build\InterfaceBoard.o
LiquidCrystal::blink()                            build\LiquidCrystal.o
LiquidCrystal::clear()                            build\LiquidCrystal.o
                                                  build\Menu.o
                                                  build\InterfaceBoard.o
LiquidCrystal::command(unsigned char)             build\LiquidCrystal.o
LiquidCrystal::createChar(unsigned char, unsigned char*) build\LiquidCrystal.o
LiquidCrystal::cursor()                           build\LiquidCrystal.o
LiquidCrystal::display()                          build\LiquidCrystal.o
LiquidCrystal::home()                             build\LiquidCrystal.o
                                                  build\InterfaceBoard.o
LiquidCrystal::init(unsigned char, Pin, Pin, Pin, Pin, Pin, Pin, Pin, Pin, Pin, Pin, Pin) build\LiquidCrystal.o
LiquidCrystal::leftToRight()                      build\LiquidCrystal.o
LiquidCrystal::noAutoscroll()                     build\LiquidCrystal.o
LiquidCrystal::noBlink()                          build\LiquidCrystal.o
LiquidCrystal::noCursor()                         build\LiquidCrystal.o
LiquidCrystal::noDisplay()                        build\LiquidCrystal.o
LiquidCrystal::pulseEnable()                      build\LiquidCrystal.o
LiquidCrystal::rightToLeft()                      build\LiquidCrystal.o
LiquidCrystal::scrollDisplayLeft()                build\LiquidCrystal.o
LiquidCrystal::scrollDisplayRight()               build\LiquidCrystal.o
LiquidCrystal::send(unsigned char, bool)          build\LiquidCrystal.o
LiquidCrystal::setCursor(unsigned char, unsigned char) build\LiquidCrystal.o
                                                  build\Menu.o
LiquidCrystal::write(unsigned char)               build\LiquidCrystal.o
LiquidCrystal::write4bits(unsigned char)          build\LiquidCrystal.o
LiquidCrystal::write8bits(unsigned char)          build\LiquidCrystal.o
LiquidCrystal::writeFromPgmspace(char const*)     build\LiquidCrystal.o
                                                  build\Menu.o
LiquidCrystal::writeInt(unsigned short, unsigned char) build\LiquidCrystal.o
                                                  build\Menu.o
LiquidCrystal::writeString(char*)                 build\LiquidCrystal.o
                                                  build\Menu.o
MCPWM_IRQHandler                                  build\system\startup_LPC17xx.o
MainMenu::MainMenu()                              build\Menu.o
MainMenu::MainMenu()                              build\Menu.o
                                                  build\Motherboard.o
MainMenu::drawItem(unsigned char, LiquidCrystal&) build\Menu.o
MainMenu::handleSelect(unsigned char)             build\Menu.o
MemManage_Handler                                 build\system\startup_LPC17xx.o
Menu::Menu()                                      build\Menu.o
Menu::Menu()                                      build\Menu.o
Menu::getUpdateRate()                             build\Menu.o
Menu::handleCancel()                              build\Menu.o
Menu::handleSelect(unsigned char)                 build\Menu.o
Menu::notifyButtonPressed(ButtonArray::ButtonName) build\Menu.o
Menu::reset()                                     build\Menu.o
Menu::resetState()                                build\Menu.o
Menu::update(LiquidCrystal&, bool)                build\Menu.o
MonitorMode::MonitorMode()                        build\Menu.o
                                                  build\Motherboard.o
MonitorMode::MonitorMode()                        build\Menu.o
                                                  build\Motherboard.o
MonitorMode::getUpdateRate()                      build\Menu.o
MonitorMode::notifyButtonPressed(ButtonArray::ButtonName) build\Menu.o
MonitorMode::reset()                              build\Menu.o
MonitorMode::update(LiquidCrystal&, bool)         build\Menu.o
Motherboard::Motherboard()                        build\Motherboard.o
Motherboard::Motherboard()                        build\Motherboard.o
Motherboard::doInterrupt()                        build\Motherboard.o
Motherboard::getBoard()                           build\DebugPacketProcessor.o
                                                  build\Tool.o
                                                  build\Timeout.o
                                                  build\Motherboard.o
                                                  build\Main.o
                                                  build\Host.o
Motherboard::getCurrentError()                    build\Motherboard.o
                                                  build\DebugPacketProcessor.o
Motherboard::getCurrentMicros()                   build\Motherboard.o
                                                  build\Timeout.o
Motherboard::getStepperInterface(int)             build\Host.o
                                                  build\Steppers.o
Motherboard::indicateError(int)                   build\Motherboard.o
                                                  build\Tool.o
                                                  build\Host.o
                                                  build\DebugPacketProcessor.o
Motherboard::motherboard                          build\Motherboard.o
                                                  build\Tool.o
                                                  build\Timeout.o
                                                  build\Main.o
                                                  build\Host.o
                                                  build\DebugPacketProcessor.o
Motherboard::reset()                              build\Motherboard.o
                                                  build\Main.o
Motherboard::runMotherboardSlice()                build\Motherboard.o
                                                  build\Main.o
NMI_Handler                                       build\system\startup_LPC17xx.o
NVIC_DeInit                                       build\lib\source\lpc17xx_nvic.o
NVIC_SCBDeInit                                    build\lib\source\lpc17xx_nvic.o
NVIC_SetVTOR                                      build\lib\source\lpc17xx_nvic.o
NotificationBuf                                   build\USBCDC\cdcuser.o
OutPacket::OutPacket()                            build\Packet.o
                                                  build\UART.o
                                                  build\Menu.o
                                                  build\DebugPacketProcessor.o
OutPacket::OutPacket()                            build\Packet.o
OutPacket::append16(unsigned short)               build\Packet.o
                                                  build\Host.o
OutPacket::append32(unsigned long)                build\Packet.o
                                                  build\Host.o
OutPacket::append8(unsigned char)                 build\Packet.o
                                                  build\Tool.o
                                                  build\Menu.o
                                                  build\Host.o
                                                  build\DebugPacketProcessor.o
                                                  build\Command.o
OutPacket::getNextByteToSend()                    build\Packet.o
                                                  build\UART.o
OutPacket::isSending() const                      build\Host.o
                                                  build\UART.o
OutPacket::prepareForResend()                     build\Packet.o
                                                  build\Tool.o
OutPacket::reset()                                build\Packet.o
                                                  build\Tool.o
                                                  build\Menu.o
                                                  build\Host.o
                                                  build\DebugPacketProcessor.o
                                                  build\Command.o
PID::calculate(int)                               build\PID.o
PID::getDeltaTerm()                               build\PID.o
PID::getErrorTerm()                               build\PID.o
PID::getLastOutput()                              build\PID.o
PID::reset()                                      build\PID.o
PID::reset_state()                                build\PID.o
PID::setTarget(int)                               build\PID.o
PINSEL_ConfigPin                                  build\lib\source\lpc17xx_pinsel.o
                                                  build\test_u.o
                                                  build\test.o
                                                  build\UART.o
                                                  build\Microsteps.o
                                                  build\lib_sd\sd_raw.o
PINSEL_ConfigTraceFunc                            build\lib\source\lpc17xx_pinsel.o
PINSEL_SetI2C0Pins                                build\lib\source\lpc17xx_pinsel.o
PLL0_IRQHandler                                   build\system\startup_LPC17xx.o
PLL1_IRQHandler                                   build\system\startup_LPC17xx.o
PWM1_IRQHandler                                   build\system\startup_LPC17xx.o
Packet::Packet()                                  build\Packet.o
Packet::Packet()                                  build\Packet.o
Packet::appendByte(unsigned char)                 build\Packet.o
Packet::error(unsigned char)                      build\Host.o
                                                  build\Tool.o
                                                  build\Packet.o
Packet::getData() const                           build\Host.o
                                                  build\SDCard.o
Packet::getErrorCode() const                      build\Host.o
                                                  build\Tool.o
                                                  build\Menu.o
Packet::getLength() const                         build\DebugPacketProcessor.o
                                                  build\SDCard.o
                                                  build\Menu.o
                                                  build\Host.o
Packet::hasError() const                          build\Command.o
                                                  build\Tool.o
                                                  build\Host.o
Packet::read16(unsigned char) const               build\Packet.o
                                                  build\Menu.o
                                                  build\Host.o
Packet::read32(unsigned char) const               build\Packet.o
Packet::read8(unsigned char) const                build\Packet.o
                                                  build\Tool.o
                                                  build\Menu.o
                                                  build\Host.o
                                                  build\DebugPacketProcessor.o
                                                  build\Command.o
Packet::reset()                                   build\Packet.o
                                                  build\Tool.o
                                                  build\Host.o
PendSV_Handler                                    build\system\startup_LPC17xx.o
Pin::Pin()                                        build\LiquidCrystal.o
                                                  build\Motherboard.o
Pin::Pin()                                        build\LiquidCrystal.o
                                                  build\Motherboard.o
Pin::Pin(portname, unsigned char)                 build\Interface.o
                                                  build\UART.o
                                                  build\Motherboard.o
                                                  build\Main.o
Pin::Pin(portname, unsigned char)                 build\Interface.o
                                                  build\UART.o
                                                  build\Motherboard.o
                                                  build\Main.o
Pin::getValue()                                   build\Interface.o
                                                  build\StepperInterface.o
Pin::isNull()                                     build\LiquidCrystal.o
                                                  build\StepperInterface.o
Pin::setDirection(bool)                           build\Interface.o
                                                  build\UART.o
                                                  build\StepperInterface.o
                                                  build\Main.o
                                                  build\LiquidCrystal.o
                                                  build\InterfaceBoard.o
Pin::setValue(bool)                               build\Interface.o
                                                  build\UART.o
                                                  build\StepperInterface.o
                                                  build\Motherboard.o
                                                  build\Main.o
                                                  build\LiquidCrystal.o
                                                  build\InterfaceBoard.o
Point::Point(long, long, long)                    build\Command.o
Point::Point(long, long, long)                    build\Command.o
Point::Point(long, long, long, long, long)        build\Command.o
                                                  build\Steppers.o
Point::Point(long, long, long, long, long)        build\Command.o
                                                  build\Steppers.o
Point::operator[](unsigned int)                   build\Command.o
                                                  build\Menu.o
Point::operator[](unsigned int) const             build\Command.o
                                                  build\Steppers.o
                                                  build\Host.o
Port_Class::Port_Class()                          build\ButtonArray.o
                                                  build\UART.o
                                                  build\Tool.o
                                                  build\Timeout.o
                                                  build\Steppers.o
                                                  build\StepperInterface.o
                                                  build\StepperAxis.o
                                                  build\Motherboard.o
                                                  build\Menu.o
                                                  build\Main.o
                                                  build\LiquidCrystal.o
                                                  build\InterfaceBoard.o
                                                  build\Interface.o
                                                  build\Host.o
                                                  build\DebugPacketProcessor.o
                                                  build\Command.o
Port_Class::Port_Class()                          build\ButtonArray.o
                                                  build\UART.o
                                                  build\Tool.o
                                                  build\Timeout.o
                                                  build\Steppers.o
                                                  build\StepperInterface.o
                                                  build\StepperAxis.o
                                                  build\Motherboard.o
                                                  build\Menu.o
                                                  build\Main.o
                                                  build\LiquidCrystal.o
                                                  build\InterfaceBoard.o
                                                  build\Interface.o
                                                  build\Host.o
                                                  build\DebugPacketProcessor.o
                                                  build\Command.o
Port_Class::Port_Class(portname)                  build\Interface.o
                                                  build\UART.o
                                                  build\Motherboard.o
                                                  build\Main.o
                                                  build\LiquidCrystal.o
Port_Class::Port_Class(portname)                  build\Interface.o
                                                  build\UART.o
                                                  build\Motherboard.o
                                                  build\Main.o
                                                  build\LiquidCrystal.o
Port_Class::getPin(unsigned char)                 build\Interface.o
                                                  build\StepperInterface.o
Port_Class::isNull()                              build\LiquidCrystal.o
                                                  build\StepperInterface.o
Port_Class::setPin(unsigned char, bool)           build\Interface.o
                                                  build\UART.o
                                                  build\StepperInterface.o
                                                  build\Motherboard.o
                                                  build\Main.o
                                                  build\LiquidCrystal.o
                                                  build\InterfaceBoard.o
Port_Class::setPinDirection(unsigned char, bool)  build\Interface.o
                                                  build\UART.o
                                                  build\StepperInterface.o
                                                  build\Main.o
                                                  build\LiquidCrystal.o
                                                  build\InterfaceBoard.o
QEI_IRQHandler                                    build\system\startup_LPC17xx.o
RIT_IRQHandler                                    build\system\startup_LPC17xx.o
RTC_IRQHandler                                    build\system\startup_LPC17xx.o
RdCmdDat                                          build\USBCDC\usbhw.o
Reset_Handler                                     build\system\startup_LPC17xx.o
SDMenu::SDMenu()                                  build\Menu.o
SDMenu::SDMenu()                                  build\Menu.o
SDMenu::countFiles()                              build\Menu.o
SDMenu::drawItem(unsigned char, LiquidCrystal&)   build\Menu.o
SDMenu::getFilename(unsigned char, char*, unsigned char) build\Menu.o
SDMenu::handleSelect(unsigned char)               build\Menu.o
SDMenu::resetState()                              build\Menu.o
SPI_CheckStatus                                   build\lib\source\lpc17xx_spi.o
SPI_ClearIntPending                               build\lib\source\lpc17xx_spi.o
SPI_ConfigStructInit                              build\lib\source\lpc17xx_spi.o
SPI_DeInit                                        build\lib\source\lpc17xx_spi.o
SPI_GetDataSize                                   build\lib\source\lpc17xx_spi.o
SPI_GetIntStatus                                  build\lib\source\lpc17xx_spi.o
SPI_GetStatus                                     build\lib\source\lpc17xx_spi.o
SPI_IRQHandler                                    build\system\startup_LPC17xx.o
SPI_Init                                          build\lib\source\lpc17xx_spi.o
                                                  build\lib_sd\sd_raw.o
SPI_IntCmd                                        build\lib\source\lpc17xx_spi.o
SPI_ReadWrite                                     build\lib\source\lpc17xx_spi.o
                                                  build\lib_sd\sd_raw.o
SPI_ReceiveData                                   build\lib\source\lpc17xx_spi.o
SPI_SendData                                      build\lib\source\lpc17xx_spi.o
SPI_SetClock                                      build\lib\source\lpc17xx_spi.o
                                                  build\lib_sd\sd_raw.o
SSP0_IRQHandler                                   build\system\startup_LPC17xx.o
SSP1_IRQHandler                                   build\system\startup_LPC17xx.o
SVC_Handler                                       build\system\startup_LPC17xx.o
Screen::Screen()                                  build\Menu.o
                                                  build\Motherboard.o
Screen::Screen()                                  build\Menu.o
                                                  build\Motherboard.o
SetupPacket                                       build\USBCDC\usbcore.o
SnakeMode::SnakeMode()                            build\Menu.o
SnakeMode::SnakeMode()                            build\Menu.o
SnakeMode::getUpdateRate()                        build\Menu.o
SnakeMode::notifyButtonPressed(ButtonArray::ButtonName) build\Menu.o
SnakeMode::reset()                                build\Menu.o
SnakeMode::update(LiquidCrystal&, bool)           build\Menu.o
SplashScreen::SplashScreen()                      build\Motherboard.o
SplashScreen::SplashScreen()                      build\Motherboard.o
SplashScreen::getUpdateRate()                     build\Menu.o
SplashScreen::notifyButtonPressed(ButtonArray::ButtonName) build\Menu.o
SplashScreen::reset()                             build\Menu.o
SplashScreen::update(LiquidCrystal&, bool)        build\Menu.o
StepperAxis::StepperAxis()                        build\StepperAxis.o
StepperAxis::StepperAxis()                        build\StepperAxis.o
                                                  build\Steppers.o
StepperAxis::StepperAxis(StepperInterface&)       build\StepperAxis.o
                                                  build\Steppers.o
StepperAxis::StepperAxis(StepperInterface&)       build\StepperAxis.o
StepperAxis::checkEndstop(bool)                   build\StepperAxis.o
StepperAxis::definePosition(long)                 build\StepperAxis.o
                                                  build\Steppers.o
StepperAxis::doHoming(long)                       build\StepperAxis.o
                                                  build\Steppers.o
StepperAxis::doInterrupt(long)                    build\StepperAxis.o
                                                  build\Steppers.o
StepperAxis::enableStepper(bool)                  build\StepperAxis.o
                                                  build\Steppers.o
StepperAxis::reset()                              build\StepperAxis.o
StepperAxis::setHoming(bool)                      build\StepperAxis.o
                                                  build\Steppers.o
StepperAxis::setTarget(long, bool)                build\StepperAxis.o
                                                  build\Steppers.o
StepperInterface::StepperInterface()              build\Motherboard.o
StepperInterface::StepperInterface()              build\Motherboard.o
StepperInterface::StepperInterface(Pin const&, Pin const&, Pin const&, Pin const&, Pin const&, unsigned short) build\StepperInterface.o
StepperInterface::StepperInterface(Pin const&, Pin const&, Pin const&, Pin const&, Pin const&, unsigned short) build\StepperInterface.o
                                                  build\Motherboard.o
StepperInterface::init(unsigned char)             build\StepperInterface.o
                                                  build\Motherboard.o
StepperInterface::isAtMaximum()                   build\StepperInterface.o
                                                  build\StepperAxis.o
                                                  build\Host.o
StepperInterface::isAtMinimum()                   build\StepperInterface.o
                                                  build\StepperAxis.o
                                                  build\Host.o
StepperInterface::setDirection(bool)              build\StepperInterface.o
                                                  build\StepperAxis.o
StepperInterface::setEnabled(bool)                build\StepperInterface.o
                                                  build\StepperAxis.o
StepperInterface::step(bool)                      build\StepperInterface.o
                                                  build\StepperAxis.o
SysTick_Handler                                   build\system\startup_LPC17xx.o
SystemCoreClock                                   build\system\system_LPC17xx.o
                                                  build\EepromMap.o
                                                  build\lib\source\lpc17xx_clkpwr.o
SystemCoreClockUpdate                             build\system\system_LPC17xx.o
                                                  build\Main.o
SystemInit                                        build\system\system_LPC17xx.o
                                                  build\Main.o
                                                  build\system\startup_LPC17xx.o
TIMER0_IRQHandler                                 build\Motherboard.o
                                                  build\system\startup_LPC17xx.o
TIMER1_IRQHandler                                 build\Motherboard.o
                                                  build\system\startup_LPC17xx.o
TIMER2_IRQHandler                                 build\system\startup_LPC17xx.o
TIMER3_IRQHandler                                 build\system\startup_LPC17xx.o
TIM_ClearIntCapturePending                        build\lib\source\lpc17xx_timer.o
TIM_ClearIntPending                               build\lib\source\lpc17xx_timer.o
                                                  build\Motherboard.o
TIM_Cmd                                           build\lib\source\lpc17xx_timer.o
                                                  build\Motherboard.o
TIM_ConfigCapture                                 build\lib\source\lpc17xx_timer.o
TIM_ConfigMatch                                   build\lib\source\lpc17xx_timer.o
                                                  build\Motherboard.o
TIM_ConfigStructInit                              build\lib\source\lpc17xx_timer.o
TIM_DeInit                                        build\lib\source\lpc17xx_timer.o
TIM_GetCaptureValue                               build\lib\source\lpc17xx_timer.o
TIM_GetIntCaptureStatus                           build\lib\source\lpc17xx_timer.o
TIM_GetIntStatus                                  build\lib\source\lpc17xx_timer.o
TIM_Init                                          build\lib\source\lpc17xx_timer.o
                                                  build\Motherboard.o
TIM_ResetCounter                                  build\lib\source\lpc17xx_timer.o
TIM_UpdateMatchValue                              build\lib\source\lpc17xx_timer.o
Timeout::Timeout()                                build\Timeout.o
Timeout::Timeout()                                build\Timeout.o
                                                  build\Tool.o
                                                  build\Motherboard.o
                                                  build\Menu.o
                                                  build\Main.o
                                                  build\Host.o
                                                  build\DebugPacketProcessor.o
                                                  build\Command.o
Timeout::abort()                                  build\Timeout.o
                                                  build\Host.o
Timeout::hasElapsed()                             build\Timeout.o
                                                  build\Tool.o
                                                  build\Motherboard.o
                                                  build\Menu.o
                                                  build\Main.o
                                                  build\Host.o
                                                  build\DebugPacketProcessor.o
                                                  build\Command.o
Timeout::hasLeft()                                build\Timeout.o
Timeout::isActive() const                         build\Host.o
Timeout::start(unsigned long)                     build\Timeout.o
                                                  build\Tool.o
                                                  build\Motherboard.o
                                                  build\Menu.o
                                                  build\Main.o
                                                  build\Host.o
                                                  build\DebugPacketProcessor.o
                                                  build\Command.o
UART0_IRQHandler                                  build\system\startup_LPC17xx.o
UART1_IRQHandler                                  build\UART.o
                                                  build\system\startup_LPC17xx.o
UART2_IRQHandler                                  build\system\startup_LPC17xx.o
UART3_IRQHandler                                  build\system\startup_LPC17xx.o
UART::UART(unsigned char)                         build\UART.o
                                                  build\Motherboard.o
UART::UART(unsigned char)                         build\UART.o
UART::beginSend()                                 build\UART.o
                                                  build\Tool.o
                                                  build\Host.o
UART::enable(bool)                                build\UART.o
                                                  build\Motherboard.o
UART::getHostUART()                               build\Host.o
                                                  build\UART.o
                                                  build\Motherboard.o
UART::getSlaveUART()                              build\Motherboard.o
                                                  build\UART.o
                                                  build\Tool.o
UART::reset()                                     build\UART.o
                                                  build\Tool.o
UART::uart                                        build\UART.o
                                                  build\Tool.o
                                                  build\Motherboard.o
                                                  build\Host.o
UART_32_DEC                                       build\lib\source\Uart32.o
UART_32_HEX                                       build\lib\source\Uart32.o
                                                  build\Motherboard.o
                                                  build\EepromMap.o
UART_8                                            build\lib\source\Uart32.o
UART_ABClearIntPending                            build\lib\source\lpc17xx_uart.o
UART_ABCmd                                        build\lib\source\lpc17xx_uart.o
UART_CheckBusy                                    build\lib\source\lpc17xx_uart.o
UART_ConfigStructInit                             build\lib\source\lpc17xx_uart.o
                                                  build\test.o
UART_DeInit                                       build\lib\source\lpc17xx_uart.o
UART_FIFOConfig                                   build\lib\source\lpc17xx_uart.o
                                                  build\test.o
UART_FIFOConfigStructInit                         build\lib\source\lpc17xx_uart.o
                                                  build\test.o
UART_ForceBreak                                   build\lib\source\lpc17xx_uart.o
UART_FullModemConfigMode                          build\lib\source\lpc17xx_uart.o
UART_FullModemForcePinState                       build\lib\source\lpc17xx_uart.o
UART_FullModemGetStatus                           build\lib\source\lpc17xx_uart.o
UART_GetIntId                                     build\lib\source\lpc17xx_uart.o
                                                  build\UART.o
UART_GetLineStatus                                build\lib\source\lpc17xx_uart.o
                                                  build\UART.o
UART_Init                                         build\lib\source\lpc17xx_uart.o
                                                  build\test_u.o
                                                  build\test.o
                                                  build\UART.o
UART_IntConfig                                    build\lib\source\lpc17xx_uart.o
UART_IrDACmd                                      build\lib\source\lpc17xx_uart.o
UART_IrDAInvtInputCmd                             build\lib\source\lpc17xx_uart.o
UART_IrDAPulseDivConfig                           build\lib\source\lpc17xx_uart.o
UART_RS485Config                                  build\lib\source\lpc17xx_uart.o
UART_RS485ReceiverCmd                             build\lib\source\lpc17xx_uart.o
UART_RS485Send                                    build\lib\source\lpc17xx_uart.o
UART_RS485SendData                                build\lib\source\lpc17xx_uart.o
UART_RS485SendSlvAddr                             build\lib\source\lpc17xx_uart.o
UART_Receive                                      build\lib\source\lpc17xx_uart.o
UART_ReceiveByte                                  build\lib\source\lpc17xx_uart.o
                                                  build\UART.o
UART_Send                                         build\lib\source\lpc17xx_uart.o
                                                  build\test.o
                                                  build\UART.o
                                                  build\Steppers.o
                                                  build\Motherboard.o
                                                  build\Main.o
                                                  build\EepromMap.o
UART_SendByte                                     build\lib\source\lpc17xx_uart.o
                                                  build\test.o
                                                  build\UART.o
                                                  build\lib\source\Uart32.o
UART_TxCmd                                        build\lib\source\lpc17xx_uart.o
                                                  build\test_u.o
                                                  build\test.o
                                                  build\UART.o
USB_AltSetting                                    build\USBCDC\usbcore.o
USB_ClearEPBuf                                    build\USBCDC\usbhw.o
USB_ClrStallEP                                    build\USBCDC\usbhw.o
                                                  build\USBCDC\usbcore.o
USB_ConfigDescriptor                              build\USBCDC\usbdesc.o
                                                  build\USBCDC\usbcore.o
USB_ConfigEP                                      build\USBCDC\usbhw.o
                                                  build\USBCDC\usbcore.o
USB_Configuration                                 build\USBCDC\usbcore.o
                                                  build\USBCDC\vcomdemo.o
USB_Configure                                     build\USBCDC\usbhw.o
                                                  build\USBCDC\usbcore.o
USB_Configure_Event                               build\USBCDC\usbuser.o
                                                  build\USBCDC\usbcore.o
USB_Connect                                       build\USBCDC\usbhw.o
                                                  build\USBCDC\vcomdemo.o
USB_DataInStage                                   build\USBCDC\usbcore.o
USB_DataOutStage                                  build\USBCDC\usbcore.o
USB_DeviceAddress                                 build\USBCDC\usbcore.o
USB_DeviceDescriptor                              build\USBCDC\usbdesc.o
                                                  build\USBCDC\usbcore.o
USB_DeviceStatus                                  build\USBCDC\usbcore.o
                                                  build\USBCDC\usbhw.o
USB_DirCtrlEP                                     build\USBCDC\usbhw.o
                                                  build\USBCDC\usbcore.o
USB_DisableEP                                     build\USBCDC\usbhw.o
                                                  build\USBCDC\usbcore.o
USB_EnableEP                                      build\USBCDC\usbhw.o
                                                  build\USBCDC\usbcore.o
USB_EndPoint0                                     build\USBCDC\usbcore.o
                                                  build\USBCDC\usbuser.o
USB_EndPoint1                                     build\USBCDC\usbuser.o
USB_EndPoint10                                    build\USBCDC\usbuser.o
USB_EndPoint11                                    build\USBCDC\usbuser.o
USB_EndPoint12                                    build\USBCDC\usbuser.o
USB_EndPoint13                                    build\USBCDC\usbuser.o
USB_EndPoint14                                    build\USBCDC\usbuser.o
USB_EndPoint15                                    build\USBCDC\usbuser.o
USB_EndPoint2                                     build\USBCDC\usbuser.o
USB_EndPoint3                                     build\USBCDC\usbuser.o
USB_EndPoint4                                     build\USBCDC\usbuser.o
USB_EndPoint5                                     build\USBCDC\usbuser.o
USB_EndPoint6                                     build\USBCDC\usbuser.o
USB_EndPoint7                                     build\USBCDC\usbuser.o
USB_EndPoint8                                     build\USBCDC\usbuser.o
USB_EndPoint9                                     build\USBCDC\usbuser.o
USB_EndPointHalt                                  build\USBCDC\usbcore.o
USB_EndPointMask                                  build\USBCDC\usbcore.o
USB_EndPointStall                                 build\USBCDC\usbcore.o
USB_GetFrame                                      build\USBCDC\usbhw.o
USB_IRQHandler                                    build\USBCDC\usbhw.o
                                                  build\system\startup_LPC17xx.o
USB_Init                                          build\USBCDC\usbhw.o
                                                  build\USBCDC\vcomdemo.o
USB_NumInterfaces                                 build\USBCDC\usbcore.o
USB_P_EP                                          build\USBCDC\usbuser.o
                                                  build\USBCDC\usbhw.o
USB_ReadEP                                        build\USBCDC\usbhw.o
                                                  build\UART.o
                                                  build\USBCDC\usbcore.o
USB_ReqGetConfiguration                           build\USBCDC\usbcore.o
USB_ReqGetDescriptor                              build\USBCDC\usbcore.o
USB_ReqGetInterface                               build\USBCDC\usbcore.o
USB_ReqGetStatus                                  build\USBCDC\usbcore.o
USB_ReqSetAddress                                 build\USBCDC\usbcore.o
USB_ReqSetClrFeature                              build\USBCDC\usbcore.o
USB_ReqSetConfiguration                           build\USBCDC\usbcore.o
USB_ReqSetInterface                               build\USBCDC\usbcore.o
USB_Reset                                         build\USBCDC\usbhw.o
USB_ResetCore                                     build\USBCDC\usbcore.o
                                                  build\USBCDC\usbuser.o
USB_ResetEP                                       build\USBCDC\usbhw.o
                                                  build\USBCDC\usbcore.o
USB_Reset_Event                                   build\USBCDC\usbuser.o
                                                  build\USBCDC\usbhw.o
USB_Resume                                        build\USBCDC\usbhw.o
USB_SetAddress                                    build\USBCDC\usbhw.o
                                                  build\USBCDC\usbcore.o
USB_SetStallEP                                    build\USBCDC\usbhw.o
                                                  build\USBCDC\usbcore.o
USB_SetupStage                                    build\USBCDC\usbcore.o
USB_StatusInStage                                 build\USBCDC\usbcore.o
USB_StatusOutStage                                build\USBCDC\usbcore.o
USB_StringDescriptor                              build\USBCDC\usbdesc.o
                                                  build\USBCDC\usbcore.o
USB_Suspend                                       build\USBCDC\usbhw.o
USB_WakeUp                                        build\USBCDC\usbhw.o
USB_WakeUpCfg                                     build\USBCDC\usbhw.o
                                                  build\USBCDC\usbcore.o
USB_WriteEP                                       build\USBCDC\usbhw.o
                                                  build\UART.o
                                                  build\USBCDC\usbcore.o
                                                  build\USBCDC\cdcuser.o
UsageFault_Handler                                build\system\startup_LPC17xx.o
VCOM_Start                                        build\USBCDC\vcomdemo.o
                                                  build\Main.o
WDT_IRQHandler                                    build\system\startup_LPC17xx.o
WrCmd                                             build\USBCDC\usbhw.o
WrCmdDat                                          build\USBCDC\usbhw.o
WrCmdEP                                           build\USBCDC\usbhw.o
X_MS1                                             build\EepromMap.o
X_MS2                                             build\EepromMap.o
X_MS3                                             build\EepromMap.o
Y_MS1                                             build\EepromMap.o
Y_MS2                                             build\EepromMap.o
Y_MS3                                             build\EepromMap.o
Z_MS1                                             build\EepromMap.o
Z_MS2                                             build\EepromMap.o
Z_MS3                                             build\EepromMap.o
_Balloc                                           c:/progra~2/codesourcery/source~1/bin/../lib/gcc/arm-none-eabi/4.6.1/../../../../arm-none-eabi/lib/thumb2\libc.a(lib_a-mprec.o)
                                                  c:/progra~2/codesourcery/source~1/bin/../lib/gcc/arm-none-eabi/4.6.1/../../../../arm-none-eabi/lib/thumb2\libc.a(lib_a-dtoa.o)
_Bfree                                            c:/progra~2/codesourcery/source~1/bin/../lib/gcc/arm-none-eabi/4.6.1/../../../../arm-none-eabi/lib/thumb2\libc.a(lib_a-mprec.o)
                                                  c:/progra~2/codesourcery/source~1/bin/../lib/gcc/arm-none-eabi/4.6.1/../../../../arm-none-eabi/lib/thumb2\libc.a(lib_a-dtoa.o)
_Jv_RegisterClasses                               c:/progra~2/codesourcery/source~1/bin/../lib/gcc/arm-none-eabi/4.6.1/thumb2/crtbegin.o
_PathLocale                                       c:/progra~2/codesourcery/source~1/bin/../lib/gcc/arm-none-eabi/4.6.1/../../../../arm-none-eabi/lib/thumb2\libc.a(lib_a-locale.o)
_Unwind_Backtrace                                 c:/progra~2/codesourcery/source~1/bin/../lib/gcc/arm-none-eabi/4.6.1/thumb2\libgcc.a(libunwind.o)
_Unwind_Complete                                  c:/progra~2/codesourcery/source~1/bin/../lib/gcc/arm-none-eabi/4.6.1/thumb2\libgcc.a(unwind-arm.o)
                                                  c:/progra~2/codesourcery/source~1/bin/../lib/gcc/arm-none-eabi/4.6.1/../../../../arm-none-eabi/lib/thumb2\libstdc++.a(eh_catch.o)
_Unwind_DeleteException                           c:/progra~2/codesourcery/source~1/bin/../lib/gcc/arm-none-eabi/4.6.1/thumb2\libgcc.a(unwind-arm.o)
                                                  c:/progra~2/codesourcery/source~1/bin/../lib/gcc/arm-none-eabi/4.6.1/../../../../arm-none-eabi/lib/thumb2\libstdc++.a(eh_catch.o)
_Unwind_ForcedUnwind                              c:/progra~2/codesourcery/source~1/bin/../lib/gcc/arm-none-eabi/4.6.1/thumb2\libgcc.a(libunwind.o)
_Unwind_GetCFA                                    c:/progra~2/codesourcery/source~1/bin/../lib/gcc/arm-none-eabi/4.6.1/thumb2\libgcc.a(unwind-arm.o)
_Unwind_GetDataRelBase                            c:/progra~2/codesourcery/source~1/bin/../lib/gcc/arm-none-eabi/4.6.1/thumb2\libgcc.a(pr-support.o)
                                                  c:/progra~2/codesourcery/source~1/bin/../lib/gcc/arm-none-eabi/4.6.1/../../../../arm-none-eabi/lib/thumb2\libstdc++.a(eh_personality.o)
_Unwind_GetLanguageSpecificData                   c:/progra~2/codesourcery/source~1/bin/../lib/gcc/arm-none-eabi/4.6.1/thumb2\libgcc.a(pr-support.o)
                                                  c:/progra~2/codesourcery/source~1/bin/../lib/gcc/arm-none-eabi/4.6.1/../../../../arm-none-eabi/lib/thumb2\libstdc++.a(eh_personality.o)
_Unwind_GetRegionStart                            c:/progra~2/codesourcery/source~1/bin/../lib/gcc/arm-none-eabi/4.6.1/thumb2\libgcc.a(pr-support.o)
                                                  c:/progra~2/codesourcery/source~1/bin/../lib/gcc/arm-none-eabi/4.6.1/../../../../arm-none-eabi/lib/thumb2\libstdc++.a(eh_personality.o)
_Unwind_GetTextRelBase                            c:/progra~2/codesourcery/source~1/bin/../lib/gcc/arm-none-eabi/4.6.1/thumb2\libgcc.a(pr-support.o)
                                                  c:/progra~2/codesourcery/source~1/bin/../lib/gcc/arm-none-eabi/4.6.1/../../../../arm-none-eabi/lib/thumb2\libstdc++.a(eh_personality.o)
_Unwind_RaiseException                            c:/progra~2/codesourcery/source~1/bin/../lib/gcc/arm-none-eabi/4.6.1/thumb2\libgcc.a(libunwind.o)
                                                  c:/progra~2/codesourcery/source~1/bin/../lib/gcc/arm-none-eabi/4.6.1/../../../../arm-none-eabi/lib/thumb2\libstdc++.a(eh_throw.o)
_Unwind_Resume                                    c:/progra~2/codesourcery/source~1/bin/../lib/gcc/arm-none-eabi/4.6.1/thumb2\libgcc.a(libunwind.o)
                                                  c:/progra~2/codesourcery/source~1/bin/../lib/gcc/arm-none-eabi/4.6.1/../../../../arm-none-eabi/lib/thumb2\libstdc++.a(eh_arm.o)
_Unwind_Resume_or_Rethrow                         c:/progra~2/codesourcery/source~1/bin/../lib/gcc/arm-none-eabi/4.6.1/thumb2\libgcc.a(libunwind.o)
                                                  c:/progra~2/codesourcery/source~1/bin/../lib/gcc/arm-none-eabi/4.6.1/../../../../arm-none-eabi/lib/thumb2\libstdc++.a(eh_throw.o)
_Unwind_VRS_Get                                   c:/progra~2/codesourcery/source~1/bin/../lib/gcc/arm-none-eabi/4.6.1/thumb2\libgcc.a(unwind-arm.o)
                                                  c:/progra~2/codesourcery/source~1/bin/../lib/gcc/arm-none-eabi/4.6.1/thumb2\libgcc.a(pr-support.o)
                                                  c:/progra~2/codesourcery/source~1/bin/../lib/gcc/arm-none-eabi/4.6.1/../../../../arm-none-eabi/lib/thumb2\libstdc++.a(eh_personality.o)
_Unwind_VRS_Pop                                   c:/progra~2/codesourcery/source~1/bin/../lib/gcc/arm-none-eabi/4.6.1/thumb2\libgcc.a(unwind-arm.o)
                                                  c:/progra~2/codesourcery/source~1/bin/../lib/gcc/arm-none-eabi/4.6.1/thumb2\libgcc.a(pr-support.o)
_Unwind_VRS_Set                                   c:/progra~2/codesourcery/source~1/bin/../lib/gcc/arm-none-eabi/4.6.1/thumb2\libgcc.a(unwind-arm.o)
                                                  c:/progra~2/codesourcery/source~1/bin/../lib/gcc/arm-none-eabi/4.6.1/thumb2\libgcc.a(pr-support.o)
                                                  c:/progra~2/codesourcery/source~1/bin/../lib/gcc/arm-none-eabi/4.6.1/../../../../arm-none-eabi/lib/thumb2\libstdc++.a(eh_personality.o)
___Unwind_Backtrace                               c:/progra~2/codesourcery/source~1/bin/../lib/gcc/arm-none-eabi/4.6.1/thumb2\libgcc.a(libunwind.o)
___Unwind_ForcedUnwind                            c:/progra~2/codesourcery/source~1/bin/../lib/gcc/arm-none-eabi/4.6.1/thumb2\libgcc.a(libunwind.o)
___Unwind_RaiseException                          c:/progra~2/codesourcery/source~1/bin/../lib/gcc/arm-none-eabi/4.6.1/thumb2\libgcc.a(libunwind.o)
___Unwind_Resume                                  c:/progra~2/codesourcery/source~1/bin/../lib/gcc/arm-none-eabi/4.6.1/thumb2\libgcc.a(libunwind.o)
___Unwind_Resume_or_Rethrow                       c:/progra~2/codesourcery/source~1/bin/../lib/gcc/arm-none-eabi/4.6.1/thumb2\libgcc.a(libunwind.o)
__adddf3                                          c:/progra~2/codesourcery/source~1/bin/../lib/gcc/arm-none-eabi/4.6.1/thumb2\libgcc.a(_arm_addsubdf3.o)
__addsf3                                          c:/progra~2/codesourcery/source~1/bin/../lib/gcc/arm-none-eabi/4.6.1/thumb2\libgcc.a(_arm_addsubsf3.o)
__aeabi_atexit                                    build\system\mini_cpp.o
__aeabi_cdcmpeq                                   c:/progra~2/codesourcery/source~1/bin/../lib/gcc/arm-none-eabi/4.6.1/thumb2\libgcc.a(_arm_cmpdf2.o)
__aeabi_cdcmple                                   c:/progra~2/codesourcery/source~1/bin/../lib/gcc/arm-none-eabi/4.6.1/thumb2\libgcc.a(_arm_cmpdf2.o)
__aeabi_cdrcmple                                  c:/progra~2/codesourcery/source~1/bin/../lib/gcc/arm-none-eabi/4.6.1/thumb2\libgcc.a(_arm_cmpdf2.o)
__aeabi_d2iz                                      c:/progra~2/codesourcery/source~1/bin/../lib/gcc/arm-none-eabi/4.6.1/thumb2\libgcc.a(_arm_fixdfsi.o)
                                                  c:/progra~2/codesourcery/source~1/bin/../lib/gcc/arm-none-eabi/4.6.1/../../../../arm-none-eabi/lib/thumb2\libc.a(lib_a-dtoa.o)
__aeabi_dadd                                      c:/progra~2/codesourcery/source~1/bin/../lib/gcc/arm-none-eabi/4.6.1/thumb2\libgcc.a(_arm_addsubdf3.o)
                                                  c:/progra~2/codesourcery/source~1/bin/../lib/gcc/arm-none-eabi/4.6.1/../../../../arm-none-eabi/lib/thumb2\libc.a(lib_a-dtoa.o)
__aeabi_dcmpeq                                    c:/progra~2/codesourcery/source~1/bin/../lib/gcc/arm-none-eabi/4.6.1/thumb2\libgcc.a(_arm_cmpdf2.o)
                                                  c:/progra~2/codesourcery/source~1/bin/../lib/gcc/arm-none-eabi/4.6.1/../../../../arm-none-eabi/lib/thumb2\libc.a(lib_a-dtoa.o)
                                                  c:/progra~2/codesourcery/source~1/bin/../lib/gcc/arm-none-eabi/4.6.1/../../../../arm-none-eabi/lib/thumb2\libc.a(lib_a-svfprintf.o)
__aeabi_dcmpge                                    c:/progra~2/codesourcery/source~1/bin/../lib/gcc/arm-none-eabi/4.6.1/thumb2\libgcc.a(_arm_cmpdf2.o)
                                                  c:/progra~2/codesourcery/source~1/bin/../lib/gcc/arm-none-eabi/4.6.1/../../../../arm-none-eabi/lib/thumb2\libc.a(lib_a-dtoa.o)
__aeabi_dcmpgt                                    c:/progra~2/codesourcery/source~1/bin/../lib/gcc/arm-none-eabi/4.6.1/thumb2\libgcc.a(_arm_cmpdf2.o)
                                                  c:/progra~2/codesourcery/source~1/bin/../lib/gcc/arm-none-eabi/4.6.1/../../../../arm-none-eabi/lib/thumb2\libc.a(lib_a-dtoa.o)
__aeabi_dcmple                                    c:/progra~2/codesourcery/source~1/bin/../lib/gcc/arm-none-eabi/4.6.1/thumb2\libgcc.a(_arm_cmpdf2.o)
__aeabi_dcmplt                                    c:/progra~2/codesourcery/source~1/bin/../lib/gcc/arm-none-eabi/4.6.1/thumb2\libgcc.a(_arm_cmpdf2.o)
                                                  c:/progra~2/codesourcery/source~1/bin/../lib/gcc/arm-none-eabi/4.6.1/../../../../arm-none-eabi/lib/thumb2\libc.a(lib_a-dtoa.o)
                                                  c:/progra~2/codesourcery/source~1/bin/../lib/gcc/arm-none-eabi/4.6.1/../../../../arm-none-eabi/lib/thumb2\libc.a(lib_a-svfprintf.o)
__aeabi_ddiv                                      c:/progra~2/codesourcery/source~1/bin/../lib/gcc/arm-none-eabi/4.6.1/thumb2\libgcc.a(_arm_muldivdf3.o)
                                                  c:/progra~2/codesourcery/source~1/bin/../lib/gcc/arm-none-eabi/4.6.1/../../../../arm-none-eabi/lib/thumb2\libc.a(lib_a-mprec.o)
                                                  c:/progra~2/codesourcery/source~1/bin/../lib/gcc/arm-none-eabi/4.6.1/../../../../arm-none-eabi/lib/thumb2\libc.a(lib_a-dtoa.o)
__aeabi_dmul                                      c:/progra~2/codesourcery/source~1/bin/../lib/gcc/arm-none-eabi/4.6.1/thumb2\libgcc.a(_arm_muldivdf3.o)
                                                  c:/progra~2/codesourcery/source~1/bin/../lib/gcc/arm-none-eabi/4.6.1/../../../../arm-none-eabi/lib/thumb2\libc.a(lib_a-mprec.o)
                                                  c:/progra~2/codesourcery/source~1/bin/../lib/gcc/arm-none-eabi/4.6.1/../../../../arm-none-eabi/lib/thumb2\libc.a(lib_a-dtoa.o)
__aeabi_drsub                                     c:/progra~2/codesourcery/source~1/bin/../lib/gcc/arm-none-eabi/4.6.1/thumb2\libgcc.a(_arm_addsubdf3.o)
__aeabi_dsub                                      c:/progra~2/codesourcery/source~1/bin/../lib/gcc/arm-none-eabi/4.6.1/thumb2\libgcc.a(_arm_addsubdf3.o)
                                                  c:/progra~2/codesourcery/source~1/bin/../lib/gcc/arm-none-eabi/4.6.1/../../../../arm-none-eabi/lib/thumb2\libc.a(lib_a-dtoa.o)
__aeabi_f2d                                       c:/progra~2/codesourcery/source~1/bin/../lib/gcc/arm-none-eabi/4.6.1/thumb2\libgcc.a(_arm_addsubdf3.o)
__aeabi_f2iz                                      c:/progra~2/codesourcery/source~1/bin/../lib/gcc/arm-none-eabi/4.6.1/thumb2\libgcc.a(_arm_fixsfsi.o)
                                                  build\PID.o
__aeabi_fadd                                      c:/progra~2/codesourcery/source~1/bin/../lib/gcc/arm-none-eabi/4.6.1/thumb2\libgcc.a(_arm_addsubsf3.o)
                                                  build\PID.o
__aeabi_fdiv                                      c:/progra~2/codesourcery/source~1/bin/../lib/gcc/arm-none-eabi/4.6.1/thumb2\libgcc.a(_arm_muldivsf3.o)
__aeabi_fmul                                      c:/progra~2/codesourcery/source~1/bin/../lib/gcc/arm-none-eabi/4.6.1/thumb2\libgcc.a(_arm_muldivsf3.o)
                                                  build\PID.o
__aeabi_frsub                                     c:/progra~2/codesourcery/source~1/bin/../lib/gcc/arm-none-eabi/4.6.1/thumb2\libgcc.a(_arm_addsubsf3.o)
__aeabi_fsub                                      c:/progra~2/codesourcery/source~1/bin/../lib/gcc/arm-none-eabi/4.6.1/thumb2\libgcc.a(_arm_addsubsf3.o)
                                                  build\PID.o
__aeabi_i2d                                       c:/progra~2/codesourcery/source~1/bin/../lib/gcc/arm-none-eabi/4.6.1/thumb2\libgcc.a(_arm_addsubdf3.o)
                                                  c:/progra~2/codesourcery/source~1/bin/../lib/gcc/arm-none-eabi/4.6.1/../../../../arm-none-eabi/lib/thumb2\libc.a(lib_a-dtoa.o)
__aeabi_i2f                                       c:/progra~2/codesourcery/source~1/bin/../lib/gcc/arm-none-eabi/4.6.1/thumb2\libgcc.a(_arm_addsubsf3.o)
                                                  build\PID.o
__aeabi_idiv0                                     c:/progra~2/codesourcery/source~1/bin/../lib/gcc/arm-none-eabi/4.6.1/thumb2\libgcc.a(_dvmd_tls.o)
                                                  c:/progra~2/codesourcery/source~1/bin/../lib/gcc/arm-none-eabi/4.6.1/thumb2\libgcc.a(_udivsi3.o)
__aeabi_l2d                                       c:/progra~2/codesourcery/source~1/bin/../lib/gcc/arm-none-eabi/4.6.1/thumb2\libgcc.a(_arm_addsubdf3.o)
__aeabi_l2f                                       c:/progra~2/codesourcery/source~1/bin/../lib/gcc/arm-none-eabi/4.6.1/thumb2\libgcc.a(_arm_addsubsf3.o)
__aeabi_ldiv0                                     c:/progra~2/codesourcery/source~1/bin/../lib/gcc/arm-none-eabi/4.6.1/thumb2\libgcc.a(_dvmd_tls.o)
                                                  c:/progra~2/codesourcery/source~1/bin/../lib/gcc/arm-none-eabi/4.6.1/thumb2\libgcc.a(_aeabi_uldivmod.o)
__aeabi_ui2d                                      c:/progra~2/codesourcery/source~1/bin/../lib/gcc/arm-none-eabi/4.6.1/thumb2\libgcc.a(_arm_addsubdf3.o)
                                                  c:/progra~2/codesourcery/source~1/bin/../lib/gcc/arm-none-eabi/4.6.1/../../../../arm-none-eabi/lib/thumb2\libc.a(lib_a-dtoa.o)
__aeabi_ui2f                                      c:/progra~2/codesourcery/source~1/bin/../lib/gcc/arm-none-eabi/4.6.1/thumb2\libgcc.a(_arm_addsubsf3.o)
__aeabi_uidiv                                     c:/progra~2/codesourcery/source~1/bin/../lib/gcc/arm-none-eabi/4.6.1/thumb2\libgcc.a(_udivsi3.o)
                                                  c:/progra~2/codesourcery/source~1/bin/../lib/gcc/arm-none-eabi/4.6.1/../../../../arm-none-eabi/lib/thumb2\libc.a(lib_a-dtoa.o)
                                                  c:/progra~2/codesourcery/source~1/bin/../lib/gcc/arm-none-eabi/4.6.1/../../../../arm-none-eabi/lib/thumb2\libc.a(lib_a-fwrite.o)
                                                  c:/progra~2/codesourcery/source~1/bin/../lib/gcc/arm-none-eabi/4.6.1/thumb2\libgcc.a(_udivdi3.o)
                                                  c:/progra~2/codesourcery/source~1/bin/../lib/gcc/arm-none-eabi/4.6.1/thumb2\libgcc.a(_divdi3.o)
__aeabi_uidivmod                                  c:/progra~2/codesourcery/source~1/bin/../lib/gcc/arm-none-eabi/4.6.1/thumb2\libgcc.a(_udivsi3.o)
                                                  c:/progra~2/codesourcery/source~1/bin/../lib/gcc/arm-none-eabi/4.6.1/thumb2\libgcc.a(_udivdi3.o)
                                                  c:/progra~2/codesourcery/source~1/bin/../lib/gcc/arm-none-eabi/4.6.1/thumb2\libgcc.a(_divdi3.o)
__aeabi_ul2d                                      c:/progra~2/codesourcery/source~1/bin/../lib/gcc/arm-none-eabi/4.6.1/thumb2\libgcc.a(_arm_addsubdf3.o)
__aeabi_ul2f                                      c:/progra~2/codesourcery/source~1/bin/../lib/gcc/arm-none-eabi/4.6.1/thumb2\libgcc.a(_arm_addsubsf3.o)
__aeabi_uldivmod                                  c:/progra~2/codesourcery/source~1/bin/../lib/gcc/arm-none-eabi/4.6.1/thumb2\libgcc.a(_aeabi_uldivmod.o)
                                                  c:/progra~2/codesourcery/source~1/bin/../lib/gcc/arm-none-eabi/4.6.1/../../../../arm-none-eabi/lib/thumb2\libc.a(lib_a-svfiprintf.o)
                                                  c:/progra~2/codesourcery/source~1/bin/../lib/gcc/arm-none-eabi/4.6.1/../../../../arm-none-eabi/lib/thumb2\libc.a(lib_a-svfprintf.o)
                                                  build\lib\source\lpc17xx_uart.o
                                                  build\lib\source\lpc17xx_timer.o
__aeabi_unwind_cpp_pr0                            c:/progra~2/codesourcery/source~1/bin/../lib/gcc/arm-none-eabi/4.6.1/thumb2\libgcc.a(unwind-arm.o)
                                                  c:/progra~2/codesourcery/source~1/bin/../lib/gcc/arm-none-eabi/4.6.1/thumb2\libgcc.a(pr-support.o)
                                                  c:/progra~2/codesourcery/source~1/bin/../lib/gcc/arm-none-eabi/4.6.1/../../../../arm-none-eabi/lib/thumb2\libstdc++.a(eh_personality.o)
                                                  c:/progra~2/codesourcery/source~1/bin/../lib/gcc/arm-none-eabi/4.6.1/../../../../arm-none-eabi/lib/thumb2\libstdc++.a(eh_arm.o)
                                                  c:/progra~2/codesourcery/source~1/bin/../lib/gcc/arm-none-eabi/4.6.1/../../../../arm-none-eabi/lib/thumb2\libstdc++.a(eh_throw.o)
                                                  c:/progra~2/codesourcery/source~1/bin/../lib/gcc/arm-none-eabi/4.6.1/../../../../arm-none-eabi/lib/thumb2\libstdc++.a(class_type_info.o)
                                                  c:/progra~2/codesourcery/source~1/bin/../lib/gcc/arm-none-eabi/4.6.1/../../../../arm-none-eabi/lib/thumb2\libstdc++.a(si_class_type_info.o)
                                                  build\SDCard.o
                                                  build\Motherboard.o
                                                  build\Interface.o
                                                  build\Command.o
__aeabi_unwind_cpp_pr1                            c:/progra~2/codesourcery/source~1/bin/../lib/gcc/arm-none-eabi/4.6.1/thumb2\libgcc.a(unwind-arm.o)
                                                  c:/progra~2/codesourcery/source~1/bin/../lib/gcc/arm-none-eabi/4.6.1/thumb2\libgcc.a(pr-support.o)
                                                  c:/progra~2/codesourcery/source~1/bin/../lib/gcc/arm-none-eabi/4.6.1/../../../../arm-none-eabi/lib/thumb2\libstdc++.a(eh_personality.o)
                                                  c:/progra~2/codesourcery/source~1/bin/../lib/gcc/arm-none-eabi/4.6.1/../../../../arm-none-eabi/lib/thumb2\libstdc++.a(eh_terminate.o)
                                                  c:/progra~2/codesourcery/source~1/bin/../lib/gcc/arm-none-eabi/4.6.1/../../../../arm-none-eabi/lib/thumb2\libstdc++.a(pure.o)
                                                  build\test_u.o
                                                  build\test_led.o
                                                  build\test.o
                                                  build\UART.o
                                                  build\Tool.o
                                                  build\Timeout.o
                                                  build\Steppers.o
                                                  build\StepperInterface.o
                                                  build\StepperAxis.o
                                                  build\SDCard.o
                                                  build\Motherboard.o
                                                  build\Microsteps.o
                                                  build\Menu.o
                                                  build\Main.o
                                                  build\LiquidCrystal.o
                                                  build\InterfaceBoard.o
                                                  build\Interface.o
                                                  build\Host.o
                                                  build\EepromMap.o
                                                  build\DebugPacketProcessor.o
                                                  build\Command.o
                                                  build\ButtonArray.o
                                                  build\IAP_internal_flash_write\IAP.o
__aeabi_unwind_cpp_pr2                            c:/progra~2/codesourcery/source~1/bin/../lib/gcc/arm-none-eabi/4.6.1/thumb2\libgcc.a(unwind-arm.o)
__any_on                                          c:/progra~2/codesourcery/source~1/bin/../lib/gcc/arm-none-eabi/4.6.1/../../../../arm-none-eabi/lib/thumb2\libc.a(lib_a-mprec.o)
__b2d                                             c:/progra~2/codesourcery/source~1/bin/../lib/gcc/arm-none-eabi/4.6.1/../../../../arm-none-eabi/lib/thumb2\libc.a(lib_a-mprec.o)
__cmpdf2                                          c:/progra~2/codesourcery/source~1/bin/../lib/gcc/arm-none-eabi/4.6.1/thumb2\libgcc.a(_arm_cmpdf2.o)
__copybits                                        c:/progra~2/codesourcery/source~1/bin/../lib/gcc/arm-none-eabi/4.6.1/../../../../arm-none-eabi/lib/thumb2\libc.a(lib_a-mprec.o)
__cxa_allocate_dependent_exception                c:/progra~2/codesourcery/source~1/bin/../lib/gcc/arm-none-eabi/4.6.1/../../../../arm-none-eabi/lib/thumb2\libstdc++.a(eh_alloc.o)
__cxa_allocate_exception                          c:/progra~2/codesourcery/source~1/bin/../lib/gcc/arm-none-eabi/4.6.1/../../../../arm-none-eabi/lib/thumb2\libstdc++.a(eh_alloc.o)
                                                  c:/progra~2/codesourcery/source~1/bin/../lib/gcc/arm-none-eabi/4.6.1/../../../../arm-none-eabi/lib/thumb2\libstdc++.a(eh_call.o)
__cxa_begin_catch                                 c:/progra~2/codesourcery/source~1/bin/../lib/gcc/arm-none-eabi/4.6.1/../../../../arm-none-eabi/lib/thumb2\libstdc++.a(eh_catch.o)
                                                  c:/progra~2/codesourcery/source~1/bin/../lib/gcc/arm-none-eabi/4.6.1/../../../../arm-none-eabi/lib/thumb2\libstdc++.a(vterminate.o)
                                                  c:/progra~2/codesourcery/source~1/bin/../lib/gcc/arm-none-eabi/4.6.1/../../../../arm-none-eabi/lib/thumb2\libstdc++.a(eh_personality.o)
                                                  c:/progra~2/codesourcery/source~1/bin/../lib/gcc/arm-none-eabi/4.6.1/../../../../arm-none-eabi/lib/thumb2\libstdc++.a(eh_throw.o)
                                                  c:/progra~2/codesourcery/source~1/bin/../lib/gcc/arm-none-eabi/4.6.1/../../../../arm-none-eabi/lib/thumb2\libstdc++.a(eh_call.o)
                                                  c:/progra~2/codesourcery/source~1/bin/../lib/gcc/arm-none-eabi/4.6.1/../../../../arm-none-eabi/lib/thumb2\libstdc++.a(eh_terminate.o)
__cxa_begin_cleanup                               c:/progra~2/codesourcery/source~1/bin/../lib/gcc/arm-none-eabi/4.6.1/../../../../arm-none-eabi/lib/thumb2\libstdc++.a(eh_arm.o)
                                                  c:/progra~2/codesourcery/source~1/bin/../lib/gcc/arm-none-eabi/4.6.1/thumb2\libgcc.a(unwind-arm.o)
                                                  c:/progra~2/codesourcery/source~1/bin/../lib/gcc/arm-none-eabi/4.6.1/../../../../arm-none-eabi/lib/thumb2\libstdc++.a(eh_personality.o)
__cxa_call_terminate                              c:/progra~2/codesourcery/source~1/bin/../lib/gcc/arm-none-eabi/4.6.1/../../../../arm-none-eabi/lib/thumb2\libstdc++.a(eh_call.o)
                                                  c:/progra~2/codesourcery/source~1/bin/../lib/gcc/arm-none-eabi/4.6.1/../../../../arm-none-eabi/lib/thumb2\libstdc++.a(eh_personality.o)
__cxa_call_unexpected                             c:/progra~2/codesourcery/source~1/bin/../lib/gcc/arm-none-eabi/4.6.1/../../../../arm-none-eabi/lib/thumb2\libstdc++.a(eh_call.o)
                                                  c:/progra~2/codesourcery/source~1/bin/../lib/gcc/arm-none-eabi/4.6.1/thumb2\libgcc.a(unwind-arm.o)
                                                  c:/progra~2/codesourcery/source~1/bin/../lib/gcc/arm-none-eabi/4.6.1/../../../../arm-none-eabi/lib/thumb2\libstdc++.a(eh_catch.o)
                                                  c:/progra~2/codesourcery/source~1/bin/../lib/gcc/arm-none-eabi/4.6.1/../../../../arm-none-eabi/lib/thumb2\libstdc++.a(eh_terminate.o)
__cxa_current_exception_type                      c:/progra~2/codesourcery/source~1/bin/../lib/gcc/arm-none-eabi/4.6.1/../../../../arm-none-eabi/lib/thumb2\libstdc++.a(eh_type.o)
                                                  c:/progra~2/codesourcery/source~1/bin/../lib/gcc/arm-none-eabi/4.6.1/../../../../arm-none-eabi/lib/thumb2\libstdc++.a(vterminate.o)
__cxa_demangle                                    c:/progra~2/codesourcery/source~1/bin/../lib/gcc/arm-none-eabi/4.6.1/../../../../arm-none-eabi/lib/thumb2\libstdc++.a(cp-demangle.o)
                                                  c:/progra~2/codesourcery/source~1/bin/../lib/gcc/arm-none-eabi/4.6.1/../../../../arm-none-eabi/lib/thumb2\libstdc++.a(vterminate.o)
__cxa_end_catch                                   c:/progra~2/codesourcery/source~1/bin/../lib/gcc/arm-none-eabi/4.6.1/../../../../arm-none-eabi/lib/thumb2\libstdc++.a(eh_catch.o)
                                                  c:/progra~2/codesourcery/source~1/bin/../lib/gcc/arm-none-eabi/4.6.1/../../../../arm-none-eabi/lib/thumb2\libstdc++.a(vterminate.o)
                                                  c:/progra~2/codesourcery/source~1/bin/../lib/gcc/arm-none-eabi/4.6.1/../../../../arm-none-eabi/lib/thumb2\libstdc++.a(eh_call.o)
                                                  c:/progra~2/codesourcery/source~1/bin/../lib/gcc/arm-none-eabi/4.6.1/../../../../arm-none-eabi/lib/thumb2\libstdc++.a(eh_terminate.o)
__cxa_end_cleanup                                 c:/progra~2/codesourcery/source~1/bin/../lib/gcc/arm-none-eabi/4.6.1/../../../../arm-none-eabi/lib/thumb2\libstdc++.a(eh_arm.o)
                                                  c:/progra~2/codesourcery/source~1/bin/../lib/gcc/arm-none-eabi/4.6.1/../../../../arm-none-eabi/lib/thumb2\libstdc++.a(vterminate.o)
                                                  c:/progra~2/codesourcery/source~1/bin/../lib/gcc/arm-none-eabi/4.6.1/../../../../arm-none-eabi/lib/thumb2\libstdc++.a(eh_catch.o)
                                                  c:/progra~2/codesourcery/source~1/bin/../lib/gcc/arm-none-eabi/4.6.1/../../../../arm-none-eabi/lib/thumb2\libstdc++.a(eh_call.o)
                                                  c:/progra~2/codesourcery/source~1/bin/../lib/gcc/arm-none-eabi/4.6.1/../../../../arm-none-eabi/lib/thumb2\libstdc++.a(eh_terminate.o)
__cxa_free_dependent_exception                    c:/progra~2/codesourcery/source~1/bin/../lib/gcc/arm-none-eabi/4.6.1/../../../../arm-none-eabi/lib/thumb2\libstdc++.a(eh_alloc.o)
__cxa_free_exception                              c:/progra~2/codesourcery/source~1/bin/../lib/gcc/arm-none-eabi/4.6.1/../../../../arm-none-eabi/lib/thumb2\libstdc++.a(eh_alloc.o)
                                                  c:/progra~2/codesourcery/source~1/bin/../lib/gcc/arm-none-eabi/4.6.1/../../../../arm-none-eabi/lib/thumb2\libstdc++.a(eh_throw.o)
__cxa_get_exception_ptr                           c:/progra~2/codesourcery/source~1/bin/../lib/gcc/arm-none-eabi/4.6.1/../../../../arm-none-eabi/lib/thumb2\libstdc++.a(eh_catch.o)
__cxa_get_globals                                 c:/progra~2/codesourcery/source~1/bin/../lib/gcc/arm-none-eabi/4.6.1/../../../../arm-none-eabi/lib/thumb2\libstdc++.a(eh_globals.o)
                                                  c:/progra~2/codesourcery/source~1/bin/../lib/gcc/arm-none-eabi/4.6.1/../../../../arm-none-eabi/lib/thumb2\libstdc++.a(eh_type.o)
                                                  c:/progra~2/codesourcery/source~1/bin/../lib/gcc/arm-none-eabi/4.6.1/../../../../arm-none-eabi/lib/thumb2\libstdc++.a(eh_catch.o)
                                                  c:/progra~2/codesourcery/source~1/bin/../lib/gcc/arm-none-eabi/4.6.1/../../../../arm-none-eabi/lib/thumb2\libstdc++.a(eh_alloc.o)
                                                  c:/progra~2/codesourcery/source~1/bin/../lib/gcc/arm-none-eabi/4.6.1/../../../../arm-none-eabi/lib/thumb2\libstdc++.a(eh_arm.o)
                                                  c:/progra~2/codesourcery/source~1/bin/../lib/gcc/arm-none-eabi/4.6.1/../../../../arm-none-eabi/lib/thumb2\libstdc++.a(eh_throw.o)
__cxa_get_globals_fast                            c:/progra~2/codesourcery/source~1/bin/../lib/gcc/arm-none-eabi/4.6.1/../../../../arm-none-eabi/lib/thumb2\libstdc++.a(eh_globals.o)
                                                  c:/progra~2/codesourcery/source~1/bin/../lib/gcc/arm-none-eabi/4.6.1/../../../../arm-none-eabi/lib/thumb2\libstdc++.a(eh_catch.o)
                                                  c:/progra~2/codesourcery/source~1/bin/../lib/gcc/arm-none-eabi/4.6.1/../../../../arm-none-eabi/lib/thumb2\libstdc++.a(eh_call.o)
__cxa_pure_virtual                                c:/progra~2/codesourcery/source~1/bin/../lib/gcc/arm-none-eabi/4.6.1/../../../../arm-none-eabi/lib/thumb2\libstdc++.a(pure.o)
                                                  c:/progra~2/codesourcery/source~1/bin/../lib/gcc/arm-none-eabi/4.6.1/../../../../arm-none-eabi/lib/thumb2\libstdc++.a(eh_exception.o)
                                                  build\Motherboard.o
                                                  build\Menu.o
__cxa_rethrow                                     c:/progra~2/codesourcery/source~1/bin/../lib/gcc/arm-none-eabi/4.6.1/../../../../arm-none-eabi/lib/thumb2\libstdc++.a(eh_throw.o)
                                                  c:/progra~2/codesourcery/source~1/bin/../lib/gcc/arm-none-eabi/4.6.1/../../../../arm-none-eabi/lib/thumb2\libstdc++.a(vterminate.o)
                                                  c:/progra~2/codesourcery/source~1/bin/../lib/gcc/arm-none-eabi/4.6.1/../../../../arm-none-eabi/lib/thumb2\libstdc++.a(eh_call.o)
__cxa_throw                                       c:/progra~2/codesourcery/source~1/bin/../lib/gcc/arm-none-eabi/4.6.1/../../../../arm-none-eabi/lib/thumb2\libstdc++.a(eh_throw.o)
                                                  c:/progra~2/codesourcery/source~1/bin/../lib/gcc/arm-none-eabi/4.6.1/../../../../arm-none-eabi/lib/thumb2\libstdc++.a(eh_call.o)
__cxa_type_match                                  c:/progra~2/codesourcery/source~1/bin/../lib/gcc/arm-none-eabi/4.6.1/../../../../arm-none-eabi/lib/thumb2\libstdc++.a(eh_arm.o)
                                                  c:/progra~2/codesourcery/source~1/bin/../lib/gcc/arm-none-eabi/4.6.1/thumb2\libgcc.a(unwind-arm.o)
                                                  c:/progra~2/codesourcery/source~1/bin/../lib/gcc/arm-none-eabi/4.6.1/../../../../arm-none-eabi/lib/thumb2\libstdc++.a(eh_personality.o)
                                                  c:/progra~2/codesourcery/source~1/bin/../lib/gcc/arm-none-eabi/4.6.1/../../../../arm-none-eabi/lib/thumb2\libstdc++.a(eh_call.o)
__cxxabiv1::__class_type_info::__do_catch(std::type_info const*, void**, unsigned int) const c:/progra~2/codesourcery/source~1/bin/../lib/gcc/arm-none-eabi/4.6.1/../../../../arm-none-eabi/lib/thumb2\libstdc++.a(class_type_info.o)
                                                  c:/progra~2/codesourcery/source~1/bin/../lib/gcc/arm-none-eabi/4.6.1/../../../../arm-none-eabi/lib/thumb2\libstdc++.a(si_class_type_info.o)
__cxxabiv1::__class_type_info::__do_dyncast(int, __cxxabiv1::__class_type_info::__sub_kind, __cxxabiv1::__class_type_info const*, void const*, __cxxabiv1::__class_type_info const*, void const*, __cxxabiv1::__class_type_info::__dyncast_result&) const c:/progra~2/codesourcery/source~1/bin/../lib/gcc/arm-none-eabi/4.6.1/../../../../arm-none-eabi/lib/thumb2\libstdc++.a(class_type_info.o)
__cxxabiv1::__class_type_info::__do_find_public_src(int, void const*, __cxxabiv1::__class_type_info const*, void const*) const c:/progra~2/codesourcery/source~1/bin/../lib/gcc/arm-none-eabi/4.6.1/../../../../arm-none-eabi/lib/thumb2\libstdc++.a(class_type_info.o)
__cxxabiv1::__class_type_info::__do_upcast(__cxxabiv1::__class_type_info const*, void const*, __cxxabiv1::__class_type_info::__upcast_result&) const c:/progra~2/codesourcery/source~1/bin/../lib/gcc/arm-none-eabi/4.6.1/../../../../arm-none-eabi/lib/thumb2\libstdc++.a(class_type_info.o)
                                                  c:/progra~2/codesourcery/source~1/bin/../lib/gcc/arm-none-eabi/4.6.1/../../../../arm-none-eabi/lib/thumb2\libstdc++.a(si_class_type_info.o)
__cxxabiv1::__class_type_info::__do_upcast(__cxxabiv1::__class_type_info const*, void**) const c:/progra~2/codesourcery/source~1/bin/../lib/gcc/arm-none-eabi/4.6.1/../../../../arm-none-eabi/lib/thumb2\libstdc++.a(class_type_info.o)
                                                  c:/progra~2/codesourcery/source~1/bin/../lib/gcc/arm-none-eabi/4.6.1/../../../../arm-none-eabi/lib/thumb2\libstdc++.a(si_class_type_info.o)
__cxxabiv1::__class_type_info::~__class_type_info() c:/progra~2/codesourcery/source~1/bin/../lib/gcc/arm-none-eabi/4.6.1/../../../../arm-none-eabi/lib/thumb2\libstdc++.a(class_type_info.o)
__cxxabiv1::__class_type_info::~__class_type_info() c:/progra~2/codesourcery/source~1/bin/../lib/gcc/arm-none-eabi/4.6.1/../../../../arm-none-eabi/lib/thumb2\libstdc++.a(class_type_info.o)
__cxxabiv1::__class_type_info::~__class_type_info() c:/progra~2/codesourcery/source~1/bin/../lib/gcc/arm-none-eabi/4.6.1/../../../../arm-none-eabi/lib/thumb2\libstdc++.a(class_type_info.o)
                                                  c:/progra~2/codesourcery/source~1/bin/../lib/gcc/arm-none-eabi/4.6.1/../../../../arm-none-eabi/lib/thumb2\libstdc++.a(si_class_type_info.o)
__cxxabiv1::__forced_unwind::~__forced_unwind()   c:/progra~2/codesourcery/source~1/bin/../lib/gcc/arm-none-eabi/4.6.1/../../../../arm-none-eabi/lib/thumb2\libstdc++.a(eh_exception.o)
__cxxabiv1::__forced_unwind::~__forced_unwind()   c:/progra~2/codesourcery/source~1/bin/../lib/gcc/arm-none-eabi/4.6.1/../../../../arm-none-eabi/lib/thumb2\libstdc++.a(eh_exception.o)
__cxxabiv1::__forced_unwind::~__forced_unwind()   c:/progra~2/codesourcery/source~1/bin/../lib/gcc/arm-none-eabi/4.6.1/../../../../arm-none-eabi/lib/thumb2\libstdc++.a(eh_exception.o)
__cxxabiv1::__foreign_exception::~__foreign_exception() c:/progra~2/codesourcery/source~1/bin/../lib/gcc/arm-none-eabi/4.6.1/../../../../arm-none-eabi/lib/thumb2\libstdc++.a(eh_exception.o)
__cxxabiv1::__foreign_exception::~__foreign_exception() c:/progra~2/codesourcery/source~1/bin/../lib/gcc/arm-none-eabi/4.6.1/../../../../arm-none-eabi/lib/thumb2\libstdc++.a(eh_exception.o)
__cxxabiv1::__foreign_exception::~__foreign_exception() c:/progra~2/codesourcery/source~1/bin/../lib/gcc/arm-none-eabi/4.6.1/../../../../arm-none-eabi/lib/thumb2\libstdc++.a(eh_exception.o)
__cxxabiv1::__si_class_type_info::__do_dyncast(int, __cxxabiv1::__class_type_info::__sub_kind, __cxxabiv1::__class_type_info const*, void const*, __cxxabiv1::__class_type_info const*, void const*, __cxxabiv1::__class_type_info::__dyncast_result&) const c:/progra~2/codesourcery/source~1/bin/../lib/gcc/arm-none-eabi/4.6.1/../../../../arm-none-eabi/lib/thumb2\libstdc++.a(si_class_type_info.o)
__cxxabiv1::__si_class_type_info::__do_find_public_src(int, void const*, __cxxabiv1::__class_type_info const*, void const*) const c:/progra~2/codesourcery/source~1/bin/../lib/gcc/arm-none-eabi/4.6.1/../../../../arm-none-eabi/lib/thumb2\libstdc++.a(si_class_type_info.o)
__cxxabiv1::__si_class_type_info::__do_upcast(__cxxabiv1::__class_type_info const*, void const*, __cxxabiv1::__class_type_info::__upcast_result&) const c:/progra~2/codesourcery/source~1/bin/../lib/gcc/arm-none-eabi/4.6.1/../../../../arm-none-eabi/lib/thumb2\libstdc++.a(si_class_type_info.o)
__cxxabiv1::__si_class_type_info::~__si_class_type_info() c:/progra~2/codesourcery/source~1/bin/../lib/gcc/arm-none-eabi/4.6.1/../../../../arm-none-eabi/lib/thumb2\libstdc++.a(si_class_type_info.o)
__cxxabiv1::__si_class_type_info::~__si_class_type_info() c:/progra~2/codesourcery/source~1/bin/../lib/gcc/arm-none-eabi/4.6.1/../../../../arm-none-eabi/lib/thumb2\libstdc++.a(si_class_type_info.o)
__cxxabiv1::__si_class_type_info::~__si_class_type_info() c:/progra~2/codesourcery/source~1/bin/../lib/gcc/arm-none-eabi/4.6.1/../../../../arm-none-eabi/lib/thumb2\libstdc++.a(si_class_type_info.o)
__cxxabiv1::__terminate(void (*)())               c:/progra~2/codesourcery/source~1/bin/../lib/gcc/arm-none-eabi/4.6.1/../../../../arm-none-eabi/lib/thumb2\libstdc++.a(eh_terminate.o)
                                                  c:/progra~2/codesourcery/source~1/bin/../lib/gcc/arm-none-eabi/4.6.1/../../../../arm-none-eabi/lib/thumb2\libstdc++.a(eh_throw.o)
                                                  c:/progra~2/codesourcery/source~1/bin/../lib/gcc/arm-none-eabi/4.6.1/../../../../arm-none-eabi/lib/thumb2\libstdc++.a(eh_call.o)
__cxxabiv1::__terminate_handler                   c:/progra~2/codesourcery/source~1/bin/../lib/gcc/arm-none-eabi/4.6.1/../../../../arm-none-eabi/lib/thumb2\libstdc++.a(eh_term_handler.o)
                                                  c:/progra~2/codesourcery/source~1/bin/../lib/gcc/arm-none-eabi/4.6.1/../../../../arm-none-eabi/lib/thumb2\libstdc++.a(eh_throw.o)
                                                  c:/progra~2/codesourcery/source~1/bin/../lib/gcc/arm-none-eabi/4.6.1/../../../../arm-none-eabi/lib/thumb2\libstdc++.a(eh_terminate.o)
__cxxabiv1::__unexpected(void (*)())              c:/progra~2/codesourcery/source~1/bin/../lib/gcc/arm-none-eabi/4.6.1/../../../../arm-none-eabi/lib/thumb2\libstdc++.a(eh_terminate.o)
                                                  c:/progra~2/codesourcery/source~1/bin/../lib/gcc/arm-none-eabi/4.6.1/../../../../arm-none-eabi/lib/thumb2\libstdc++.a(eh_call.o)
__cxxabiv1::__unexpected_handler                  c:/progra~2/codesourcery/source~1/bin/../lib/gcc/arm-none-eabi/4.6.1/../../../../arm-none-eabi/lib/thumb2\libstdc++.a(eh_unex_handler.o)
                                                  c:/progra~2/codesourcery/source~1/bin/../lib/gcc/arm-none-eabi/4.6.1/../../../../arm-none-eabi/lib/thumb2\libstdc++.a(eh_throw.o)
                                                  c:/progra~2/codesourcery/source~1/bin/../lib/gcc/arm-none-eabi/4.6.1/../../../../arm-none-eabi/lib/thumb2\libstdc++.a(eh_terminate.o)
__d2b                                             c:/progra~2/codesourcery/source~1/bin/../lib/gcc/arm-none-eabi/4.6.1/../../../../arm-none-eabi/lib/thumb2\libc.a(lib_a-mprec.o)
                                                  c:/progra~2/codesourcery/source~1/bin/../lib/gcc/arm-none-eabi/4.6.1/../../../../arm-none-eabi/lib/thumb2\libc.a(lib_a-dtoa.o)
__deregister_frame_info                           c:/progra~2/codesourcery/source~1/bin/../lib/gcc/arm-none-eabi/4.6.1/thumb2/crtbegin.o
__divdf3                                          c:/progra~2/codesourcery/source~1/bin/../lib/gcc/arm-none-eabi/4.6.1/thumb2\libgcc.a(_arm_muldivdf3.o)
__divdi3                                          c:/progra~2/codesourcery/source~1/bin/../lib/gcc/arm-none-eabi/4.6.1/thumb2\libgcc.a(_divdi3.o)
                                                  c:/progra~2/codesourcery/source~1/bin/../lib/gcc/arm-none-eabi/4.6.1/thumb2\libgcc.a(bpabi.o)
__divsf3                                          c:/progra~2/codesourcery/source~1/bin/../lib/gcc/arm-none-eabi/4.6.1/thumb2\libgcc.a(_arm_muldivsf3.o)
__dso_handle                                      c:/progra~2/codesourcery/source~1/bin/../lib/gcc/arm-none-eabi/4.6.1/thumb2/crtbegin.o
__eqdf2                                           c:/progra~2/codesourcery/source~1/bin/../lib/gcc/arm-none-eabi/4.6.1/thumb2\libgcc.a(_arm_cmpdf2.o)
__exidx_end                                       c:/progra~2/codesourcery/source~1/bin/../lib/gcc/arm-none-eabi/4.6.1/thumb2\libgcc.a(unwind-arm.o)
__exidx_start                                     c:/progra~2/codesourcery/source~1/bin/../lib/gcc/arm-none-eabi/4.6.1/thumb2\libgcc.a(unwind-arm.o)
__extendsfdf2                                     c:/progra~2/codesourcery/source~1/bin/../lib/gcc/arm-none-eabi/4.6.1/thumb2\libgcc.a(_arm_addsubdf3.o)
__fixdfsi                                         c:/progra~2/codesourcery/source~1/bin/../lib/gcc/arm-none-eabi/4.6.1/thumb2\libgcc.a(_arm_fixdfsi.o)
__fixsfsi                                         c:/progra~2/codesourcery/source~1/bin/../lib/gcc/arm-none-eabi/4.6.1/thumb2\libgcc.a(_arm_fixsfsi.o)
__floatdidf                                       c:/progra~2/codesourcery/source~1/bin/../lib/gcc/arm-none-eabi/4.6.1/thumb2\libgcc.a(_arm_addsubdf3.o)
__floatdisf                                       c:/progra~2/codesourcery/source~1/bin/../lib/gcc/arm-none-eabi/4.6.1/thumb2\libgcc.a(_arm_addsubsf3.o)
__floatsidf                                       c:/progra~2/codesourcery/source~1/bin/../lib/gcc/arm-none-eabi/4.6.1/thumb2\libgcc.a(_arm_addsubdf3.o)
__floatsisf                                       c:/progra~2/codesourcery/source~1/bin/../lib/gcc/arm-none-eabi/4.6.1/thumb2\libgcc.a(_arm_addsubsf3.o)
__floatundidf                                     c:/progra~2/codesourcery/source~1/bin/../lib/gcc/arm-none-eabi/4.6.1/thumb2\libgcc.a(_arm_addsubdf3.o)
__floatundisf                                     c:/progra~2/codesourcery/source~1/bin/../lib/gcc/arm-none-eabi/4.6.1/thumb2\libgcc.a(_arm_addsubsf3.o)
__floatunsidf                                     c:/progra~2/codesourcery/source~1/bin/../lib/gcc/arm-none-eabi/4.6.1/thumb2\libgcc.a(_arm_addsubdf3.o)
__floatunsisf                                     c:/progra~2/codesourcery/source~1/bin/../lib/gcc/arm-none-eabi/4.6.1/thumb2\libgcc.a(_arm_addsubsf3.o)
__fp_lock_all                                     c:/progra~2/codesourcery/source~1/bin/../lib/gcc/arm-none-eabi/4.6.1/../../../../arm-none-eabi/lib/thumb2\libc.a(lib_a-findfp.o)
__fp_unlock_all                                   c:/progra~2/codesourcery/source~1/bin/../lib/gcc/arm-none-eabi/4.6.1/../../../../arm-none-eabi/lib/thumb2\libc.a(lib_a-findfp.o)
__fpclassifyd                                     c:/progra~2/codesourcery/source~1/bin/../lib/gcc/arm-none-eabi/4.6.1/../../../../arm-none-eabi/lib/thumb2\libc.a(lib_a-s_fpclassify.o)
                                                  c:/progra~2/codesourcery/source~1/bin/../lib/gcc/arm-none-eabi/4.6.1/../../../../arm-none-eabi/lib/thumb2\libc.a(lib_a-svfprintf.o)
__gcclibcxx_demangle_callback                     c:/progra~2/codesourcery/source~1/bin/../lib/gcc/arm-none-eabi/4.6.1/../../../../arm-none-eabi/lib/thumb2\libstdc++.a(cp-demangle.o)
__gedf2                                           c:/progra~2/codesourcery/source~1/bin/../lib/gcc/arm-none-eabi/4.6.1/thumb2\libgcc.a(_arm_cmpdf2.o)
__gnu_Unwind_Backtrace                            c:/progra~2/codesourcery/source~1/bin/../lib/gcc/arm-none-eabi/4.6.1/thumb2\libgcc.a(unwind-arm.o)
                                                  c:/progra~2/codesourcery/source~1/bin/../lib/gcc/arm-none-eabi/4.6.1/thumb2\libgcc.a(libunwind.o)
__gnu_Unwind_Find_exidx                           c:/progra~2/codesourcery/source~1/bin/../lib/gcc/arm-none-eabi/4.6.1/thumb2\libgcc.a(unwind-arm.o)
__gnu_Unwind_ForcedUnwind                         c:/progra~2/codesourcery/source~1/bin/../lib/gcc/arm-none-eabi/4.6.1/thumb2\libgcc.a(unwind-arm.o)
                                                  c:/progra~2/codesourcery/source~1/bin/../lib/gcc/arm-none-eabi/4.6.1/thumb2\libgcc.a(libunwind.o)
__gnu_Unwind_RaiseException                       c:/progra~2/codesourcery/source~1/bin/../lib/gcc/arm-none-eabi/4.6.1/thumb2\libgcc.a(unwind-arm.o)
                                                  c:/progra~2/codesourcery/source~1/bin/../lib/gcc/arm-none-eabi/4.6.1/thumb2\libgcc.a(libunwind.o)
__gnu_Unwind_Restore_VFP                          c:/progra~2/codesourcery/source~1/bin/../lib/gcc/arm-none-eabi/4.6.1/thumb2\libgcc.a(libunwind.o)
                                                  c:/progra~2/codesourcery/source~1/bin/../lib/gcc/arm-none-eabi/4.6.1/thumb2\libgcc.a(unwind-arm.o)
__gnu_Unwind_Restore_VFP_D                        c:/progra~2/codesourcery/source~1/bin/../lib/gcc/arm-none-eabi/4.6.1/thumb2\libgcc.a(libunwind.o)
                                                  c:/progra~2/codesourcery/source~1/bin/../lib/gcc/arm-none-eabi/4.6.1/thumb2\libgcc.a(unwind-arm.o)
__gnu_Unwind_Restore_VFP_D_16_to_31               c:/progra~2/codesourcery/source~1/bin/../lib/gcc/arm-none-eabi/4.6.1/thumb2\libgcc.a(libunwind.o)
                                                  c:/progra~2/codesourcery/source~1/bin/../lib/gcc/arm-none-eabi/4.6.1/thumb2\libgcc.a(unwind-arm.o)
__gnu_Unwind_Restore_WMMXC                        c:/progra~2/codesourcery/source~1/bin/../lib/gcc/arm-none-eabi/4.6.1/thumb2\libgcc.a(libunwind.o)
                                                  c:/progra~2/codesourcery/source~1/bin/../lib/gcc/arm-none-eabi/4.6.1/thumb2\libgcc.a(unwind-arm.o)
__gnu_Unwind_Restore_WMMXD                        c:/progra~2/codesourcery/source~1/bin/../lib/gcc/arm-none-eabi/4.6.1/thumb2\libgcc.a(libunwind.o)
                                                  c:/progra~2/codesourcery/source~1/bin/../lib/gcc/arm-none-eabi/4.6.1/thumb2\libgcc.a(unwind-arm.o)
__gnu_Unwind_Resume                               c:/progra~2/codesourcery/source~1/bin/../lib/gcc/arm-none-eabi/4.6.1/thumb2\libgcc.a(unwind-arm.o)
                                                  c:/progra~2/codesourcery/source~1/bin/../lib/gcc/arm-none-eabi/4.6.1/thumb2\libgcc.a(libunwind.o)
__gnu_Unwind_Resume_or_Rethrow                    c:/progra~2/codesourcery/source~1/bin/../lib/gcc/arm-none-eabi/4.6.1/thumb2\libgcc.a(unwind-arm.o)
                                                  c:/progra~2/codesourcery/source~1/bin/../lib/gcc/arm-none-eabi/4.6.1/thumb2\libgcc.a(libunwind.o)
__gnu_Unwind_Save_VFP                             c:/progra~2/codesourcery/source~1/bin/../lib/gcc/arm-none-eabi/4.6.1/thumb2\libgcc.a(libunwind.o)
                                                  c:/progra~2/codesourcery/source~1/bin/../lib/gcc/arm-none-eabi/4.6.1/thumb2\libgcc.a(unwind-arm.o)
__gnu_Unwind_Save_VFP_D                           c:/progra~2/codesourcery/source~1/bin/../lib/gcc/arm-none-eabi/4.6.1/thumb2\libgcc.a(libunwind.o)
                                                  c:/progra~2/codesourcery/source~1/bin/../lib/gcc/arm-none-eabi/4.6.1/thumb2\libgcc.a(unwind-arm.o)
__gnu_Unwind_Save_VFP_D_16_to_31                  c:/progra~2/codesourcery/source~1/bin/../lib/gcc/arm-none-eabi/4.6.1/thumb2\libgcc.a(libunwind.o)
                                                  c:/progra~2/codesourcery/source~1/bin/../lib/gcc/arm-none-eabi/4.6.1/thumb2\libgcc.a(unwind-arm.o)
__gnu_Unwind_Save_WMMXC                           c:/progra~2/codesourcery/source~1/bin/../lib/gcc/arm-none-eabi/4.6.1/thumb2\libgcc.a(libunwind.o)
                                                  c:/progra~2/codesourcery/source~1/bin/../lib/gcc/arm-none-eabi/4.6.1/thumb2\libgcc.a(unwind-arm.o)
__gnu_Unwind_Save_WMMXD                           c:/progra~2/codesourcery/source~1/bin/../lib/gcc/arm-none-eabi/4.6.1/thumb2\libgcc.a(libunwind.o)
                                                  c:/progra~2/codesourcery/source~1/bin/../lib/gcc/arm-none-eabi/4.6.1/thumb2\libgcc.a(unwind-arm.o)
__gnu_cxx::__verbose_terminate_handler()          c:/progra~2/codesourcery/source~1/bin/../lib/gcc/arm-none-eabi/4.6.1/../../../../arm-none-eabi/lib/thumb2\libstdc++.a(vterminate.o)
                                                  c:/progra~2/codesourcery/source~1/bin/../lib/gcc/arm-none-eabi/4.6.1/../../../../arm-none-eabi/lib/thumb2\libstdc++.a(eh_term_handler.o)
__gnu_end_cleanup                                 c:/progra~2/codesourcery/source~1/bin/../lib/gcc/arm-none-eabi/4.6.1/../../../../arm-none-eabi/lib/thumb2\libstdc++.a(eh_arm.o)
__gnu_ldivmod_helper                              c:/progra~2/codesourcery/source~1/bin/../lib/gcc/arm-none-eabi/4.6.1/thumb2\libgcc.a(bpabi.o)
__gnu_uldivmod_helper                             c:/progra~2/codesourcery/source~1/bin/../lib/gcc/arm-none-eabi/4.6.1/thumb2\libgcc.a(bpabi.o)
                                                  c:/progra~2/codesourcery/source~1/bin/../lib/gcc/arm-none-eabi/4.6.1/thumb2\libgcc.a(_aeabi_uldivmod.o)
__gnu_unwind_execute                              c:/progra~2/codesourcery/source~1/bin/../lib/gcc/arm-none-eabi/4.6.1/thumb2\libgcc.a(pr-support.o)
                                                  c:/progra~2/codesourcery/source~1/bin/../lib/gcc/arm-none-eabi/4.6.1/thumb2\libgcc.a(unwind-arm.o)
__gnu_unwind_frame                                c:/progra~2/codesourcery/source~1/bin/../lib/gcc/arm-none-eabi/4.6.1/thumb2\libgcc.a(pr-support.o)
                                                  c:/progra~2/codesourcery/source~1/bin/../lib/gcc/arm-none-eabi/4.6.1/../../../../arm-none-eabi/lib/thumb2\libstdc++.a(eh_personality.o)
__gtdf2                                           c:/progra~2/codesourcery/source~1/bin/../lib/gcc/arm-none-eabi/4.6.1/thumb2\libgcc.a(_arm_cmpdf2.o)
__gxx_personality_v0                              c:/progra~2/codesourcery/source~1/bin/../lib/gcc/arm-none-eabi/4.6.1/../../../../arm-none-eabi/lib/thumb2\libstdc++.a(eh_personality.o)
                                                  c:/progra~2/codesourcery/source~1/bin/../lib/gcc/arm-none-eabi/4.6.1/../../../../arm-none-eabi/lib/thumb2\libstdc++.a(vterminate.o)
                                                  c:/progra~2/codesourcery/source~1/bin/../lib/gcc/arm-none-eabi/4.6.1/../../../../arm-none-eabi/lib/thumb2\libstdc++.a(eh_catch.o)
                                                  c:/progra~2/codesourcery/source~1/bin/../lib/gcc/arm-none-eabi/4.6.1/../../../../arm-none-eabi/lib/thumb2\libstdc++.a(eh_call.o)
                                                  c:/progra~2/codesourcery/source~1/bin/../lib/gcc/arm-none-eabi/4.6.1/../../../../arm-none-eabi/lib/thumb2\libstdc++.a(eh_terminate.o)
__hi0bits                                         c:/progra~2/codesourcery/source~1/bin/../lib/gcc/arm-none-eabi/4.6.1/../../../../arm-none-eabi/lib/thumb2\libc.a(lib_a-mprec.o)
                                                  c:/progra~2/codesourcery/source~1/bin/../lib/gcc/arm-none-eabi/4.6.1/../../../../arm-none-eabi/lib/thumb2\libc.a(lib_a-dtoa.o)
__i2b                                             c:/progra~2/codesourcery/source~1/bin/../lib/gcc/arm-none-eabi/4.6.1/../../../../arm-none-eabi/lib/thumb2\libc.a(lib_a-mprec.o)
                                                  c:/progra~2/codesourcery/source~1/bin/../lib/gcc/arm-none-eabi/4.6.1/../../../../arm-none-eabi/lib/thumb2\libc.a(lib_a-dtoa.o)
__init_array_end                                  c:/progra~2/codesourcery/source~1/bin/../lib/gcc/arm-none-eabi/4.6.1/../../../../arm-none-eabi/lib/thumb2\libc.a(lib_a-init.o)
__init_array_start                                c:/progra~2/codesourcery/source~1/bin/../lib/gcc/arm-none-eabi/4.6.1/../../../../arm-none-eabi/lib/thumb2\libc.a(lib_a-init.o)
__ledf2                                           c:/progra~2/codesourcery/source~1/bin/../lib/gcc/arm-none-eabi/4.6.1/thumb2\libgcc.a(_arm_cmpdf2.o)
__libc_init_array                                 c:/progra~2/codesourcery/source~1/bin/../lib/gcc/arm-none-eabi/4.6.1/../../../../arm-none-eabi/lib/thumb2\libc.a(lib_a-init.o)
                                                  build\system\startup_LPC17xx.o
__lo0bits                                         c:/progra~2/codesourcery/source~1/bin/../lib/gcc/arm-none-eabi/4.6.1/../../../../arm-none-eabi/lib/thumb2\libc.a(lib_a-mprec.o)
__locale_charset                                  c:/progra~2/codesourcery/source~1/bin/../lib/gcc/arm-none-eabi/4.6.1/../../../../arm-none-eabi/lib/thumb2\libc.a(lib_a-locale.o)
__locale_cjk_lang                                 c:/progra~2/codesourcery/source~1/bin/../lib/gcc/arm-none-eabi/4.6.1/../../../../arm-none-eabi/lib/thumb2\libc.a(lib_a-locale.o)
__locale_mb_cur_max                               c:/progra~2/codesourcery/source~1/bin/../lib/gcc/arm-none-eabi/4.6.1/../../../../arm-none-eabi/lib/thumb2\libc.a(lib_a-locale.o)
__locale_msgcharset                               c:/progra~2/codesourcery/source~1/bin/../lib/gcc/arm-none-eabi/4.6.1/../../../../arm-none-eabi/lib/thumb2\libc.a(lib_a-locale.o)
__lshift                                          c:/progra~2/codesourcery/source~1/bin/../lib/gcc/arm-none-eabi/4.6.1/../../../../arm-none-eabi/lib/thumb2\libc.a(lib_a-mprec.o)
                                                  c:/progra~2/codesourcery/source~1/bin/../lib/gcc/arm-none-eabi/4.6.1/../../../../arm-none-eabi/lib/thumb2\libc.a(lib_a-dtoa.o)
__ltdf2                                           c:/progra~2/codesourcery/source~1/bin/../lib/gcc/arm-none-eabi/4.6.1/thumb2\libgcc.a(_arm_cmpdf2.o)
__malloc_av_                                      c:/progra~2/codesourcery/source~1/bin/../lib/gcc/arm-none-eabi/4.6.1/../../../../arm-none-eabi/lib/thumb2\libc.a(lib_a-mallocr.o)
                                                  c:/progra~2/codesourcery/source~1/bin/../lib/gcc/arm-none-eabi/4.6.1/../../../../arm-none-eabi/lib/thumb2\libc.a(lib_a-freer.o)
                                                  c:/progra~2/codesourcery/source~1/bin/../lib/gcc/arm-none-eabi/4.6.1/../../../../arm-none-eabi/lib/thumb2\libc.a(lib_a-reallocr.o)
__malloc_current_mallinfo                         c:/progra~2/codesourcery/source~1/bin/../lib/gcc/arm-none-eabi/4.6.1/../../../../arm-none-eabi/lib/thumb2\libc.a(lib_a-mallocr.o)
                                                  c:/progra~2/codesourcery/source~1/bin/../lib/gcc/arm-none-eabi/4.6.1/../../../../arm-none-eabi/lib/thumb2\libc.a(lib_a-freer.o)
__malloc_lock                                     c:/progra~2/codesourcery/source~1/bin/../lib/gcc/arm-none-eabi/4.6.1/../../../../arm-none-eabi/lib/thumb2\libc.a(lib_a-mlock.o)
                                                  c:/progra~2/codesourcery/source~1/bin/../lib/gcc/arm-none-eabi/4.6.1/../../../../arm-none-eabi/lib/thumb2\libc.a(lib_a-freer.o)
                                                  c:/progra~2/codesourcery/source~1/bin/../lib/gcc/arm-none-eabi/4.6.1/../../../../arm-none-eabi/lib/thumb2\libc.a(lib_a-reallocr.o)
                                                  c:/progra~2/codesourcery/source~1/bin/../lib/gcc/arm-none-eabi/4.6.1/../../../../arm-none-eabi/lib/thumb2\libc.a(lib_a-mallocr.o)
__malloc_max_sbrked_mem                           c:/progra~2/codesourcery/source~1/bin/../lib/gcc/arm-none-eabi/4.6.1/../../../../arm-none-eabi/lib/thumb2\libc.a(lib_a-mallocr.o)
__malloc_max_total_mem                            c:/progra~2/codesourcery/source~1/bin/../lib/gcc/arm-none-eabi/4.6.1/../../../../arm-none-eabi/lib/thumb2\libc.a(lib_a-mallocr.o)
__malloc_sbrk_base                                c:/progra~2/codesourcery/source~1/bin/../lib/gcc/arm-none-eabi/4.6.1/../../../../arm-none-eabi/lib/thumb2\libc.a(lib_a-mallocr.o)
                                                  c:/progra~2/codesourcery/source~1/bin/../lib/gcc/arm-none-eabi/4.6.1/../../../../arm-none-eabi/lib/thumb2\libc.a(lib_a-freer.o)
__malloc_top_pad                                  c:/progra~2/codesourcery/source~1/bin/../lib/gcc/arm-none-eabi/4.6.1/../../../../arm-none-eabi/lib/thumb2\libc.a(lib_a-mallocr.o)
                                                  c:/progra~2/codesourcery/source~1/bin/../lib/gcc/arm-none-eabi/4.6.1/../../../../arm-none-eabi/lib/thumb2\libc.a(lib_a-freer.o)
__malloc_trim_threshold                           c:/progra~2/codesourcery/source~1/bin/../lib/gcc/arm-none-eabi/4.6.1/../../../../arm-none-eabi/lib/thumb2\libc.a(lib_a-mallocr.o)
                                                  c:/progra~2/codesourcery/source~1/bin/../lib/gcc/arm-none-eabi/4.6.1/../../../../arm-none-eabi/lib/thumb2\libc.a(lib_a-freer.o)
__malloc_unlock                                   c:/progra~2/codesourcery/source~1/bin/../lib/gcc/arm-none-eabi/4.6.1/../../../../arm-none-eabi/lib/thumb2\libc.a(lib_a-mlock.o)
                                                  c:/progra~2/codesourcery/source~1/bin/../lib/gcc/arm-none-eabi/4.6.1/../../../../arm-none-eabi/lib/thumb2\libc.a(lib_a-freer.o)
                                                  c:/progra~2/codesourcery/source~1/bin/../lib/gcc/arm-none-eabi/4.6.1/../../../../arm-none-eabi/lib/thumb2\libc.a(lib_a-reallocr.o)
                                                  c:/progra~2/codesourcery/source~1/bin/../lib/gcc/arm-none-eabi/4.6.1/../../../../arm-none-eabi/lib/thumb2\libc.a(lib_a-mallocr.o)
__mb_cur_max                                      c:/progra~2/codesourcery/source~1/bin/../lib/gcc/arm-none-eabi/4.6.1/../../../../arm-none-eabi/lib/thumb2\libc.a(lib_a-locale.o)
__mcmp                                            c:/progra~2/codesourcery/source~1/bin/../lib/gcc/arm-none-eabi/4.6.1/../../../../arm-none-eabi/lib/thumb2\libc.a(lib_a-mprec.o)
                                                  c:/progra~2/codesourcery/source~1/bin/../lib/gcc/arm-none-eabi/4.6.1/../../../../arm-none-eabi/lib/thumb2\libc.a(lib_a-dtoa.o)
__mdiff                                           c:/progra~2/codesourcery/source~1/bin/../lib/gcc/arm-none-eabi/4.6.1/../../../../arm-none-eabi/lib/thumb2\libc.a(lib_a-mprec.o)
                                                  c:/progra~2/codesourcery/source~1/bin/../lib/gcc/arm-none-eabi/4.6.1/../../../../arm-none-eabi/lib/thumb2\libc.a(lib_a-dtoa.o)
__mlocale_changed                                 c:/progra~2/codesourcery/source~1/bin/../lib/gcc/arm-none-eabi/4.6.1/../../../../arm-none-eabi/lib/thumb2\libc.a(lib_a-locale.o)
__mprec_bigtens                                   c:/progra~2/codesourcery/source~1/bin/../lib/gcc/arm-none-eabi/4.6.1/../../../../arm-none-eabi/lib/thumb2\libc.a(lib_a-mprec.o)
                                                  c:/progra~2/codesourcery/source~1/bin/../lib/gcc/arm-none-eabi/4.6.1/../../../../arm-none-eabi/lib/thumb2\libc.a(lib_a-dtoa.o)
__mprec_tens                                      c:/progra~2/codesourcery/source~1/bin/../lib/gcc/arm-none-eabi/4.6.1/../../../../arm-none-eabi/lib/thumb2\libc.a(lib_a-mprec.o)
                                                  c:/progra~2/codesourcery/source~1/bin/../lib/gcc/arm-none-eabi/4.6.1/../../../../arm-none-eabi/lib/thumb2\libc.a(lib_a-dtoa.o)
__mprec_tinytens                                  c:/progra~2/codesourcery/source~1/bin/../lib/gcc/arm-none-eabi/4.6.1/../../../../arm-none-eabi/lib/thumb2\libc.a(lib_a-mprec.o)
__muldf3                                          c:/progra~2/codesourcery/source~1/bin/../lib/gcc/arm-none-eabi/4.6.1/thumb2\libgcc.a(_arm_muldivdf3.o)
__mulsf3                                          c:/progra~2/codesourcery/source~1/bin/../lib/gcc/arm-none-eabi/4.6.1/thumb2\libgcc.a(_arm_muldivsf3.o)
__multadd                                         c:/progra~2/codesourcery/source~1/bin/../lib/gcc/arm-none-eabi/4.6.1/../../../../arm-none-eabi/lib/thumb2\libc.a(lib_a-mprec.o)
                                                  c:/progra~2/codesourcery/source~1/bin/../lib/gcc/arm-none-eabi/4.6.1/../../../../arm-none-eabi/lib/thumb2\libc.a(lib_a-dtoa.o)
__multiply                                        c:/progra~2/codesourcery/source~1/bin/../lib/gcc/arm-none-eabi/4.6.1/../../../../arm-none-eabi/lib/thumb2\libc.a(lib_a-mprec.o)
                                                  c:/progra~2/codesourcery/source~1/bin/../lib/gcc/arm-none-eabi/4.6.1/../../../../arm-none-eabi/lib/thumb2\libc.a(lib_a-dtoa.o)
__nedf2                                           c:/progra~2/codesourcery/source~1/bin/../lib/gcc/arm-none-eabi/4.6.1/thumb2\libgcc.a(_arm_cmpdf2.o)
__nlocale_changed                                 c:/progra~2/codesourcery/source~1/bin/../lib/gcc/arm-none-eabi/4.6.1/../../../../arm-none-eabi/lib/thumb2\libc.a(lib_a-locale.o)
__pow5mult                                        c:/progra~2/codesourcery/source~1/bin/../lib/gcc/arm-none-eabi/4.6.1/../../../../arm-none-eabi/lib/thumb2\libc.a(lib_a-mprec.o)
                                                  c:/progra~2/codesourcery/source~1/bin/../lib/gcc/arm-none-eabi/4.6.1/../../../../arm-none-eabi/lib/thumb2\libc.a(lib_a-dtoa.o)
__preinit_array_end                               c:/progra~2/codesourcery/source~1/bin/../lib/gcc/arm-none-eabi/4.6.1/../../../../arm-none-eabi/lib/thumb2\libc.a(lib_a-init.o)
__preinit_array_start                             c:/progra~2/codesourcery/source~1/bin/../lib/gcc/arm-none-eabi/4.6.1/../../../../arm-none-eabi/lib/thumb2\libc.a(lib_a-init.o)
__ratio                                           c:/progra~2/codesourcery/source~1/bin/../lib/gcc/arm-none-eabi/4.6.1/../../../../arm-none-eabi/lib/thumb2\libc.a(lib_a-mprec.o)
__register_frame_info                             c:/progra~2/codesourcery/source~1/bin/../lib/gcc/arm-none-eabi/4.6.1/thumb2/crtbegin.o
__restore_core_regs                               c:/progra~2/codesourcery/source~1/bin/../lib/gcc/arm-none-eabi/4.6.1/thumb2\libgcc.a(libunwind.o)
__s2b                                             c:/progra~2/codesourcery/source~1/bin/../lib/gcc/arm-none-eabi/4.6.1/../../../../arm-none-eabi/lib/thumb2\libc.a(lib_a-mprec.o)
__sclose                                          c:/progra~2/codesourcery/source~1/bin/../lib/gcc/arm-none-eabi/4.6.1/../../../../arm-none-eabi/lib/thumb2\libc.a(lib_a-stdio.o)
                                                  c:/progra~2/codesourcery/source~1/bin/../lib/gcc/arm-none-eabi/4.6.1/../../../../arm-none-eabi/lib/thumb2\libc.a(lib_a-findfp.o)
__seofread                                        c:/progra~2/codesourcery/source~1/bin/../lib/gcc/arm-none-eabi/4.6.1/../../../../arm-none-eabi/lib/thumb2\libc.a(lib_a-stdio.o)
__sf_fake_stderr                                  c:/progra~2/codesourcery/source~1/bin/../lib/gcc/arm-none-eabi/4.6.1/../../../../arm-none-eabi/lib/thumb2\libc.a(lib_a-findfp.o)
                                                  c:/progra~2/codesourcery/source~1/bin/../lib/gcc/arm-none-eabi/4.6.1/../../../../arm-none-eabi/lib/thumb2\libc.a(lib_a-fclose.o)
                                                  c:/progra~2/codesourcery/source~1/bin/../lib/gcc/arm-none-eabi/4.6.1/../../../../arm-none-eabi/lib/thumb2\libc.a(lib_a-fflush.o)
                                                  c:/progra~2/codesourcery/source~1/bin/../lib/gcc/arm-none-eabi/4.6.1/../../../../arm-none-eabi/lib/thumb2\libc.a(lib_a-wsetup.o)
                                                  c:/progra~2/codesourcery/source~1/bin/../lib/gcc/arm-none-eabi/4.6.1/../../../../arm-none-eabi/lib/thumb2\libc.a(lib_a-wbuf.o)
                                                  c:/progra~2/codesourcery/source~1/bin/../lib/gcc/arm-none-eabi/4.6.1/../../../../arm-none-eabi/lib/thumb2\libc.a(lib_a-putc.o)
                                                  c:/progra~2/codesourcery/source~1/bin/../lib/gcc/arm-none-eabi/4.6.1/../../../../arm-none-eabi/lib/thumb2\libc.a(lib_a-impure.o)
                                                  c:/progra~2/codesourcery/source~1/bin/../lib/gcc/arm-none-eabi/4.6.1/../../../../arm-none-eabi/lib/thumb2\libc.a(lib_a-fwrite.o)
                                                  c:/progra~2/codesourcery/source~1/bin/../lib/gcc/arm-none-eabi/4.6.1/../../../../arm-none-eabi/lib/thumb2\libc.a(lib_a-fputs.o)
                                                  c:/progra~2/codesourcery/source~1/bin/../lib/gcc/arm-none-eabi/4.6.1/../../../../arm-none-eabi/lib/thumb2\libc.a(lib_a-fputc.o)
__sf_fake_stdin                                   c:/progra~2/codesourcery/source~1/bin/../lib/gcc/arm-none-eabi/4.6.1/../../../../arm-none-eabi/lib/thumb2\libc.a(lib_a-findfp.o)
                                                  c:/progra~2/codesourcery/source~1/bin/../lib/gcc/arm-none-eabi/4.6.1/../../../../arm-none-eabi/lib/thumb2\libc.a(lib_a-fclose.o)
                                                  c:/progra~2/codesourcery/source~1/bin/../lib/gcc/arm-none-eabi/4.6.1/../../../../arm-none-eabi/lib/thumb2\libc.a(lib_a-fflush.o)
                                                  c:/progra~2/codesourcery/source~1/bin/../lib/gcc/arm-none-eabi/4.6.1/../../../../arm-none-eabi/lib/thumb2\libc.a(lib_a-wsetup.o)
                                                  c:/progra~2/codesourcery/source~1/bin/../lib/gcc/arm-none-eabi/4.6.1/../../../../arm-none-eabi/lib/thumb2\libc.a(lib_a-wbuf.o)
                                                  c:/progra~2/codesourcery/source~1/bin/../lib/gcc/arm-none-eabi/4.6.1/../../../../arm-none-eabi/lib/thumb2\libc.a(lib_a-putc.o)
                                                  c:/progra~2/codesourcery/source~1/bin/../lib/gcc/arm-none-eabi/4.6.1/../../../../arm-none-eabi/lib/thumb2\libc.a(lib_a-impure.o)
                                                  c:/progra~2/codesourcery/source~1/bin/../lib/gcc/arm-none-eabi/4.6.1/../../../../arm-none-eabi/lib/thumb2\libc.a(lib_a-fwrite.o)
                                                  c:/progra~2/codesourcery/source~1/bin/../lib/gcc/arm-none-eabi/4.6.1/../../../../arm-none-eabi/lib/thumb2\libc.a(lib_a-fputs.o)
                                                  c:/progra~2/codesourcery/source~1/bin/../lib/gcc/arm-none-eabi/4.6.1/../../../../arm-none-eabi/lib/thumb2\libc.a(lib_a-fputc.o)
__sf_fake_stdout                                  c:/progra~2/codesourcery/source~1/bin/../lib/gcc/arm-none-eabi/4.6.1/../../../../arm-none-eabi/lib/thumb2\libc.a(lib_a-findfp.o)
                                                  c:/progra~2/codesourcery/source~1/bin/../lib/gcc/arm-none-eabi/4.6.1/../../../../arm-none-eabi/lib/thumb2\libc.a(lib_a-fclose.o)
                                                  c:/progra~2/codesourcery/source~1/bin/../lib/gcc/arm-none-eabi/4.6.1/../../../../arm-none-eabi/lib/thumb2\libc.a(lib_a-fflush.o)
                                                  c:/progra~2/codesourcery/source~1/bin/../lib/gcc/arm-none-eabi/4.6.1/../../../../arm-none-eabi/lib/thumb2\libc.a(lib_a-wsetup.o)
                                                  c:/progra~2/codesourcery/source~1/bin/../lib/gcc/arm-none-eabi/4.6.1/../../../../arm-none-eabi/lib/thumb2\libc.a(lib_a-wbuf.o)
                                                  c:/progra~2/codesourcery/source~1/bin/../lib/gcc/arm-none-eabi/4.6.1/../../../../arm-none-eabi/lib/thumb2\libc.a(lib_a-putc.o)
                                                  c:/progra~2/codesourcery/source~1/bin/../lib/gcc/arm-none-eabi/4.6.1/../../../../arm-none-eabi/lib/thumb2\libc.a(lib_a-impure.o)
                                                  c:/progra~2/codesourcery/source~1/bin/../lib/gcc/arm-none-eabi/4.6.1/../../../../arm-none-eabi/lib/thumb2\libc.a(lib_a-fwrite.o)
                                                  c:/progra~2/codesourcery/source~1/bin/../lib/gcc/arm-none-eabi/4.6.1/../../../../arm-none-eabi/lib/thumb2\libc.a(lib_a-fputs.o)
                                                  c:/progra~2/codesourcery/source~1/bin/../lib/gcc/arm-none-eabi/4.6.1/../../../../arm-none-eabi/lib/thumb2\libc.a(lib_a-fputc.o)
__sfmoreglue                                      c:/progra~2/codesourcery/source~1/bin/../lib/gcc/arm-none-eabi/4.6.1/../../../../arm-none-eabi/lib/thumb2\libc.a(lib_a-findfp.o)
__sfp                                             c:/progra~2/codesourcery/source~1/bin/../lib/gcc/arm-none-eabi/4.6.1/../../../../arm-none-eabi/lib/thumb2\libc.a(lib_a-findfp.o)
__sfp_lock_acquire                                c:/progra~2/codesourcery/source~1/bin/../lib/gcc/arm-none-eabi/4.6.1/../../../../arm-none-eabi/lib/thumb2\libc.a(lib_a-findfp.o)
                                                  c:/progra~2/codesourcery/source~1/bin/../lib/gcc/arm-none-eabi/4.6.1/../../../../arm-none-eabi/lib/thumb2\libc.a(lib_a-fclose.o)
                                                  c:/progra~2/codesourcery/source~1/bin/../lib/gcc/arm-none-eabi/4.6.1/../../../../arm-none-eabi/lib/thumb2\libc.a(lib_a-fwalk.o)
__sfp_lock_release                                c:/progra~2/codesourcery/source~1/bin/../lib/gcc/arm-none-eabi/4.6.1/../../../../arm-none-eabi/lib/thumb2\libc.a(lib_a-findfp.o)
                                                  c:/progra~2/codesourcery/source~1/bin/../lib/gcc/arm-none-eabi/4.6.1/../../../../arm-none-eabi/lib/thumb2\libc.a(lib_a-fclose.o)
                                                  c:/progra~2/codesourcery/source~1/bin/../lib/gcc/arm-none-eabi/4.6.1/../../../../arm-none-eabi/lib/thumb2\libc.a(lib_a-fwalk.o)
__sfvwrite_r                                      c:/progra~2/codesourcery/source~1/bin/../lib/gcc/arm-none-eabi/4.6.1/../../../../arm-none-eabi/lib/thumb2\libc.a(lib_a-fvwrite.o)
                                                  c:/progra~2/codesourcery/source~1/bin/../lib/gcc/arm-none-eabi/4.6.1/../../../../arm-none-eabi/lib/thumb2\libc.a(lib_a-fwrite.o)
                                                  c:/progra~2/codesourcery/source~1/bin/../lib/gcc/arm-none-eabi/4.6.1/../../../../arm-none-eabi/lib/thumb2\libc.a(lib_a-fputs.o)
__sigtramp                                        c:/progra~2/codesourcery/source~1/bin/../lib/gcc/arm-none-eabi/4.6.1/../../../../arm-none-eabi/lib/thumb2\libc.a(lib_a-signal.o)
__sigtramp_r                                      c:/progra~2/codesourcery/source~1/bin/../lib/gcc/arm-none-eabi/4.6.1/../../../../arm-none-eabi/lib/thumb2\libc.a(lib_a-signal.o)
__sinit                                           c:/progra~2/codesourcery/source~1/bin/../lib/gcc/arm-none-eabi/4.6.1/../../../../arm-none-eabi/lib/thumb2\libc.a(lib_a-findfp.o)
                                                  c:/progra~2/codesourcery/source~1/bin/../lib/gcc/arm-none-eabi/4.6.1/../../../../arm-none-eabi/lib/thumb2\libc.a(lib_a-fclose.o)
                                                  c:/progra~2/codesourcery/source~1/bin/../lib/gcc/arm-none-eabi/4.6.1/../../../../arm-none-eabi/lib/thumb2\libc.a(lib_a-fflush.o)
                                                  c:/progra~2/codesourcery/source~1/bin/../lib/gcc/arm-none-eabi/4.6.1/../../../../arm-none-eabi/lib/thumb2\libc.a(lib_a-wsetup.o)
                                                  c:/progra~2/codesourcery/source~1/bin/../lib/gcc/arm-none-eabi/4.6.1/../../../../arm-none-eabi/lib/thumb2\libc.a(lib_a-wbuf.o)
                                                  c:/progra~2/codesourcery/source~1/bin/../lib/gcc/arm-none-eabi/4.6.1/../../../../arm-none-eabi/lib/thumb2\libc.a(lib_a-putc.o)
                                                  c:/progra~2/codesourcery/source~1/bin/../lib/gcc/arm-none-eabi/4.6.1/../../../../arm-none-eabi/lib/thumb2\libc.a(lib_a-fwrite.o)
                                                  c:/progra~2/codesourcery/source~1/bin/../lib/gcc/arm-none-eabi/4.6.1/../../../../arm-none-eabi/lib/thumb2\libc.a(lib_a-fputs.o)
                                                  c:/progra~2/codesourcery/source~1/bin/../lib/gcc/arm-none-eabi/4.6.1/../../../../arm-none-eabi/lib/thumb2\libc.a(lib_a-fputc.o)
__sinit_lock_acquire                              c:/progra~2/codesourcery/source~1/bin/../lib/gcc/arm-none-eabi/4.6.1/../../../../arm-none-eabi/lib/thumb2\libc.a(lib_a-findfp.o)
__sinit_lock_release                              c:/progra~2/codesourcery/source~1/bin/../lib/gcc/arm-none-eabi/4.6.1/../../../../arm-none-eabi/lib/thumb2\libc.a(lib_a-findfp.o)
__smakebuf_r                                      c:/progra~2/codesourcery/source~1/bin/../lib/gcc/arm-none-eabi/4.6.1/../../../../arm-none-eabi/lib/thumb2\libc.a(lib_a-makebuf.o)
                                                  c:/progra~2/codesourcery/source~1/bin/../lib/gcc/arm-none-eabi/4.6.1/../../../../arm-none-eabi/lib/thumb2\libc.a(lib_a-wsetup.o)
__sread                                           c:/progra~2/codesourcery/source~1/bin/../lib/gcc/arm-none-eabi/4.6.1/../../../../arm-none-eabi/lib/thumb2\libc.a(lib_a-stdio.o)
                                                  c:/progra~2/codesourcery/source~1/bin/../lib/gcc/arm-none-eabi/4.6.1/../../../../arm-none-eabi/lib/thumb2\libc.a(lib_a-findfp.o)
__sseek                                           c:/progra~2/codesourcery/source~1/bin/../lib/gcc/arm-none-eabi/4.6.1/../../../../arm-none-eabi/lib/thumb2\libc.a(lib_a-stdio.o)
                                                  c:/progra~2/codesourcery/source~1/bin/../lib/gcc/arm-none-eabi/4.6.1/../../../../arm-none-eabi/lib/thumb2\libc.a(lib_a-makebuf.o)
                                                  c:/progra~2/codesourcery/source~1/bin/../lib/gcc/arm-none-eabi/4.6.1/../../../../arm-none-eabi/lib/thumb2\libc.a(lib_a-findfp.o)
__ssprint_r                                       c:/progra~2/codesourcery/source~1/bin/../lib/gcc/arm-none-eabi/4.6.1/../../../../arm-none-eabi/lib/thumb2\libc.a(lib_a-svfiprintf.o)
                                                  c:/progra~2/codesourcery/source~1/bin/../lib/gcc/arm-none-eabi/4.6.1/../../../../arm-none-eabi/lib/thumb2\libc.a(lib_a-svfprintf.o)
__subdf3                                          c:/progra~2/codesourcery/source~1/bin/../lib/gcc/arm-none-eabi/4.6.1/thumb2\libgcc.a(_arm_addsubdf3.o)
__subsf3                                          c:/progra~2/codesourcery/source~1/bin/../lib/gcc/arm-none-eabi/4.6.1/thumb2\libgcc.a(_arm_addsubsf3.o)
__swbuf                                           c:/progra~2/codesourcery/source~1/bin/../lib/gcc/arm-none-eabi/4.6.1/../../../../arm-none-eabi/lib/thumb2\libc.a(lib_a-wbuf.o)
__swbuf_r                                         c:/progra~2/codesourcery/source~1/bin/../lib/gcc/arm-none-eabi/4.6.1/../../../../arm-none-eabi/lib/thumb2\libc.a(lib_a-wbuf.o)
                                                  c:/progra~2/codesourcery/source~1/bin/../lib/gcc/arm-none-eabi/4.6.1/../../../../arm-none-eabi/lib/thumb2\libc.a(lib_a-putc.o)
__swrite                                          c:/progra~2/codesourcery/source~1/bin/../lib/gcc/arm-none-eabi/4.6.1/../../../../arm-none-eabi/lib/thumb2\libc.a(lib_a-stdio.o)
                                                  c:/progra~2/codesourcery/source~1/bin/../lib/gcc/arm-none-eabi/4.6.1/../../../../arm-none-eabi/lib/thumb2\libc.a(lib_a-findfp.o)
__swsetup_r                                       c:/progra~2/codesourcery/source~1/bin/../lib/gcc/arm-none-eabi/4.6.1/../../../../arm-none-eabi/lib/thumb2\libc.a(lib_a-wsetup.o)
                                                  c:/progra~2/codesourcery/source~1/bin/../lib/gcc/arm-none-eabi/4.6.1/../../../../arm-none-eabi/lib/thumb2\libc.a(lib_a-wbuf.o)
                                                  c:/progra~2/codesourcery/source~1/bin/../lib/gcc/arm-none-eabi/4.6.1/../../../../arm-none-eabi/lib/thumb2\libc.a(lib_a-fvwrite.o)
__udivdi3                                         c:/progra~2/codesourcery/source~1/bin/../lib/gcc/arm-none-eabi/4.6.1/thumb2\libgcc.a(_udivdi3.o)
                                                  c:/progra~2/codesourcery/source~1/bin/../lib/gcc/arm-none-eabi/4.6.1/thumb2\libgcc.a(bpabi.o)
__udivsi3                                         c:/progra~2/codesourcery/source~1/bin/../lib/gcc/arm-none-eabi/4.6.1/thumb2\libgcc.a(_udivsi3.o)
__ulp                                             c:/progra~2/codesourcery/source~1/bin/../lib/gcc/arm-none-eabi/4.6.1/../../../../arm-none-eabi/lib/thumb2\libc.a(lib_a-mprec.o)
_calloc_r                                         c:/progra~2/codesourcery/source~1/bin/../lib/gcc/arm-none-eabi/4.6.1/../../../../arm-none-eabi/lib/thumb2\libc.a(lib_a-callocr.o)
                                                  c:/progra~2/codesourcery/source~1/bin/../lib/gcc/arm-none-eabi/4.6.1/../../../../arm-none-eabi/lib/thumb2\libc.a(lib_a-mprec.o)
_cleanup                                          c:/progra~2/codesourcery/source~1/bin/../lib/gcc/arm-none-eabi/4.6.1/../../../../arm-none-eabi/lib/thumb2\libc.a(lib_a-findfp.o)
_cleanup_r                                        c:/progra~2/codesourcery/source~1/bin/../lib/gcc/arm-none-eabi/4.6.1/../../../../arm-none-eabi/lib/thumb2\libc.a(lib_a-findfp.o)
                                                  c:/progra~2/codesourcery/source~1/bin/../lib/gcc/arm-none-eabi/4.6.1/../../../../arm-none-eabi/lib/thumb2\libc.a(lib_a-makebuf.o)
_close                                            build\system\syscalls.o
                                                  c:/progra~2/codesourcery/source~1/bin/../lib/gcc/arm-none-eabi/4.6.1/../../../../arm-none-eabi/lib/thumb2\libc.a(lib_a-closer.o)
_close_r                                          c:/progra~2/codesourcery/source~1/bin/../lib/gcc/arm-none-eabi/4.6.1/../../../../arm-none-eabi/lib/thumb2\libc.a(lib_a-closer.o)
                                                  c:/progra~2/codesourcery/source~1/bin/../lib/gcc/arm-none-eabi/4.6.1/../../../../arm-none-eabi/lib/thumb2\libc.a(lib_a-stdio.o)
_crc_ibutton_update                               build\Packet.o
_delay_ms                                         build\Delay.o
                                                  build\test_led.o
                                                  build\UART.o
                                                  build\Main.o
                                                  build\system\startup_LPC17xx.o
_delay_s                                          build\Delay.o
_delay_us                                         build\Delay.o
                                                  build\UART.o
                                                  build\LiquidCrystal.o
_dtoa_r                                           c:/progra~2/codesourcery/source~1/bin/../lib/gcc/arm-none-eabi/4.6.1/../../../../arm-none-eabi/lib/thumb2\libc.a(lib_a-dtoa.o)
                                                  c:/progra~2/codesourcery/source~1/bin/../lib/gcc/arm-none-eabi/4.6.1/../../../../arm-none-eabi/lib/thumb2\libc.a(lib_a-svfprintf.o)
_ebss                                             build\system\startup_LPC17xx.o
_edata                                            build\system\startup_LPC17xx.o
_efastcode                                        build\system\startup_LPC17xx.o
_end                                              build\system\syscalls.o
_exit                                             build\system\syscalls.o
                                                  c:/progra~2/codesourcery/source~1/bin/../lib/gcc/arm-none-eabi/4.6.1/../../../../arm-none-eabi/lib/thumb2\libc.a(lib_a-abort.o)
_fclose_r                                         c:/progra~2/codesourcery/source~1/bin/../lib/gcc/arm-none-eabi/4.6.1/../../../../arm-none-eabi/lib/thumb2\libc.a(lib_a-fclose.o)
_fflush_r                                         c:/progra~2/codesourcery/source~1/bin/../lib/gcc/arm-none-eabi/4.6.1/../../../../arm-none-eabi/lib/thumb2\libc.a(lib_a-fflush.o)
                                                  c:/progra~2/codesourcery/source~1/bin/../lib/gcc/arm-none-eabi/4.6.1/../../../../arm-none-eabi/lib/thumb2\libc.a(lib_a-fclose.o)
                                                  c:/progra~2/codesourcery/source~1/bin/../lib/gcc/arm-none-eabi/4.6.1/../../../../arm-none-eabi/lib/thumb2\libc.a(lib_a-wbuf.o)
                                                  c:/progra~2/codesourcery/source~1/bin/../lib/gcc/arm-none-eabi/4.6.1/../../../../arm-none-eabi/lib/thumb2\libc.a(lib_a-fvwrite.o)
_fini                                             c:/progra~2/codesourcery/source~1/bin/../lib/gcc/arm-none-eabi/4.6.1/thumb2/crti.o
_fputc_r                                          c:/progra~2/codesourcery/source~1/bin/../lib/gcc/arm-none-eabi/4.6.1/../../../../arm-none-eabi/lib/thumb2\libc.a(lib_a-fputc.o)
_fputs_r                                          c:/progra~2/codesourcery/source~1/bin/../lib/gcc/arm-none-eabi/4.6.1/../../../../arm-none-eabi/lib/thumb2\libc.a(lib_a-fputs.o)
_free_r                                           c:/progra~2/codesourcery/source~1/bin/../lib/gcc/arm-none-eabi/4.6.1/../../../../arm-none-eabi/lib/thumb2\libc.a(lib_a-freer.o)
                                                  c:/progra~2/codesourcery/source~1/bin/../lib/gcc/arm-none-eabi/4.6.1/../../../../arm-none-eabi/lib/thumb2\libc.a(lib_a-fclose.o)
                                                  c:/progra~2/codesourcery/source~1/bin/../lib/gcc/arm-none-eabi/4.6.1/../../../../arm-none-eabi/lib/thumb2\libc.a(lib_a-svfiprintf.o)
                                                  c:/progra~2/codesourcery/source~1/bin/../lib/gcc/arm-none-eabi/4.6.1/../../../../arm-none-eabi/lib/thumb2\libc.a(lib_a-fflush.o)
                                                  c:/progra~2/codesourcery/source~1/bin/../lib/gcc/arm-none-eabi/4.6.1/../../../../arm-none-eabi/lib/thumb2\libc.a(lib_a-wsetup.o)
                                                  c:/progra~2/codesourcery/source~1/bin/../lib/gcc/arm-none-eabi/4.6.1/../../../../arm-none-eabi/lib/thumb2\libc.a(lib_a-reent.o)
                                                  c:/progra~2/codesourcery/source~1/bin/../lib/gcc/arm-none-eabi/4.6.1/../../../../arm-none-eabi/lib/thumb2\libc.a(lib_a-reallocr.o)
                                                  c:/progra~2/codesourcery/source~1/bin/../lib/gcc/arm-none-eabi/4.6.1/../../../../arm-none-eabi/lib/thumb2\libc.a(lib_a-mallocr.o)
                                                  c:/progra~2/codesourcery/source~1/bin/../lib/gcc/arm-none-eabi/4.6.1/../../../../arm-none-eabi/lib/thumb2\libc.a(lib_a-malloc.o)
                                                  c:/progra~2/codesourcery/source~1/bin/../lib/gcc/arm-none-eabi/4.6.1/../../../../arm-none-eabi/lib/thumb2\libc.a(lib_a-fvwrite.o)
_fstat                                            build\system\syscalls.o
                                                  c:/progra~2/codesourcery/source~1/bin/../lib/gcc/arm-none-eabi/4.6.1/../../../../arm-none-eabi/lib/thumb2\libc.a(lib_a-fstatr.o)
_fstat_r                                          c:/progra~2/codesourcery/source~1/bin/../lib/gcc/arm-none-eabi/4.6.1/../../../../arm-none-eabi/lib/thumb2\libc.a(lib_a-fstatr.o)
                                                  c:/progra~2/codesourcery/source~1/bin/../lib/gcc/arm-none-eabi/4.6.1/../../../../arm-none-eabi/lib/thumb2\libc.a(lib_a-makebuf.o)
_fwalk                                            c:/progra~2/codesourcery/source~1/bin/../lib/gcc/arm-none-eabi/4.6.1/../../../../arm-none-eabi/lib/thumb2\libc.a(lib_a-fwalk.o)
                                                  c:/progra~2/codesourcery/source~1/bin/../lib/gcc/arm-none-eabi/4.6.1/../../../../arm-none-eabi/lib/thumb2\libc.a(lib_a-findfp.o)
_fwalk_reent                                      c:/progra~2/codesourcery/source~1/bin/../lib/gcc/arm-none-eabi/4.6.1/../../../../arm-none-eabi/lib/thumb2\libc.a(lib_a-fwalk.o)
                                                  c:/progra~2/codesourcery/source~1/bin/../lib/gcc/arm-none-eabi/4.6.1/../../../../arm-none-eabi/lib/thumb2\libc.a(lib_a-fflush.o)
_fwrite_r                                         c:/progra~2/codesourcery/source~1/bin/../lib/gcc/arm-none-eabi/4.6.1/../../../../arm-none-eabi/lib/thumb2\libc.a(lib_a-fwrite.o)
_getpid                                           build\system\syscalls.o
                                                  c:/progra~2/codesourcery/source~1/bin/../lib/gcc/arm-none-eabi/4.6.1/../../../../arm-none-eabi/lib/thumb2\libc.a(lib_a-signalr.o)
_getpid_r                                         c:/progra~2/codesourcery/source~1/bin/../lib/gcc/arm-none-eabi/4.6.1/../../../../arm-none-eabi/lib/thumb2\libc.a(lib_a-signalr.o)
                                                  c:/progra~2/codesourcery/source~1/bin/../lib/gcc/arm-none-eabi/4.6.1/../../../../arm-none-eabi/lib/thumb2\libc.a(lib_a-signal.o)
_global_impure_ptr                                c:/progra~2/codesourcery/source~1/bin/../lib/gcc/arm-none-eabi/4.6.1/../../../../arm-none-eabi/lib/thumb2\libc.a(lib_a-impure.o)
                                                  c:/progra~2/codesourcery/source~1/bin/../lib/gcc/arm-none-eabi/4.6.1/../../../../arm-none-eabi/lib/thumb2\libc.a(lib_a-findfp.o)
                                                  c:/progra~2/codesourcery/source~1/bin/../lib/gcc/arm-none-eabi/4.6.1/../../../../arm-none-eabi/lib/thumb2\libc.a(lib_a-fflush.o)
_impure_ptr                                       c:/progra~2/codesourcery/source~1/bin/../lib/gcc/arm-none-eabi/4.6.1/../../../../arm-none-eabi/lib/thumb2\libc.a(lib_a-impure.o)
                                                  c:/progra~2/codesourcery/source~1/bin/../lib/gcc/arm-none-eabi/4.6.1/../../../../arm-none-eabi/lib/thumb2\libc.a(lib_a-fclose.o)
                                                  c:/progra~2/codesourcery/source~1/bin/../lib/gcc/arm-none-eabi/4.6.1/../../../../arm-none-eabi/lib/thumb2\libc.a(lib_a-locale.o)
                                                  c:/progra~2/codesourcery/source~1/bin/../lib/gcc/arm-none-eabi/4.6.1/../../../../arm-none-eabi/lib/thumb2\libc.a(lib_a-findfp.o)
                                                  c:/progra~2/codesourcery/source~1/bin/../lib/gcc/arm-none-eabi/4.6.1/../../../../arm-none-eabi/lib/thumb2\libc.a(lib_a-fflush.o)
                                                  c:/progra~2/codesourcery/source~1/bin/../lib/gcc/arm-none-eabi/4.6.1/../../../../arm-none-eabi/lib/thumb2\libc.a(lib_a-wsetup.o)
                                                  c:/progra~2/codesourcery/source~1/bin/../lib/gcc/arm-none-eabi/4.6.1/../../../../arm-none-eabi/lib/thumb2\libc.a(lib_a-wbuf.o)
                                                  c:/progra~2/codesourcery/source~1/bin/../lib/gcc/arm-none-eabi/4.6.1/../../../../arm-none-eabi/lib/thumb2\libc.a(lib_a-syswrite.o)
                                                  c:/progra~2/codesourcery/source~1/bin/../lib/gcc/arm-none-eabi/4.6.1/../../../../arm-none-eabi/lib/thumb2\libc.a(lib_a-sprintf.o)
                                                  c:/progra~2/codesourcery/source~1/bin/../lib/gcc/arm-none-eabi/4.6.1/../../../../arm-none-eabi/lib/thumb2\libc.a(lib_a-signal.o)
                                                  c:/progra~2/codesourcery/source~1/bin/../lib/gcc/arm-none-eabi/4.6.1/../../../../arm-none-eabi/lib/thumb2\libc.a(lib_a-reent.o)
                                                  c:/progra~2/codesourcery/source~1/bin/../lib/gcc/arm-none-eabi/4.6.1/../../../../arm-none-eabi/lib/thumb2\libc.a(lib_a-realloc.o)
                                                  c:/progra~2/codesourcery/source~1/bin/../lib/gcc/arm-none-eabi/4.6.1/../../../../arm-none-eabi/lib/thumb2\libc.a(lib_a-rand.o)
                                                  c:/progra~2/codesourcery/source~1/bin/../lib/gcc/arm-none-eabi/4.6.1/../../../../arm-none-eabi/lib/thumb2\libc.a(lib_a-putc.o)
                                                  c:/progra~2/codesourcery/source~1/bin/../lib/gcc/arm-none-eabi/4.6.1/../../../../arm-none-eabi/lib/thumb2\libc.a(lib_a-malloc.o)
                                                  c:/progra~2/codesourcery/source~1/bin/../lib/gcc/arm-none-eabi/4.6.1/../../../../arm-none-eabi/lib/thumb2\libc.a(lib_a-fwrite.o)
                                                  c:/progra~2/codesourcery/source~1/bin/../lib/gcc/arm-none-eabi/4.6.1/../../../../arm-none-eabi/lib/thumb2\libc.a(lib_a-fputs.o)
                                                  c:/progra~2/codesourcery/source~1/bin/../lib/gcc/arm-none-eabi/4.6.1/../../../../arm-none-eabi/lib/thumb2\libc.a(lib_a-fputc.o)
                                                  c:/progra~2/codesourcery/source~1/bin/../lib/gcc/arm-none-eabi/4.6.1/../../../../arm-none-eabi/lib/thumb2\libstdc++.a(vterminate.o)
_init                                             c:/progra~2/codesourcery/source~1/bin/../lib/gcc/arm-none-eabi/4.6.1/thumb2/crti.o
                                                  c:/progra~2/codesourcery/source~1/bin/../lib/gcc/arm-none-eabi/4.6.1/../../../../arm-none-eabi/lib/thumb2\libc.a(lib_a-init.o)
_init_signal                                      c:/progra~2/codesourcery/source~1/bin/../lib/gcc/arm-none-eabi/4.6.1/../../../../arm-none-eabi/lib/thumb2\libc.a(lib_a-signal.o)
_init_signal_r                                    c:/progra~2/codesourcery/source~1/bin/../lib/gcc/arm-none-eabi/4.6.1/../../../../arm-none-eabi/lib/thumb2\libc.a(lib_a-signal.o)
_isatty                                           build\system\syscalls.o
                                                  c:/progra~2/codesourcery/source~1/bin/../lib/gcc/arm-none-eabi/4.6.1/../../../../arm-none-eabi/lib/thumb2\libc.a(lib_a-isattyr.o)
_isatty_r                                         c:/progra~2/codesourcery/source~1/bin/../lib/gcc/arm-none-eabi/4.6.1/../../../../arm-none-eabi/lib/thumb2\libc.a(lib_a-isattyr.o)
                                                  c:/progra~2/codesourcery/source~1/bin/../lib/gcc/arm-none-eabi/4.6.1/../../../../arm-none-eabi/lib/thumb2\libc.a(lib_a-makebuf.o)
_kill                                             build\system\syscalls.o
                                                  c:/progra~2/codesourcery/source~1/bin/../lib/gcc/arm-none-eabi/4.6.1/../../../../arm-none-eabi/lib/thumb2\libc.a(lib_a-signalr.o)
_kill_r                                           c:/progra~2/codesourcery/source~1/bin/../lib/gcc/arm-none-eabi/4.6.1/../../../../arm-none-eabi/lib/thumb2\libc.a(lib_a-signalr.o)
                                                  c:/progra~2/codesourcery/source~1/bin/../lib/gcc/arm-none-eabi/4.6.1/../../../../arm-none-eabi/lib/thumb2\libc.a(lib_a-signal.o)
_localeconv_r                                     c:/progra~2/codesourcery/source~1/bin/../lib/gcc/arm-none-eabi/4.6.1/../../../../arm-none-eabi/lib/thumb2\libc.a(lib_a-locale.o)
                                                  c:/progra~2/codesourcery/source~1/bin/../lib/gcc/arm-none-eabi/4.6.1/../../../../arm-none-eabi/lib/thumb2\libc.a(lib_a-svfprintf.o)
_lseek                                            build\system\syscalls.o
                                                  c:/progra~2/codesourcery/source~1/bin/../lib/gcc/arm-none-eabi/4.6.1/../../../../arm-none-eabi/lib/thumb2\libc.a(lib_a-lseekr.o)
_lseek_r                                          c:/progra~2/codesourcery/source~1/bin/../lib/gcc/arm-none-eabi/4.6.1/../../../../arm-none-eabi/lib/thumb2\libc.a(lib_a-lseekr.o)
                                                  c:/progra~2/codesourcery/source~1/bin/../lib/gcc/arm-none-eabi/4.6.1/../../../../arm-none-eabi/lib/thumb2\libc.a(lib_a-stdio.o)
_malloc_r                                         c:/progra~2/codesourcery/source~1/bin/../lib/gcc/arm-none-eabi/4.6.1/../../../../arm-none-eabi/lib/thumb2\libc.a(lib_a-mallocr.o)
                                                  c:/progra~2/codesourcery/source~1/bin/../lib/gcc/arm-none-eabi/4.6.1/../../../../arm-none-eabi/lib/thumb2\libc.a(lib_a-callocr.o)
                                                  c:/progra~2/codesourcery/source~1/bin/../lib/gcc/arm-none-eabi/4.6.1/../../../../arm-none-eabi/lib/thumb2\libc.a(lib_a-svfiprintf.o)
                                                  c:/progra~2/codesourcery/source~1/bin/../lib/gcc/arm-none-eabi/4.6.1/../../../../arm-none-eabi/lib/thumb2\libc.a(lib_a-makebuf.o)
                                                  c:/progra~2/codesourcery/source~1/bin/../lib/gcc/arm-none-eabi/4.6.1/../../../../arm-none-eabi/lib/thumb2\libc.a(lib_a-findfp.o)
                                                  c:/progra~2/codesourcery/source~1/bin/../lib/gcc/arm-none-eabi/4.6.1/../../../../arm-none-eabi/lib/thumb2\libc.a(lib_a-svfprintf.o)
                                                  c:/progra~2/codesourcery/source~1/bin/../lib/gcc/arm-none-eabi/4.6.1/../../../../arm-none-eabi/lib/thumb2\libc.a(lib_a-signal.o)
                                                  c:/progra~2/codesourcery/source~1/bin/../lib/gcc/arm-none-eabi/4.6.1/../../../../arm-none-eabi/lib/thumb2\libc.a(lib_a-reallocr.o)
                                                  c:/progra~2/codesourcery/source~1/bin/../lib/gcc/arm-none-eabi/4.6.1/../../../../arm-none-eabi/lib/thumb2\libc.a(lib_a-malloc.o)
                                                  c:/progra~2/codesourcery/source~1/bin/../lib/gcc/arm-none-eabi/4.6.1/../../../../arm-none-eabi/lib/thumb2\libc.a(lib_a-fvwrite.o)
_malloc_trim_r                                    c:/progra~2/codesourcery/source~1/bin/../lib/gcc/arm-none-eabi/4.6.1/../../../../arm-none-eabi/lib/thumb2\libc.a(lib_a-freer.o)
_mprec_log10                                      c:/progra~2/codesourcery/source~1/bin/../lib/gcc/arm-none-eabi/4.6.1/../../../../arm-none-eabi/lib/thumb2\libc.a(lib_a-mprec.o)
_putc_r                                           c:/progra~2/codesourcery/source~1/bin/../lib/gcc/arm-none-eabi/4.6.1/../../../../arm-none-eabi/lib/thumb2\libc.a(lib_a-putc.o)
                                                  c:/progra~2/codesourcery/source~1/bin/../lib/gcc/arm-none-eabi/4.6.1/../../../../arm-none-eabi/lib/thumb2\libc.a(lib_a-fputc.o)
_raise_r                                          c:/progra~2/codesourcery/source~1/bin/../lib/gcc/arm-none-eabi/4.6.1/../../../../arm-none-eabi/lib/thumb2\libc.a(lib_a-signal.o)
_read                                             build\system\syscalls.o
                                                  c:/progra~2/codesourcery/source~1/bin/../lib/gcc/arm-none-eabi/4.6.1/../../../../arm-none-eabi/lib/thumb2\libc.a(lib_a-readr.o)
_read_r                                           c:/progra~2/codesourcery/source~1/bin/../lib/gcc/arm-none-eabi/4.6.1/../../../../arm-none-eabi/lib/thumb2\libc.a(lib_a-readr.o)
                                                  c:/progra~2/codesourcery/source~1/bin/../lib/gcc/arm-none-eabi/4.6.1/../../../../arm-none-eabi/lib/thumb2\libc.a(lib_a-stdio.o)
_realloc_r                                        c:/progra~2/codesourcery/source~1/bin/../lib/gcc/arm-none-eabi/4.6.1/../../../../arm-none-eabi/lib/thumb2\libc.a(lib_a-reallocr.o)
                                                  c:/progra~2/codesourcery/source~1/bin/../lib/gcc/arm-none-eabi/4.6.1/../../../../arm-none-eabi/lib/thumb2\libc.a(lib_a-svfiprintf.o)
                                                  c:/progra~2/codesourcery/source~1/bin/../lib/gcc/arm-none-eabi/4.6.1/../../../../arm-none-eabi/lib/thumb2\libc.a(lib_a-realloc.o)
                                                  c:/progra~2/codesourcery/source~1/bin/../lib/gcc/arm-none-eabi/4.6.1/../../../../arm-none-eabi/lib/thumb2\libc.a(lib_a-fvwrite.o)
_reclaim_reent                                    c:/progra~2/codesourcery/source~1/bin/../lib/gcc/arm-none-eabi/4.6.1/../../../../arm-none-eabi/lib/thumb2\libc.a(lib_a-reent.o)
_sbrk                                             build\system\syscalls.o
                                                  c:/progra~2/codesourcery/source~1/bin/../lib/gcc/arm-none-eabi/4.6.1/../../../../arm-none-eabi/lib/thumb2\libc.a(lib_a-sbrkr.o)
_sbrk_r                                           c:/progra~2/codesourcery/source~1/bin/../lib/gcc/arm-none-eabi/4.6.1/../../../../arm-none-eabi/lib/thumb2\libc.a(lib_a-sbrkr.o)
                                                  c:/progra~2/codesourcery/source~1/bin/../lib/gcc/arm-none-eabi/4.6.1/../../../../arm-none-eabi/lib/thumb2\libc.a(lib_a-freer.o)
                                                  c:/progra~2/codesourcery/source~1/bin/../lib/gcc/arm-none-eabi/4.6.1/../../../../arm-none-eabi/lib/thumb2\libc.a(lib_a-mallocr.o)
_sbss                                             build\system\startup_LPC17xx.o
_sdata                                            build\system\startup_LPC17xx.o
_setlocale_r                                      c:/progra~2/codesourcery/source~1/bin/../lib/gcc/arm-none-eabi/4.6.1/../../../../arm-none-eabi/lib/thumb2\libc.a(lib_a-locale.o)
_sfastcode                                        build\system\startup_LPC17xx.o
_sidata                                           build\system\startup_LPC17xx.o
_sifastcode                                       build\system\startup_LPC17xx.o
_signal_r                                         c:/progra~2/codesourcery/source~1/bin/../lib/gcc/arm-none-eabi/4.6.1/../../../../arm-none-eabi/lib/thumb2\libc.a(lib_a-signal.o)
_sprintf_r                                        c:/progra~2/codesourcery/source~1/bin/../lib/gcc/arm-none-eabi/4.6.1/../../../../arm-none-eabi/lib/thumb2\libc.a(lib_a-sprintf.o)
_stack                                            build\system\startup_LPC17xx.o
_svfiprintf_r                                     c:/progra~2/codesourcery/source~1/bin/../lib/gcc/arm-none-eabi/4.6.1/../../../../arm-none-eabi/lib/thumb2\libc.a(lib_a-svfiprintf.o)
_svfprintf_r                                      c:/progra~2/codesourcery/source~1/bin/../lib/gcc/arm-none-eabi/4.6.1/../../../../arm-none-eabi/lib/thumb2\libc.a(lib_a-svfprintf.o)
                                                  c:/progra~2/codesourcery/source~1/bin/../lib/gcc/arm-none-eabi/4.6.1/../../../../arm-none-eabi/lib/thumb2\libc.a(lib_a-sprintf.o)
_wrapup_reent                                     c:/progra~2/codesourcery/source~1/bin/../lib/gcc/arm-none-eabi/4.6.1/../../../../arm-none-eabi/lib/thumb2\libc.a(lib_a-reent.o)
_write                                            build\system\syscalls.o
                                                  c:/progra~2/codesourcery/source~1/bin/../lib/gcc/arm-none-eabi/4.6.1/../../../../arm-none-eabi/lib/thumb2\libc.a(lib_a-writer.o)
_write_r                                          c:/progra~2/codesourcery/source~1/bin/../lib/gcc/arm-none-eabi/4.6.1/../../../../arm-none-eabi/lib/thumb2\libc.a(lib_a-writer.o)
                                                  c:/progra~2/codesourcery/source~1/bin/../lib/gcc/arm-none-eabi/4.6.1/../../../../arm-none-eabi/lib/thumb2\libc.a(lib_a-stdio.o)
                                                  c:/progra~2/codesourcery/source~1/bin/../lib/gcc/arm-none-eabi/4.6.1/../../../../arm-none-eabi/lib/thumb2\libc.a(lib_a-syswrite.o)
abort                                             c:/progra~2/codesourcery/source~1/bin/../lib/gcc/arm-none-eabi/4.6.1/../../../../arm-none-eabi/lib/thumb2\libc.a(lib_a-abort.o)
                                                  c:/progra~2/codesourcery/source~1/bin/../lib/gcc/arm-none-eabi/4.6.1/thumb2\libgcc.a(pr-support.o)
                                                  c:/progra~2/codesourcery/source~1/bin/../lib/gcc/arm-none-eabi/4.6.1/thumb2\libgcc.a(unwind-arm.o)
                                                  c:/progra~2/codesourcery/source~1/bin/../lib/gcc/arm-none-eabi/4.6.1/../../../../arm-none-eabi/lib/thumb2\libstdc++.a(vterminate.o)
                                                  c:/progra~2/codesourcery/source~1/bin/../lib/gcc/arm-none-eabi/4.6.1/../../../../arm-none-eabi/lib/thumb2\libstdc++.a(eh_personality.o)
                                                  c:/progra~2/codesourcery/source~1/bin/../lib/gcc/arm-none-eabi/4.6.1/../../../../arm-none-eabi/lib/thumb2\libstdc++.a(eh_terminate.o)
                                                  build\system\syscalls.o
blink_count                                       build\Motherboard.o
blink_ovfs_remaining                              build\Motherboard.o
blink_state                                       build\Motherboard.o
blinked_so_far                                    build\Motherboard.o
byte_in                                           build\UART.o
check_failed                                      build\lib\source\lpc17xx_libcfg_default.o
                                                  build\lib\source\lpc17xx_uart.o
                                                  build\lib\source\lpc17xx_timer.o
                                                  build\lib\source\lpc17xx_spi.o
                                                  build\lib\source\lpc17xx_i2c.o
                                                  build\lib\source\lpc17xx_adc.o
cleanup_glue                                      c:/progra~2/codesourcery/source~1/bin/../lib/gcc/arm-none-eabi/4.6.1/../../../../arm-none-eabi/lib/thumb2\libc.a(lib_a-reent.o)
command::buffer_data                              build\Command.o
command::command_buffer                           build\Command.o
command::delay_timeout                            build\Command.o
command::getRemainingCapacity()                   build\Command.o
                                                  build\Host.o
command::homing_timeout                           build\Command.o
command::isEmpty()                                build\Command.o
                                                  build\Host.o
command::isPaused()                               build\Command.o
                                                  build\Motherboard.o
                                                  build\Host.o
command::mode                                     build\Command.o
command::outstanding_tool_command                 build\Command.o
command::pause(bool)                              build\Command.o
                                                  build\Host.o
command::paused                                   build\Command.o
command::pop16()                                  build\Command.o
command::pop32()                                  build\Command.o
command::pop8()                                   build\Command.o
command::push(unsigned char)                      build\Command.o
                                                  build\Host.o
command::reset()                                  build\Command.o
                                                  build\Main.o
                                                  build\Host.o
                                                  build\DebugPacketProcessor.o
command::runCommandSlice()                        build\Command.o
                                                  build\Main.o
command::tool_wait_timeout                        build\Command.o
debugSlaveOut                                     build\DebugPacketProcessor.o
eeprom::getEeprom16(unsigned long, unsigned short) build\EepromMap.o
eeprom::getEeprom8(unsigned long, unsigned char)  build\EepromMap.o
eeprom::init()                                    build\EepromMap.o
                                                  build\Main.o
errno                                             c:/progra~2/codesourcery/source~1/bin/../lib/gcc/arm-none-eabi/4.6.1/../../../../arm-none-eabi/lib/thumb2\libc.a(lib_a-readr.o)
                                                  c:/progra~2/codesourcery/source~1/bin/../lib/gcc/arm-none-eabi/4.6.1/../../../../arm-none-eabi/lib/thumb2\libc.a(lib_a-lseekr.o)
                                                  c:/progra~2/codesourcery/source~1/bin/../lib/gcc/arm-none-eabi/4.6.1/../../../../arm-none-eabi/lib/thumb2\libc.a(lib_a-isattyr.o)
                                                  c:/progra~2/codesourcery/source~1/bin/../lib/gcc/arm-none-eabi/4.6.1/../../../../arm-none-eabi/lib/thumb2\libc.a(lib_a-fstatr.o)
                                                  c:/progra~2/codesourcery/source~1/bin/../lib/gcc/arm-none-eabi/4.6.1/../../../../arm-none-eabi/lib/thumb2\libc.a(lib_a-closer.o)
                                                  c:/progra~2/codesourcery/source~1/bin/../lib/gcc/arm-none-eabi/4.6.1/../../../../arm-none-eabi/lib/thumb2\libc.a(lib_a-writer.o)
                                                  c:/progra~2/codesourcery/source~1/bin/../lib/gcc/arm-none-eabi/4.6.1/../../../../arm-none-eabi/lib/thumb2\libc.a(lib_a-signalr.o)
                                                  c:/progra~2/codesourcery/source~1/bin/../lib/gcc/arm-none-eabi/4.6.1/../../../../arm-none-eabi/lib/thumb2\libc.a(lib_a-sbrkr.o)
                                                  c:/progra~2/codesourcery/source~1/bin/../lib/gcc/arm-none-eabi/4.6.1/../../../../arm-none-eabi/lib/thumb2\libc.a(lib_a-reent.o)
                                                  build\system\syscalls.o
fat_close                                         build\lib_sd\fat.o
fat_close_dir                                     build\lib_sd\fat.o
fat_close_file                                    build\lib_sd\fat.o
                                                  build\SDCard.o
fat_create_dir                                    build\lib_sd\fat.o
fat_create_file                                   build\lib_sd\fat.o
                                                  build\SDCard.o
fat_delete_file                                   build\lib_sd\fat.o
                                                  build\SDCard.o
fat_get_dir_entry_of_path                         build\lib_sd\fat.o
                                                  build\SDCard.o
fat_get_fs_free                                   build\lib_sd\fat.o
fat_get_fs_size                                   build\lib_sd\fat.o
fat_open                                          build\lib_sd\fat.o
                                                  build\SDCard.o
fat_open_dir                                      build\lib_sd\fat.o
                                                  build\SDCard.o
fat_open_file                                     build\lib_sd\fat.o
                                                  build\SDCard.o
fat_read_dir                                      build\lib_sd\fat.o
                                                  build\SDCard.o
fat_read_file                                     build\lib_sd\fat.o
                                                  build\SDCard.o
fat_reset_dir                                     build\lib_sd\fat.o
                                                  build\SDCard.o
fat_resize_file                                   build\lib_sd\fat.o
fat_seek_file                                     build\lib_sd\fat.o
                                                  build\SDCard.o
fat_write_file                                    build\lib_sd\fat.o
                                                  build\SDCard.o
fclose                                            c:/progra~2/codesourcery/source~1/bin/../lib/gcc/arm-none-eabi/4.6.1/../../../../arm-none-eabi/lib/thumb2\libc.a(lib_a-fclose.o)
                                                  c:/progra~2/codesourcery/source~1/bin/../lib/gcc/arm-none-eabi/4.6.1/../../../../arm-none-eabi/lib/thumb2\libc.a(lib_a-findfp.o)
few_ticks                                         build\Delay.o
fflush                                            c:/progra~2/codesourcery/source~1/bin/../lib/gcc/arm-none-eabi/4.6.1/../../../../arm-none-eabi/lib/thumb2\libc.a(lib_a-fflush.o)
fputc                                             c:/progra~2/codesourcery/source~1/bin/../lib/gcc/arm-none-eabi/4.6.1/../../../../arm-none-eabi/lib/thumb2\libc.a(lib_a-fputc.o)
                                                  c:/progra~2/codesourcery/source~1/bin/../lib/gcc/arm-none-eabi/4.6.1/../../../../arm-none-eabi/lib/thumb2\libstdc++.a(vterminate.o)
fputs                                             c:/progra~2/codesourcery/source~1/bin/../lib/gcc/arm-none-eabi/4.6.1/../../../../arm-none-eabi/lib/thumb2\libc.a(lib_a-fputs.o)
                                                  c:/progra~2/codesourcery/source~1/bin/../lib/gcc/arm-none-eabi/4.6.1/../../../../arm-none-eabi/lib/thumb2\libstdc++.a(vterminate.o)
free                                              c:/progra~2/codesourcery/source~1/bin/../lib/gcc/arm-none-eabi/4.6.1/../../../../arm-none-eabi/lib/thumb2\libc.a(lib_a-malloc.o)
                                                  c:/progra~2/codesourcery/source~1/bin/../lib/gcc/arm-none-eabi/4.6.1/../../../../arm-none-eabi/lib/thumb2\libstdc++.a(cp-demangle.o)
                                                  c:/progra~2/codesourcery/source~1/bin/../lib/gcc/arm-none-eabi/4.6.1/../../../../arm-none-eabi/lib/thumb2\libstdc++.a(vterminate.o)
                                                  c:/progra~2/codesourcery/source~1/bin/../lib/gcc/arm-none-eabi/4.6.1/../../../../arm-none-eabi/lib/thumb2\libstdc++.a(eh_alloc.o)
                                                  build\system\mini_cpp.o
fwrite                                            c:/progra~2/codesourcery/source~1/bin/../lib/gcc/arm-none-eabi/4.6.1/../../../../arm-none-eabi/lib/thumb2\libc.a(lib_a-fwrite.o)
                                                  c:/progra~2/codesourcery/source~1/bin/../lib/gcc/arm-none-eabi/4.6.1/../../../../arm-none-eabi/lib/thumb2\libstdc++.a(vterminate.o)
g_pfnVectors                                      build\system\startup_LPC17xx.o
get_heap_end                                      build\system\syscalls.o
get_stack_top                                     build\system\syscalls.o
host::buildName                                   build\Host.o
host::buildSteps                                  build\Host.o
host::currentState                                build\Host.o
host::doToolPause(OutPacket&)                     build\Host.o
host::do_host_reset                               build\Host.o
host::getBuildName()                              build\Host.o
                                                  build\Menu.o
host::getHostState()                              build\Host.o
                                                  build\Menu.o
                                                  build\InterfaceBoard.o
host::getMachineName()                            build\Host.o
                                                  build\Menu.o
host::handleCaptureToFile(InPacket const&, OutPacket&) build\Host.o
host::handleEndCapture(InPacket const&, OutPacket&) build\Host.o
host::handleExtendedStop(InPacket const&, OutPacket&) build\Host.o
host::handleGetBufferSize(InPacket const&, OutPacket&) build\Host.o
host::handleGetBuildName(InPacket const&, OutPacket&) build\Host.o
host::handleGetCommunicationStats(InPacket const&, OutPacket&) build\Host.o
host::handleGetPosition(InPacket const&, OutPacket&) build\Host.o
host::handleGetPositionExt(InPacket const&, OutPacket&) build\Host.o
host::handleIsFinished(InPacket const&, OutPacket&) build\Host.o
host::handleNextFilename(InPacket const&, OutPacket&) build\Host.o
host::handlePause(InPacket const&, OutPacket&)    build\Host.o
host::handlePlayback(InPacket const&, OutPacket&) build\Host.o
host::handleReadEeprom(InPacket const&, OutPacket&) build\Host.o
host::handleToolQuery(InPacket const&, OutPacket&) build\Host.o
host::handleVersion(InPacket const&, OutPacket&)  build\Host.o
host::handleWriteEeprom(InPacket const&, OutPacket&) build\Host.o
host::machineName                                 build\Host.o
host::packet_in_timeout                           build\Host.o
host::processCommandPacket(InPacket const&, OutPacket&) build\Host.o
host::processQueryPacket(InPacket const&, OutPacket&) build\Host.o
host::runHostSlice()                              build\Host.o
                                                  build\Main.o
host::startBuildFromSD()                          build\Host.o
                                                  build\Menu.o
host::stopBuild()                                 build\Host.o
                                                  build\Menu.o
interface::board                                  build\Interface.o
interface::doInterrupt()                          build\Interface.o
interface::doUpdate()                             build\Interface.o
interface::getUpdateRate()                        build\Interface.o
interface::init(InterfaceBoard*, LiquidCrystal*)  build\Interface.o
                                                  build\Motherboard.o
interface::isConnected()                          build\Interface.o
                                                  build\Motherboard.o
interface::lcd                                    build\Interface.o
interface::popScreen()                            build\Interface.o
                                                  build\Menu.o
interface::pushScreen(Screen*)                    build\Interface.o
                                                  build\Menu.o
interupt_status::interrupts_enabled               build\Main.o
                                                  build\Host.o
                                                  build\EepromMap.o
                                                  build\Command.o
                                                  build\ButtonArray.o
                                                  build\Atomic.o
listen()                                          build\UART.o
localeconv                                        c:/progra~2/codesourcery/source~1/bin/../lib/gcc/arm-none-eabi/4.6.1/../../../../arm-none-eabi/lib/thumb2\libc.a(lib_a-locale.o)
loopback_bytes                                    build\UART.o
main                                              build\Main.o
malloc                                            c:/progra~2/codesourcery/source~1/bin/../lib/gcc/arm-none-eabi/4.6.1/../../../../arm-none-eabi/lib/thumb2\libc.a(lib_a-malloc.o)
                                                  c:/progra~2/codesourcery/source~1/bin/../lib/gcc/arm-none-eabi/4.6.1/../../../../arm-none-eabi/lib/thumb2\libc.a(lib_a-mprec.o)
                                                  c:/progra~2/codesourcery/source~1/bin/../lib/gcc/arm-none-eabi/4.6.1/../../../../arm-none-eabi/lib/thumb2\libc.a(lib_a-dtoa.o)
                                                  c:/progra~2/codesourcery/source~1/bin/../lib/gcc/arm-none-eabi/4.6.1/../../../../arm-none-eabi/lib/thumb2\libc.a(lib_a-rand.o)
                                                  c:/progra~2/codesourcery/source~1/bin/../lib/gcc/arm-none-eabi/4.6.1/../../../../arm-none-eabi/lib/thumb2\libstdc++.a(eh_alloc.o)
                                                  build\system\mini_cpp.o
memchr                                            c:/progra~2/codesourcery/source~1/bin/../lib/gcc/arm-none-eabi/4.6.1/../../../../arm-none-eabi/lib/thumb2\libc.a(lib_a-memchr.o)
                                                  c:/progra~2/codesourcery/source~1/bin/../lib/gcc/arm-none-eabi/4.6.1/../../../../arm-none-eabi/lib/thumb2\libc.a(lib_a-svfiprintf.o)
                                                  c:/progra~2/codesourcery/source~1/bin/../lib/gcc/arm-none-eabi/4.6.1/../../../../arm-none-eabi/lib/thumb2\libc.a(lib_a-svfprintf.o)
                                                  c:/progra~2/codesourcery/source~1/bin/../lib/gcc/arm-none-eabi/4.6.1/../../../../arm-none-eabi/lib/thumb2\libc.a(lib_a-fvwrite.o)
memcmp                                            c:/progra~2/codesourcery/source~1/bin/../lib/gcc/arm-none-eabi/4.6.1/../../../../arm-none-eabi/lib/thumb2\libc.a(lib_a-memcmp.o)
                                                  c:/progra~2/codesourcery/source~1/bin/../lib/gcc/arm-none-eabi/4.6.1/../../../../arm-none-eabi/lib/thumb2\libstdc++.a(cp-demangle.o)
memcpy                                            c:/progra~2/codesourcery/source~1/bin/../lib/gcc/arm-none-eabi/4.6.1/../../../../arm-none-eabi/lib/thumb2\libc.a(lib_a-memcpy.o)
                                                  c:/progra~2/codesourcery/source~1/bin/../lib/gcc/arm-none-eabi/4.6.1/../../../../arm-none-eabi/lib/thumb2\libc.a(lib_a-svfiprintf.o)
                                                  c:/progra~2/codesourcery/source~1/bin/../lib/gcc/arm-none-eabi/4.6.1/../../../../arm-none-eabi/lib/thumb2\libc.a(lib_a-mprec.o)
                                                  c:/progra~2/codesourcery/source~1/bin/../lib/gcc/arm-none-eabi/4.6.1/../../../../arm-none-eabi/lib/thumb2\libc.a(lib_a-dtoa.o)
                                                  c:/progra~2/codesourcery/source~1/bin/../lib/gcc/arm-none-eabi/4.6.1/../../../../arm-none-eabi/lib/thumb2\libc.a(lib_a-fvwrite.o)
                                                  c:/progra~2/codesourcery/source~1/bin/../lib/gcc/arm-none-eabi/4.6.1/thumb2\libgcc.a(unwind-arm.o)
                                                  c:/progra~2/codesourcery/source~1/bin/../lib/gcc/arm-none-eabi/4.6.1/../../../../arm-none-eabi/lib/thumb2\libstdc++.a(cp-demangle.o)
                                                  build\Motherboard.o
                                                  build\lib_sd\sd_raw.o
                                                  build\lib_sd\fat.o
memmove                                           c:/progra~2/codesourcery/source~1/bin/../lib/gcc/arm-none-eabi/4.6.1/../../../../arm-none-eabi/lib/thumb2\libc.a(lib_a-memmove.o)
                                                  c:/progra~2/codesourcery/source~1/bin/../lib/gcc/arm-none-eabi/4.6.1/../../../../arm-none-eabi/lib/thumb2\libc.a(lib_a-svfiprintf.o)
                                                  c:/progra~2/codesourcery/source~1/bin/../lib/gcc/arm-none-eabi/4.6.1/../../../../arm-none-eabi/lib/thumb2\libc.a(lib_a-reallocr.o)
                                                  c:/progra~2/codesourcery/source~1/bin/../lib/gcc/arm-none-eabi/4.6.1/../../../../arm-none-eabi/lib/thumb2\libc.a(lib_a-fvwrite.o)
memset                                            c:/progra~2/codesourcery/source~1/bin/../lib/gcc/arm-none-eabi/4.6.1/../../../../arm-none-eabi/lib/thumb2\libc.a(lib_a-memset.o)
                                                  c:/progra~2/codesourcery/source~1/bin/../lib/gcc/arm-none-eabi/4.6.1/../../../../arm-none-eabi/lib/thumb2\libc.a(lib_a-callocr.o)
                                                  c:/progra~2/codesourcery/source~1/bin/../lib/gcc/arm-none-eabi/4.6.1/../../../../arm-none-eabi/lib/thumb2\libc.a(lib_a-findfp.o)
                                                  c:/progra~2/codesourcery/source~1/bin/../lib/gcc/arm-none-eabi/4.6.1/../../../../arm-none-eabi/lib/thumb2\libstdc++.a(eh_alloc.o)
                                                  build\lib_sd\sd_raw.o
                                                  build\lib_sd\partition.o
                                                  build\lib_sd\fat.o
microstep_pinout(unsigned char)                   build\EepromMap.o
microstep_port_array                              build\EepromMap.o
microsteps::I2CDEV_S_ADDR                         build\Microsteps.o
microsteps::Port0_I2C                             build\Microsteps.o
microsteps::Port1_I2C                             build\Microsteps.o
microsteps::init()                                build\Microsteps.o
operator delete(void*)                            build\system\mini_cpp.o
                                                  c:/progra~2/codesourcery/source~1/bin/../lib/gcc/arm-none-eabi/4.6.1/../../../../arm-none-eabi/lib/thumb2\libstdc++.a(tinfo.o)
                                                  c:/progra~2/codesourcery/source~1/bin/../lib/gcc/arm-none-eabi/4.6.1/../../../../arm-none-eabi/lib/thumb2\libstdc++.a(eh_exception.o)
                                                  c:/progra~2/codesourcery/source~1/bin/../lib/gcc/arm-none-eabi/4.6.1/../../../../arm-none-eabi/lib/thumb2\libstdc++.a(class_type_info.o)
                                                  c:/progra~2/codesourcery/source~1/bin/../lib/gcc/arm-none-eabi/4.6.1/../../../../arm-none-eabi/lib/thumb2\libstdc++.a(si_class_type_info.o)
operator new(unsigned int)                        build\system\mini_cpp.o
operator new[](unsigned int)                      build\system\mini_cpp.o
partition_close                                   build\lib_sd\partition.o
partition_open                                    build\lib_sd\partition.o
                                                  build\SDCard.o
port                                              build\UART.o
                                                  build\Tool.o
                                                  build\Timeout.o
                                                  build\Steppers.o
                                                  build\StepperInterface.o
                                                  build\StepperAxis.o
                                                  build\Motherboard.o
                                                  build\Menu.o
                                                  build\Main.o
                                                  build\LiquidCrystal.o
                                                  build\InterfaceBoard.o
                                                  build\Interface.o
                                                  build\Host.o
                                                  build\DebugPacketProcessor.o
                                                  build\Command.o
                                                  build\ButtonArray.o
print_eeprom()                                    build\EepromMap.o
processDebugPacket(InPacket const&, OutPacket&)   build\DebugPacketProcessor.o
                                                  build\Host.o
putc                                              c:/progra~2/codesourcery/source~1/bin/../lib/gcc/arm-none-eabi/4.6.1/../../../../arm-none-eabi/lib/thumb2\libc.a(lib_a-putc.o)
queryExtruderParameter(unsigned char, OutPacket&) build\Menu.o
raise                                             c:/progra~2/codesourcery/source~1/bin/../lib/gcc/arm-none-eabi/4.6.1/../../../../arm-none-eabi/lib/thumb2\libc.a(lib_a-signal.o)
                                                  c:/progra~2/codesourcery/source~1/bin/../lib/gcc/arm-none-eabi/4.6.1/../../../../arm-none-eabi/lib/thumb2\libc.a(lib_a-abort.o)
rand                                              c:/progra~2/codesourcery/source~1/bin/../lib/gcc/arm-none-eabi/4.6.1/../../../../arm-none-eabi/lib/thumb2\libc.a(lib_a-rand.o)
                                                  build\Menu.o
rcCompare(unsigned char, ResponseCode)            build\Menu.o
read16                                            build\lib_sd\byteordering.o
read32                                            build\lib_sd\byteordering.o
read_all_from_flash()                             build\EepromMap.o
realloc                                           c:/progra~2/codesourcery/source~1/bin/../lib/gcc/arm-none-eabi/4.6.1/../../../../arm-none-eabi/lib/thumb2\libc.a(lib_a-realloc.o)
                                                  c:/progra~2/codesourcery/source~1/bin/../lib/gcc/arm-none-eabi/4.6.1/../../../../arm-none-eabi/lib/thumb2\libstdc++.a(cp-demangle.o)
reset(bool)                                       build\Main.o
                                                  build\Host.o
restore_core_regs                                 c:/progra~2/codesourcery/source~1/bin/../lib/gcc/arm-none-eabi/4.6.1/thumb2\libgcc.a(libunwind.o)
                                                  c:/progra~2/codesourcery/source~1/bin/../lib/gcc/arm-none-eabi/4.6.1/thumb2\libgcc.a(unwind-arm.o)
save_to_flash()                                   build\EepromMap.o
                                                  build\Host.o
                                                  build\Command.o
sd_raw_available                                  build\lib_sd\sd_raw.o
                                                  build\SDCard.o
sd_raw_get_info                                   build\lib_sd\sd_raw.o
sd_raw_init                                       build\lib_sd\sd_raw.o
                                                  build\SDCard.o
sd_raw_locked                                     build\lib_sd\sd_raw.o
                                                  build\SDCard.o
sd_raw_read                                       build\lib_sd\sd_raw.o
                                                  build\SDCard.o
sd_raw_read_interval                              build\lib_sd\sd_raw.o
                                                  build\SDCard.o
sd_raw_sync                                       build\lib_sd\sd_raw.o
                                                  build\SDCard.o
sd_raw_write                                      build\lib_sd\sd_raw.o
                                                  build\SDCard.o
sd_raw_write_interval                             build\lib_sd\sd_raw.o
                                                  build\SDCard.o
sdcard::capturePacket(Packet const&)              build\SDCard.o
                                                  build\Host.o
sdcard::capturedBytes                             build\SDCard.o
sdcard::capturing                                 build\SDCard.o
sdcard::createFile(char*)                         build\SDCard.o
sdcard::dd                                        build\SDCard.o
sdcard::deleteFile(char*)                         build\SDCard.o
sdcard::directoryNextEntry(char*, unsigned char)  build\SDCard.o
                                                  build\Menu.o
                                                  build\Host.o
sdcard::directoryReset()                          build\SDCard.o
                                                  build\Menu.o
                                                  build\Host.o
sdcard::fetchNextByte()                           build\SDCard.o
sdcard::file                                      build\SDCard.o
sdcard::findFileInDir(char const*, fat_dir_entry_struct*) build\SDCard.o
sdcard::finishCapture()                           build\SDCard.o
                                                  build\Host.o
sdcard::finishPlayback()                          build\SDCard.o
sdcard::fs                                        build\SDCard.o
sdcard::has_more                                  build\SDCard.o
sdcard::initCard()                                build\SDCard.o
sdcard::isCapturing()                             build\SDCard.o
                                                  build\Host.o
sdcard::isPlaying()                               build\SDCard.o
                                                  build\Command.o
sdcard::next_byte                                 build\SDCard.o
sdcard::openFile(char const*, fat_file_struct**)  build\SDCard.o
sdcard::openFilesys()                             build\SDCard.o
sdcard::openPartition()                           build\SDCard.o
sdcard::openRoot()                                build\SDCard.o
sdcard::partition                                 build\SDCard.o
sdcard::playbackHasNext()                         build\SDCard.o
                                                  build\Command.o
sdcard::playbackNext()                            build\SDCard.o
                                                  build\Command.o
sdcard::playbackRewind(unsigned char)             build\SDCard.o
sdcard::playing                                   build\SDCard.o
sdcard::reset()                                   build\SDCard.o
                                                  build\Main.o
sdcard::startCapture(char*)                       build\SDCard.o
                                                  build\Host.o
sdcard::startPlayback(char*)                      build\SDCard.o
                                                  build\Host.o
ser_AvailChar                                     build\USBCDC\serial.o
                                                  build\USBCDC\cdcuser.o
ser_ClosePort                                     build\USBCDC\serial.o
ser_InitPort0                                     build\USBCDC\serial.o
ser_LineState                                     build\USBCDC\serial.o
                                                  build\USBCDC\cdcuser.o
ser_OpenPort                                      build\USBCDC\serial.o
ser_Read                                          build\USBCDC\serial.o
                                                  build\USBCDC\cdcuser.o
ser_Write                                         build\USBCDC\serial.o
ser_in                                            build\USBCDC\serial.o
ser_lineState                                     build\USBCDC\serial.o
ser_out                                           build\USBCDC\serial.o
ser_txRestart                                     build\USBCDC\serial.o
setlocale                                         c:/progra~2/codesourcery/source~1/bin/../lib/gcc/arm-none-eabi/4.6.1/../../../../arm-none-eabi/lib/thumb2\libc.a(lib_a-locale.o)
signal                                            c:/progra~2/codesourcery/source~1/bin/../lib/gcc/arm-none-eabi/4.6.1/../../../../arm-none-eabi/lib/thumb2\libc.a(lib_a-signal.o)
speak()                                           build\UART.o
sprintf                                           c:/progra~2/codesourcery/source~1/bin/../lib/gcc/arm-none-eabi/4.6.1/../../../../arm-none-eabi/lib/thumb2\libc.a(lib_a-sprintf.o)
                                                  c:/progra~2/codesourcery/source~1/bin/../lib/gcc/arm-none-eabi/4.6.1/../../../../arm-none-eabi/lib/thumb2\libstdc++.a(cp-demangle.o)
srand                                             c:/progra~2/codesourcery/source~1/bin/../lib/gcc/arm-none-eabi/4.6.1/../../../../arm-none-eabi/lib/thumb2\libc.a(lib_a-rand.o)
std::bad_exception::what() const                  c:/progra~2/codesourcery/source~1/bin/../lib/gcc/arm-none-eabi/4.6.1/../../../../arm-none-eabi/lib/thumb2\libstdc++.a(eh_exception.o)
std::bad_exception::~bad_exception()              c:/progra~2/codesourcery/source~1/bin/../lib/gcc/arm-none-eabi/4.6.1/../../../../arm-none-eabi/lib/thumb2\libstdc++.a(eh_exception.o)
                                                  c:/progra~2/codesourcery/source~1/bin/../lib/gcc/arm-none-eabi/4.6.1/../../../../arm-none-eabi/lib/thumb2\libstdc++.a(eh_call.o)
std::bad_exception::~bad_exception()              c:/progra~2/codesourcery/source~1/bin/../lib/gcc/arm-none-eabi/4.6.1/../../../../arm-none-eabi/lib/thumb2\libstdc++.a(eh_exception.o)
std::bad_exception::~bad_exception()              c:/progra~2/codesourcery/source~1/bin/../lib/gcc/arm-none-eabi/4.6.1/../../../../arm-none-eabi/lib/thumb2\libstdc++.a(eh_exception.o)
std::exception::what() const                      c:/progra~2/codesourcery/source~1/bin/../lib/gcc/arm-none-eabi/4.6.1/../../../../arm-none-eabi/lib/thumb2\libstdc++.a(eh_exception.o)
std::exception::~exception()                      c:/progra~2/codesourcery/source~1/bin/../lib/gcc/arm-none-eabi/4.6.1/../../../../arm-none-eabi/lib/thumb2\libstdc++.a(eh_exception.o)
std::exception::~exception()                      c:/progra~2/codesourcery/source~1/bin/../lib/gcc/arm-none-eabi/4.6.1/../../../../arm-none-eabi/lib/thumb2\libstdc++.a(eh_exception.o)
std::exception::~exception()                      c:/progra~2/codesourcery/source~1/bin/../lib/gcc/arm-none-eabi/4.6.1/../../../../arm-none-eabi/lib/thumb2\libstdc++.a(eh_exception.o)
std::set_terminate(void (*)())                    c:/progra~2/codesourcery/source~1/bin/../lib/gcc/arm-none-eabi/4.6.1/../../../../arm-none-eabi/lib/thumb2\libstdc++.a(eh_terminate.o)
std::set_unexpected(void (*)())                   c:/progra~2/codesourcery/source~1/bin/../lib/gcc/arm-none-eabi/4.6.1/../../../../arm-none-eabi/lib/thumb2\libstdc++.a(eh_terminate.o)
std::terminate()                                  c:/progra~2/codesourcery/source~1/bin/../lib/gcc/arm-none-eabi/4.6.1/../../../../arm-none-eabi/lib/thumb2\libstdc++.a(eh_terminate.o)
                                                  c:/progra~2/codesourcery/source~1/bin/../lib/gcc/arm-none-eabi/4.6.1/../../../../arm-none-eabi/lib/thumb2\libstdc++.a(eh_catch.o)
                                                  c:/progra~2/codesourcery/source~1/bin/../lib/gcc/arm-none-eabi/4.6.1/../../../../arm-none-eabi/lib/thumb2\libstdc++.a(eh_personality.o)
                                                  c:/progra~2/codesourcery/source~1/bin/../lib/gcc/arm-none-eabi/4.6.1/../../../../arm-none-eabi/lib/thumb2\libstdc++.a(eh_alloc.o)
                                                  c:/progra~2/codesourcery/source~1/bin/../lib/gcc/arm-none-eabi/4.6.1/../../../../arm-none-eabi/lib/thumb2\libstdc++.a(eh_arm.o)
                                                  c:/progra~2/codesourcery/source~1/bin/../lib/gcc/arm-none-eabi/4.6.1/../../../../arm-none-eabi/lib/thumb2\libstdc++.a(eh_throw.o)
                                                  c:/progra~2/codesourcery/source~1/bin/../lib/gcc/arm-none-eabi/4.6.1/../../../../arm-none-eabi/lib/thumb2\libstdc++.a(eh_call.o)
                                                  c:/progra~2/codesourcery/source~1/bin/../lib/gcc/arm-none-eabi/4.6.1/../../../../arm-none-eabi/lib/thumb2\libstdc++.a(eh_unex_handler.o)
                                                  c:/progra~2/codesourcery/source~1/bin/../lib/gcc/arm-none-eabi/4.6.1/../../../../arm-none-eabi/lib/thumb2\libstdc++.a(pure.o)
std::type_info::__do_catch(std::type_info const*, void**, unsigned int) const c:/progra~2/codesourcery/source~1/bin/../lib/gcc/arm-none-eabi/4.6.1/../../../../arm-none-eabi/lib/thumb2\libstdc++.a(tinfo.o)
std::type_info::__do_upcast(__cxxabiv1::__class_type_info const*, void**) const c:/progra~2/codesourcery/source~1/bin/../lib/gcc/arm-none-eabi/4.6.1/../../../../arm-none-eabi/lib/thumb2\libstdc++.a(tinfo.o)
std::type_info::__is_function_p() const           c:/progra~2/codesourcery/source~1/bin/../lib/gcc/arm-none-eabi/4.6.1/../../../../arm-none-eabi/lib/thumb2\libstdc++.a(tinfo.o)
                                                  c:/progra~2/codesourcery/source~1/bin/../lib/gcc/arm-none-eabi/4.6.1/../../../../arm-none-eabi/lib/thumb2\libstdc++.a(class_type_info.o)
                                                  c:/progra~2/codesourcery/source~1/bin/../lib/gcc/arm-none-eabi/4.6.1/../../../../arm-none-eabi/lib/thumb2\libstdc++.a(si_class_type_info.o)
std::type_info::__is_pointer_p() const            c:/progra~2/codesourcery/source~1/bin/../lib/gcc/arm-none-eabi/4.6.1/../../../../arm-none-eabi/lib/thumb2\libstdc++.a(tinfo.o)
                                                  c:/progra~2/codesourcery/source~1/bin/../lib/gcc/arm-none-eabi/4.6.1/../../../../arm-none-eabi/lib/thumb2\libstdc++.a(class_type_info.o)
                                                  c:/progra~2/codesourcery/source~1/bin/../lib/gcc/arm-none-eabi/4.6.1/../../../../arm-none-eabi/lib/thumb2\libstdc++.a(si_class_type_info.o)
std::type_info::operator==(std::type_info const&) const c:/progra~2/codesourcery/source~1/bin/../lib/gcc/arm-none-eabi/4.6.1/../../../../arm-none-eabi/lib/thumb2\libstdc++.a(tinfo.o)
                                                  c:/progra~2/codesourcery/source~1/bin/../lib/gcc/arm-none-eabi/4.6.1/../../../../arm-none-eabi/lib/thumb2\libstdc++.a(class_type_info.o)
                                                  c:/progra~2/codesourcery/source~1/bin/../lib/gcc/arm-none-eabi/4.6.1/../../../../arm-none-eabi/lib/thumb2\libstdc++.a(si_class_type_info.o)
std::type_info::~type_info()                      c:/progra~2/codesourcery/source~1/bin/../lib/gcc/arm-none-eabi/4.6.1/../../../../arm-none-eabi/lib/thumb2\libstdc++.a(tinfo.o)
std::type_info::~type_info()                      c:/progra~2/codesourcery/source~1/bin/../lib/gcc/arm-none-eabi/4.6.1/../../../../arm-none-eabi/lib/thumb2\libstdc++.a(tinfo.o)
std::type_info::~type_info()                      c:/progra~2/codesourcery/source~1/bin/../lib/gcc/arm-none-eabi/4.6.1/../../../../arm-none-eabi/lib/thumb2\libstdc++.a(tinfo.o)
                                                  c:/progra~2/codesourcery/source~1/bin/../lib/gcc/arm-none-eabi/4.6.1/../../../../arm-none-eabi/lib/thumb2\libstdc++.a(class_type_info.o)
std::uncaught_exception()                         c:/progra~2/codesourcery/source~1/bin/../lib/gcc/arm-none-eabi/4.6.1/../../../../arm-none-eabi/lib/thumb2\libstdc++.a(eh_catch.o)
std::unexpected()                                 c:/progra~2/codesourcery/source~1/bin/../lib/gcc/arm-none-eabi/4.6.1/../../../../arm-none-eabi/lib/thumb2\libstdc++.a(eh_terminate.o)
                                                  c:/progra~2/codesourcery/source~1/bin/../lib/gcc/arm-none-eabi/4.6.1/../../../../arm-none-eabi/lib/thumb2\libstdc++.a(eh_personality.o)
                                                  c:/progra~2/codesourcery/source~1/bin/../lib/gcc/arm-none-eabi/4.6.1/../../../../arm-none-eabi/lib/thumb2\libstdc++.a(eh_call.o)
steppers::abort()                                 build\Steppers.o
                                                  build\Main.o
                                                  build\Host.o
                                                  build\Command.o
steppers::axes                                    build\Steppers.o
steppers::definePosition(Point const&)            build\Steppers.o
                                                  build\Command.o
steppers::doInterrupt()                           build\Steppers.o
                                                  build\Motherboard.o
steppers::enableAxis(unsigned char, bool)         build\Steppers.o
                                                  build\Command.o
steppers::getPosition()                           build\Steppers.o
                                                  build\Menu.o
                                                  build\Host.o
                                                  build\Command.o
steppers::holdZ                                   build\Steppers.o
steppers::init(Motherboard&)                      build\Steppers.o
                                                  build\Main.o
steppers::intervals                               build\Steppers.o
steppers::intervals_remaining                     build\Steppers.o
steppers::isRunning()                             build\Steppers.o
                                                  build\Host.o
                                                  build\Command.o
steppers::is_homing                               build\Steppers.o
steppers::is_running                              build\Steppers.o
steppers::setHoldZ(bool)                          build\Steppers.o
                                                  build\Motherboard.o
steppers::setTarget(Point const&, long)           build\Steppers.o
                                                  build\Menu.o
                                                  build\Command.o
steppers::setTargetNew(Point const&, long, unsigned char) build\Steppers.o
                                                  build\Command.o
steppers::startHoming(bool, unsigned char, unsigned long) build\Steppers.o
                                                  build\Command.o
strchr                                            c:/progra~2/codesourcery/source~1/bin/../lib/gcc/arm-none-eabi/4.6.1/../../../../arm-none-eabi/lib/thumb2\libc.a(lib_a-strchr.o)
                                                  c:/progra~2/codesourcery/source~1/bin/../lib/gcc/arm-none-eabi/4.6.1/../../../../arm-none-eabi/lib/thumb2\libc.a(lib_a-strrchr.o)
                                                  build\lib_sd\fat.o
strcmp                                            c:/progra~2/codesourcery/source~1/bin/../lib/gcc/arm-none-eabi/4.6.1/../../../../arm-none-eabi/lib/thumb2\libc.a(lib_a-strcmp.o)
                                                  c:/progra~2/codesourcery/source~1/bin/../lib/gcc/arm-none-eabi/4.6.1/../../../../arm-none-eabi/lib/thumb2\libc.a(lib_a-locale.o)
                                                  c:/progra~2/codesourcery/source~1/bin/../lib/gcc/arm-none-eabi/4.6.1/../../../../arm-none-eabi/lib/thumb2\libstdc++.a(cp-demangle.o)
                                                  c:/progra~2/codesourcery/source~1/bin/../lib/gcc/arm-none-eabi/4.6.1/../../../../arm-none-eabi/lib/thumb2\libstdc++.a(tinfo.o)
                                                  build\SDCard.o
                                                  build\lib_sd\fat.o
strcpy                                            c:/progra~2/codesourcery/source~1/bin/../lib/gcc/arm-none-eabi/4.6.1/../../../../arm-none-eabi/lib/thumb2\libc.a(lib_a-strcpy.o)
                                                  c:/progra~2/codesourcery/source~1/bin/../lib/gcc/arm-none-eabi/4.6.1/../../../../arm-none-eabi/lib/thumb2\libstdc++.a(cp-demangle.o)
strlen                                            c:/progra~2/codesourcery/source~1/bin/../lib/gcc/arm-none-eabi/4.6.1/../../../../arm-none-eabi/lib/thumb2\libc.a(lib_a-strlen.o)
                                                  c:/progra~2/codesourcery/source~1/bin/../lib/gcc/arm-none-eabi/4.6.1/../../../../arm-none-eabi/lib/thumb2\libc.a(lib_a-svfiprintf.o)
                                                  c:/progra~2/codesourcery/source~1/bin/../lib/gcc/arm-none-eabi/4.6.1/../../../../arm-none-eabi/lib/thumb2\libc.a(lib_a-svfprintf.o)
                                                  c:/progra~2/codesourcery/source~1/bin/../lib/gcc/arm-none-eabi/4.6.1/../../../../arm-none-eabi/lib/thumb2\libc.a(lib_a-fputs.o)
                                                  c:/progra~2/codesourcery/source~1/bin/../lib/gcc/arm-none-eabi/4.6.1/../../../../arm-none-eabi/lib/thumb2\libstdc++.a(cp-demangle.o)
                                                  build\lib_sd\fat.o
strncmp                                           c:/progra~2/codesourcery/source~1/bin/../lib/gcc/arm-none-eabi/4.6.1/../../../../arm-none-eabi/lib/thumb2\libc.a(lib_a-strncmp.o)
                                                  c:/progra~2/codesourcery/source~1/bin/../lib/gcc/arm-none-eabi/4.6.1/../../../../arm-none-eabi/lib/thumb2\libstdc++.a(cp-demangle.o)
                                                  build\lib_sd\fat.o
strncpy                                           c:/progra~2/codesourcery/source~1/bin/../lib/gcc/arm-none-eabi/4.6.1/../../../../arm-none-eabi/lib/thumb2\libc.a(lib_a-strncpy.o)
                                                  build\lib_sd\fat.o
strrchr                                           c:/progra~2/codesourcery/source~1/bin/../lib/gcc/arm-none-eabi/4.6.1/../../../../arm-none-eabi/lib/thumb2\libc.a(lib_a-strrchr.o)
                                                  build\lib_sd\fat.o
test_led(unsigned char)                           build\test_led.o
test_led2(unsigned char)                          build\test_led.o
test_led3(unsigned char)                          build\test_led.o
test_u()                                          build\test_u.o
                                                  build\Main.o
test_uart()                                       build\test.o
tool::getCurrentToolheadIndex()                   build\Tool.o
                                                  build\Host.o
                                                  build\Command.o
tool::getInPacket()                               build\Tool.o
                                                  build\Menu.o
                                                  build\Host.o
                                                  build\DebugPacketProcessor.o
                                                  build\Command.o
tool::getLock()                                   build\Tool.o
                                                  build\Menu.o
                                                  build\Host.o
                                                  build\DebugPacketProcessor.o
                                                  build\Command.o
tool::getNoiseByteCount()                         build\Tool.o
                                                  build\Host.o
tool::getOutPacket()                              build\Tool.o
                                                  build\Menu.o
                                                  build\Host.o
                                                  build\DebugPacketProcessor.o
                                                  build\Command.o
tool::getPacketFailureCount()                     build\Tool.o
                                                  build\Host.o
tool::getRetryCount()                             build\Tool.o
                                                  build\Host.o
tool::getSentPacketCount()                        build\Tool.o
                                                  build\Host.o
tool::getToolVersion()                            build\Tool.o
tool::isTransactionDone()                         build\Tool.o
                                                  build\Menu.o
                                                  build\Host.o
                                                  build\DebugPacketProcessor.o
                                                  build\Command.o
tool::releaseLock()                               build\Tool.o
                                                  build\Menu.o
                                                  build\Host.o
                                                  build\DebugPacketProcessor.o
                                                  build\Command.o
tool::reset()                                     build\Tool.o
                                                  build\Main.o
tool::runToolSlice()                              build\Tool.o
                                                  build\Menu.o
                                                  build\Main.o
                                                  build\Host.o
                                                  build\DebugPacketProcessor.o
                                                  build\Command.o
tool::setCurrentToolheadIndex(unsigned char)      build\Tool.o
                                                  build\Command.o
tool::setToolIndicatorLED()                       build\Tool.o
tool::startTransaction()                          build\Tool.o
                                                  build\Menu.o
                                                  build\Host.o
                                                  build\DebugPacketProcessor.o
                                                  build\Command.o
tool::test()                                      build\Tool.o
                                                  build\Main.o
tool::timeout                                     build\Tool.o
typeinfo for CancelBuildMenu                      build\Menu.o
typeinfo for JogMode                              build\Menu.o
typeinfo for LiquidCrystal                        build\LiquidCrystal.o
typeinfo for MainMenu                             build\Menu.o
typeinfo for Menu                                 build\Menu.o
typeinfo for MonitorMode                          build\Menu.o
typeinfo for SDMenu                               build\Menu.o
typeinfo for Screen                               build\Menu.o
                                                  build\Motherboard.o
typeinfo for SnakeMode                            build\Menu.o
typeinfo for SplashScreen                         build\Menu.o
typeinfo for __cxxabiv1::__class_type_info        c:/progra~2/codesourcery/source~1/bin/../lib/gcc/arm-none-eabi/4.6.1/../../../../arm-none-eabi/lib/thumb2\libstdc++.a(class_type_info.o)
                                                  c:/progra~2/codesourcery/source~1/bin/../lib/gcc/arm-none-eabi/4.6.1/../../../../arm-none-eabi/lib/thumb2\libstdc++.a(si_class_type_info.o)
typeinfo for __cxxabiv1::__forced_unwind          c:/progra~2/codesourcery/source~1/bin/../lib/gcc/arm-none-eabi/4.6.1/../../../../arm-none-eabi/lib/thumb2\libstdc++.a(eh_exception.o)
                                                  c:/progra~2/codesourcery/source~1/bin/../lib/gcc/arm-none-eabi/4.6.1/../../../../arm-none-eabi/lib/thumb2\libstdc++.a(eh_arm.o)
typeinfo for __cxxabiv1::__foreign_exception      c:/progra~2/codesourcery/source~1/bin/../lib/gcc/arm-none-eabi/4.6.1/../../../../arm-none-eabi/lib/thumb2\libstdc++.a(eh_exception.o)
                                                  c:/progra~2/codesourcery/source~1/bin/../lib/gcc/arm-none-eabi/4.6.1/../../../../arm-none-eabi/lib/thumb2\libstdc++.a(eh_arm.o)
typeinfo for __cxxabiv1::__si_class_type_info     c:/progra~2/codesourcery/source~1/bin/../lib/gcc/arm-none-eabi/4.6.1/../../../../arm-none-eabi/lib/thumb2\libstdc++.a(si_class_type_info.o)
typeinfo for std::bad_exception                   c:/progra~2/codesourcery/source~1/bin/../lib/gcc/arm-none-eabi/4.6.1/../../../../arm-none-eabi/lib/thumb2\libstdc++.a(eh_exception.o)
                                                  c:/progra~2/codesourcery/source~1/bin/../lib/gcc/arm-none-eabi/4.6.1/../../../../arm-none-eabi/lib/thumb2\libstdc++.a(eh_call.o)
typeinfo for std::exception                       c:/progra~2/codesourcery/source~1/bin/../lib/gcc/arm-none-eabi/4.6.1/../../../../arm-none-eabi/lib/thumb2\libstdc++.a(eh_exception.o)
                                                  c:/progra~2/codesourcery/source~1/bin/../lib/gcc/arm-none-eabi/4.6.1/../../../../arm-none-eabi/lib/thumb2\libstdc++.a(vterminate.o)
typeinfo for std::type_info                       c:/progra~2/codesourcery/source~1/bin/../lib/gcc/arm-none-eabi/4.6.1/../../../../arm-none-eabi/lib/thumb2\libstdc++.a(tinfo.o)
                                                  c:/progra~2/codesourcery/source~1/bin/../lib/gcc/arm-none-eabi/4.6.1/../../../../arm-none-eabi/lib/thumb2\libstdc++.a(class_type_info.o)
typeinfo name for CancelBuildMenu                 build\Menu.o
typeinfo name for JogMode                         build\Menu.o
typeinfo name for LiquidCrystal                   build\LiquidCrystal.o
typeinfo name for MainMenu                        build\Menu.o
typeinfo name for Menu                            build\Menu.o
typeinfo name for MonitorMode                     build\Menu.o
typeinfo name for SDMenu                          build\Menu.o
typeinfo name for Screen                          build\Menu.o
                                                  build\Motherboard.o
typeinfo name for SnakeMode                       build\Menu.o
typeinfo name for SplashScreen                    build\Menu.o
typeinfo name for __cxxabiv1::__class_type_info   c:/progra~2/codesourcery/source~1/bin/../lib/gcc/arm-none-eabi/4.6.1/../../../../arm-none-eabi/lib/thumb2\libstdc++.a(class_type_info.o)
typeinfo name for __cxxabiv1::__forced_unwind     c:/progra~2/codesourcery/source~1/bin/../lib/gcc/arm-none-eabi/4.6.1/../../../../arm-none-eabi/lib/thumb2\libstdc++.a(eh_exception.o)
typeinfo name for __cxxabiv1::__foreign_exception c:/progra~2/codesourcery/source~1/bin/../lib/gcc/arm-none-eabi/4.6.1/../../../../arm-none-eabi/lib/thumb2\libstdc++.a(eh_exception.o)
typeinfo name for __cxxabiv1::__si_class_type_info c:/progra~2/codesourcery/source~1/bin/../lib/gcc/arm-none-eabi/4.6.1/../../../../arm-none-eabi/lib/thumb2\libstdc++.a(si_class_type_info.o)
typeinfo name for std::bad_exception              c:/progra~2/codesourcery/source~1/bin/../lib/gcc/arm-none-eabi/4.6.1/../../../../arm-none-eabi/lib/thumb2\libstdc++.a(eh_exception.o)
typeinfo name for std::exception                  c:/progra~2/codesourcery/source~1/bin/../lib/gcc/arm-none-eabi/4.6.1/../../../../arm-none-eabi/lib/thumb2\libstdc++.a(eh_exception.o)
typeinfo name for std::type_info                  c:/progra~2/codesourcery/source~1/bin/../lib/gcc/arm-none-eabi/4.6.1/../../../../arm-none-eabi/lib/thumb2\libstdc++.a(tinfo.o)
vtable for CancelBuildMenu                        build\Menu.o
vtable for JogMode                                build\Menu.o
vtable for LiquidCrystal                          build\LiquidCrystal.o
vtable for MainMenu                               build\Menu.o
vtable for Menu                                   build\Menu.o
vtable for MonitorMode                            build\Menu.o
                                                  build\Motherboard.o
vtable for SDMenu                                 build\Menu.o
vtable for Screen                                 build\Menu.o
                                                  build\Motherboard.o
vtable for SnakeMode                              build\Menu.o
vtable for SplashScreen                           build\Menu.o
                                                  build\Motherboard.o
vtable for __cxxabiv1::__class_type_info          c:/progra~2/codesourcery/source~1/bin/../lib/gcc/arm-none-eabi/4.6.1/../../../../arm-none-eabi/lib/thumb2\libstdc++.a(class_type_info.o)
                                                  c:/progra~2/codesourcery/source~1/bin/../lib/gcc/arm-none-eabi/4.6.1/../../../../arm-none-eabi/lib/thumb2\libstdc++.a(tinfo.o)
                                                  c:/progra~2/codesourcery/source~1/bin/../lib/gcc/arm-none-eabi/4.6.1/../../../../arm-none-eabi/lib/thumb2\libstdc++.a(eh_exception.o)
                                                  build\Motherboard.o
                                                  build\Menu.o
                                                  build\LiquidCrystal.o
vtable for __cxxabiv1::__forced_unwind            c:/progra~2/codesourcery/source~1/bin/../lib/gcc/arm-none-eabi/4.6.1/../../../../arm-none-eabi/lib/thumb2\libstdc++.a(eh_exception.o)
vtable for __cxxabiv1::__foreign_exception        c:/progra~2/codesourcery/source~1/bin/../lib/gcc/arm-none-eabi/4.6.1/../../../../arm-none-eabi/lib/thumb2\libstdc++.a(eh_exception.o)
vtable for __cxxabiv1::__si_class_type_info       c:/progra~2/codesourcery/source~1/bin/../lib/gcc/arm-none-eabi/4.6.1/../../../../arm-none-eabi/lib/thumb2\libstdc++.a(si_class_type_info.o)
                                                  c:/progra~2/codesourcery/source~1/bin/../lib/gcc/arm-none-eabi/4.6.1/../../../../arm-none-eabi/lib/thumb2\libstdc++.a(eh_exception.o)
                                                  c:/progra~2/codesourcery/source~1/bin/../lib/gcc/arm-none-eabi/4.6.1/../../../../arm-none-eabi/lib/thumb2\libstdc++.a(class_type_info.o)
                                                  build\Menu.o
vtable for std::bad_exception                     c:/progra~2/codesourcery/source~1/bin/../lib/gcc/arm-none-eabi/4.6.1/../../../../arm-none-eabi/lib/thumb2\libstdc++.a(eh_exception.o)
                                                  c:/progra~2/codesourcery/source~1/bin/../lib/gcc/arm-none-eabi/4.6.1/../../../../arm-none-eabi/lib/thumb2\libstdc++.a(eh_call.o)
vtable for std::exception                         c:/progra~2/codesourcery/source~1/bin/../lib/gcc/arm-none-eabi/4.6.1/../../../../arm-none-eabi/lib/thumb2\libstdc++.a(eh_exception.o)
vtable for std::type_info                         c:/progra~2/codesourcery/source~1/bin/../lib/gcc/arm-none-eabi/4.6.1/../../../../arm-none-eabi/lib/thumb2\libstdc++.a(tinfo.o)
write                                             c:/progra~2/codesourcery/source~1/bin/../lib/gcc/arm-none-eabi/4.6.1/../../../../arm-none-eabi/lib/thumb2\libc.a(lib_a-syswrite.o)
                                                  c:/progra~2/codesourcery/source~1/bin/../lib/gcc/arm-none-eabi/4.6.1/../../../../arm-none-eabi/lib/thumb2\libstdc++.a(pure.o)
write16                                           build\lib_sd\byteordering.o
write32                                           build\lib_sd\byteordering.o
