Archive member included because of file (symbol)

c:/progra~2/codesourcery/source~1/bin/../lib/gcc/arm-none-eabi/4.5.2/../../../../arm-none-eabi/lib/thumb2\libstdc++.a(si_class_type_info.o)
                              build\Menu.o (vtable for __cxxabiv1::__si_class_type_info)
c:/progra~2/codesourcery/source~1/bin/../lib/gcc/arm-none-eabi/4.5.2/../../../../arm-none-eabi/lib/thumb2\libstdc++.a(del_op.o)
                              c:/progra~2/codesourcery/source~1/bin/../lib/gcc/arm-none-eabi/4.5.2/../../../../arm-none-eabi/lib/thumb2\libstdc++.a(si_class_type_info.o) (operator delete(void*))
c:/progra~2/codesourcery/source~1/bin/../lib/gcc/arm-none-eabi/4.5.2/../../../../arm-none-eabi/lib/thumb2\libstdc++.a(pure.o)
                              build\InterfaceBoard.o (__cxa_pure_virtual)
c:/progra~2/codesourcery/source~1/bin/../lib/gcc/arm-none-eabi/4.5.2/../../../../arm-none-eabi/lib/thumb2\libstdc++.a(class_type_info.o)
                              c:/progra~2/codesourcery/source~1/bin/../lib/gcc/arm-none-eabi/4.5.2/../../../../arm-none-eabi/lib/thumb2\libstdc++.a(si_class_type_info.o) (__cxxabiv1::__class_type_info::__do_upcast(__cxxabiv1::__class_type_info const*, void**) const)
c:/progra~2/codesourcery/source~1/bin/../lib/gcc/arm-none-eabi/4.5.2/../../../../arm-none-eabi/lib/thumb2\libstdc++.a(tinfo.o)
                              c:/progra~2/codesourcery/source~1/bin/../lib/gcc/arm-none-eabi/4.5.2/../../../../arm-none-eabi/lib/thumb2\libstdc++.a(class_type_info.o) (std::type_info::~type_info())
c:/progra~2/codesourcery/source~1/bin/../lib/gcc/arm-none-eabi/4.5.2/../../../../arm-none-eabi/lib/thumb2\libstdc++.a(eh_terminate.o)
                              c:/progra~2/codesourcery/source~1/bin/../lib/gcc/arm-none-eabi/4.5.2/../../../../arm-none-eabi/lib/thumb2\libstdc++.a(pure.o) (std::terminate())
c:/progra~2/codesourcery/source~1/bin/../lib/gcc/arm-none-eabi/4.5.2/../../../../arm-none-eabi/lib/thumb2\libstdc++.a(eh_call.o)
                              c:/progra~2/codesourcery/source~1/bin/../lib/gcc/arm-none-eabi/4.5.2/../../../../arm-none-eabi/lib/thumb2\libstdc++.a(eh_terminate.o) (__cxa_call_unexpected)
c:/progra~2/codesourcery/source~1/bin/../lib/gcc/arm-none-eabi/4.5.2/../../../../arm-none-eabi/lib/thumb2\libstdc++.a(eh_term_handler.o)
                              c:/progra~2/codesourcery/source~1/bin/../lib/gcc/arm-none-eabi/4.5.2/../../../../arm-none-eabi/lib/thumb2\libstdc++.a(eh_terminate.o) (__cxxabiv1::__terminate_handler)
c:/progra~2/codesourcery/source~1/bin/../lib/gcc/arm-none-eabi/4.5.2/../../../../arm-none-eabi/lib/thumb2\libstdc++.a(eh_personality.o)
                              c:/progra~2/codesourcery/source~1/bin/../lib/gcc/arm-none-eabi/4.5.2/../../../../arm-none-eabi/lib/thumb2\libstdc++.a(eh_terminate.o) (__gxx_personality_v0)
c:/progra~2/codesourcery/source~1/bin/../lib/gcc/arm-none-eabi/4.5.2/../../../../arm-none-eabi/lib/thumb2\libstdc++.a(eh_throw.o)
                              c:/progra~2/codesourcery/source~1/bin/../lib/gcc/arm-none-eabi/4.5.2/../../../../arm-none-eabi/lib/thumb2\libstdc++.a(eh_call.o) (__cxa_throw)
c:/progra~2/codesourcery/source~1/bin/../lib/gcc/arm-none-eabi/4.5.2/../../../../arm-none-eabi/lib/thumb2\libstdc++.a(eh_unex_handler.o)
                              c:/progra~2/codesourcery/source~1/bin/../lib/gcc/arm-none-eabi/4.5.2/../../../../arm-none-eabi/lib/thumb2\libstdc++.a(eh_terminate.o) (__cxxabiv1::__unexpected_handler)
c:/progra~2/codesourcery/source~1/bin/../lib/gcc/arm-none-eabi/4.5.2/../../../../arm-none-eabi/lib/thumb2\libstdc++.a(eh_globals.o)
                              c:/progra~2/codesourcery/source~1/bin/../lib/gcc/arm-none-eabi/4.5.2/../../../../arm-none-eabi/lib/thumb2\libstdc++.a(eh_call.o) (__cxa_get_globals_fast)
c:/progra~2/codesourcery/source~1/bin/../lib/gcc/arm-none-eabi/4.5.2/../../../../arm-none-eabi/lib/thumb2\libstdc++.a(eh_catch.o)
                              c:/progra~2/codesourcery/source~1/bin/../lib/gcc/arm-none-eabi/4.5.2/../../../../arm-none-eabi/lib/thumb2\libstdc++.a(eh_terminate.o) (__cxa_begin_catch)
c:/progra~2/codesourcery/source~1/bin/../lib/gcc/arm-none-eabi/4.5.2/../../../../arm-none-eabi/lib/thumb2\libstdc++.a(vterminate.o)
                              c:/progra~2/codesourcery/source~1/bin/../lib/gcc/arm-none-eabi/4.5.2/../../../../arm-none-eabi/lib/thumb2\libstdc++.a(eh_term_handler.o) (__gnu_cxx::__verbose_terminate_handler())
c:/progra~2/codesourcery/source~1/bin/../lib/gcc/arm-none-eabi/4.5.2/../../../../arm-none-eabi/lib/thumb2\libstdc++.a(eh_exception.o)
                              c:/progra~2/codesourcery/source~1/bin/../lib/gcc/arm-none-eabi/4.5.2/../../../../arm-none-eabi/lib/thumb2\libstdc++.a(eh_call.o) (std::bad_exception::~bad_exception())
c:/progra~2/codesourcery/source~1/bin/../lib/gcc/arm-none-eabi/4.5.2/../../../../arm-none-eabi/lib/thumb2\libstdc++.a(eh_type.o)
                              c:/progra~2/codesourcery/source~1/bin/../lib/gcc/arm-none-eabi/4.5.2/../../../../arm-none-eabi/lib/thumb2\libstdc++.a(vterminate.o) (__cxa_current_exception_type)
c:/progra~2/codesourcery/source~1/bin/../lib/gcc/arm-none-eabi/4.5.2/../../../../arm-none-eabi/lib/thumb2\libstdc++.a(eh_arm.o)
                              c:/progra~2/codesourcery/source~1/bin/../lib/gcc/arm-none-eabi/4.5.2/../../../../arm-none-eabi/lib/thumb2\libstdc++.a(eh_terminate.o) (__cxa_end_cleanup)
c:/progra~2/codesourcery/source~1/bin/../lib/gcc/arm-none-eabi/4.5.2/../../../../arm-none-eabi/lib/thumb2\libstdc++.a(eh_alloc.o)
                              c:/progra~2/codesourcery/source~1/bin/../lib/gcc/arm-none-eabi/4.5.2/../../../../arm-none-eabi/lib/thumb2\libstdc++.a(eh_call.o) (__cxa_allocate_exception)
c:/progra~2/codesourcery/source~1/bin/../lib/gcc/arm-none-eabi/4.5.2/../../../../arm-none-eabi/lib/thumb2\libstdc++.a(cp-demangle.o)
                              c:/progra~2/codesourcery/source~1/bin/../lib/gcc/arm-none-eabi/4.5.2/../../../../arm-none-eabi/lib/thumb2\libstdc++.a(vterminate.o) (__cxa_demangle)
c:/progra~2/codesourcery/source~1/bin/../lib/gcc/arm-none-eabi/4.5.2/thumb2\libgcc.a(_arm_addsubsf3.o)
                              src\shared\PID.o (__aeabi_fsub)
c:/progra~2/codesourcery/source~1/bin/../lib/gcc/arm-none-eabi/4.5.2/thumb2\libgcc.a(_arm_muldivsf3.o)
                              src\shared\PID.o (__aeabi_fmul)
c:/progra~2/codesourcery/source~1/bin/../lib/gcc/arm-none-eabi/4.5.2/thumb2\libgcc.a(_arm_cmpsf2.o)
                              build\lib\source\lpc17xx_systick.o (__aeabi_fcmpgt)
c:/progra~2/codesourcery/source~1/bin/../lib/gcc/arm-none-eabi/4.5.2/thumb2\libgcc.a(_arm_fixsfsi.o)
                              src\shared\PID.o (__aeabi_f2iz)
c:/progra~2/codesourcery/source~1/bin/../lib/gcc/arm-none-eabi/4.5.2/thumb2\libgcc.a(_aeabi_uldivmod.o)
                              build\lib\source\lpc17xx_pwm.o (__aeabi_uldivmod)
c:/progra~2/codesourcery/source~1/bin/../lib/gcc/arm-none-eabi/4.5.2/thumb2\libgcc.a(bpabi.o)
                              c:/progra~2/codesourcery/source~1/bin/../lib/gcc/arm-none-eabi/4.5.2/thumb2\libgcc.a(_aeabi_uldivmod.o) (__gnu_uldivmod_helper)
c:/progra~2/codesourcery/source~1/bin/../lib/gcc/arm-none-eabi/4.5.2/thumb2\libgcc.a(unwind-arm.o)
                              build\Command.o (__aeabi_unwind_cpp_pr0)
c:/progra~2/codesourcery/source~1/bin/../lib/gcc/arm-none-eabi/4.5.2/thumb2\libgcc.a(libunwind.o)
                              c:/progra~2/codesourcery/source~1/bin/../lib/gcc/arm-none-eabi/4.5.2/thumb2\libgcc.a(unwind-arm.o) (restore_core_regs)
c:/progra~2/codesourcery/source~1/bin/../lib/gcc/arm-none-eabi/4.5.2/thumb2\libgcc.a(pr-support.o)
                              c:/progra~2/codesourcery/source~1/bin/../lib/gcc/arm-none-eabi/4.5.2/thumb2\libgcc.a(unwind-arm.o) (__gnu_unwind_execute)
c:/progra~2/codesourcery/source~1/bin/../lib/gcc/arm-none-eabi/4.5.2/thumb2\libgcc.a(_dvmd_tls.o)
                              c:/progra~2/codesourcery/source~1/bin/../lib/gcc/arm-none-eabi/4.5.2/thumb2\libgcc.a(_aeabi_uldivmod.o) (__aeabi_ldiv0)
c:/progra~2/codesourcery/source~1/bin/../lib/gcc/arm-none-eabi/4.5.2/thumb2\libgcc.a(_divdi3.o)
                              c:/progra~2/codesourcery/source~1/bin/../lib/gcc/arm-none-eabi/4.5.2/thumb2\libgcc.a(bpabi.o) (__divdi3)
c:/progra~2/codesourcery/source~1/bin/../lib/gcc/arm-none-eabi/4.5.2/thumb2\libgcc.a(_udivdi3.o)
                              c:/progra~2/codesourcery/source~1/bin/../lib/gcc/arm-none-eabi/4.5.2/thumb2\libgcc.a(bpabi.o) (__udivdi3)
c:/progra~2/codesourcery/source~1/bin/../lib/gcc/arm-none-eabi/4.5.2/thumb2\libgcc.a(_udivsi3.o)
                              c:/progra~2/codesourcery/source~1/bin/../lib/gcc/arm-none-eabi/4.5.2/thumb2\libgcc.a(_divdi3.o) (__aeabi_uidiv)
c:/progra~2/codesourcery/source~1/bin/../lib/gcc/arm-none-eabi/4.5.2/../../../../arm-none-eabi/lib/thumb2\libc.a(lib_a-abort.o)
                              c:/progra~2/codesourcery/source~1/bin/../lib/gcc/arm-none-eabi/4.5.2/../../../../arm-none-eabi/lib/thumb2\libstdc++.a(eh_terminate.o) (abort)
c:/progra~2/codesourcery/source~1/bin/../lib/gcc/arm-none-eabi/4.5.2/../../../../arm-none-eabi/lib/thumb2\libc.a(lib_a-fputc.o)
                              c:/progra~2/codesourcery/source~1/bin/../lib/gcc/arm-none-eabi/4.5.2/../../../../arm-none-eabi/lib/thumb2\libstdc++.a(vterminate.o) (fputc)
c:/progra~2/codesourcery/source~1/bin/../lib/gcc/arm-none-eabi/4.5.2/../../../../arm-none-eabi/lib/thumb2\libc.a(lib_a-fputs.o)
                              c:/progra~2/codesourcery/source~1/bin/../lib/gcc/arm-none-eabi/4.5.2/../../../../arm-none-eabi/lib/thumb2\libstdc++.a(vterminate.o) (fputs)
c:/progra~2/codesourcery/source~1/bin/../lib/gcc/arm-none-eabi/4.5.2/../../../../arm-none-eabi/lib/thumb2\libc.a(lib_a-fvwrite.o)
                              c:/progra~2/codesourcery/source~1/bin/../lib/gcc/arm-none-eabi/4.5.2/../../../../arm-none-eabi/lib/thumb2\libc.a(lib_a-fputs.o) (__sfvwrite_r)
c:/progra~2/codesourcery/source~1/bin/../lib/gcc/arm-none-eabi/4.5.2/../../../../arm-none-eabi/lib/thumb2\libc.a(lib_a-fwrite.o)
                              c:/progra~2/codesourcery/source~1/bin/../lib/gcc/arm-none-eabi/4.5.2/../../../../arm-none-eabi/lib/thumb2\libstdc++.a(vterminate.o) (fwrite)
c:/progra~2/codesourcery/source~1/bin/../lib/gcc/arm-none-eabi/4.5.2/../../../../arm-none-eabi/lib/thumb2\libc.a(lib_a-impure.o)
                              c:/progra~2/codesourcery/source~1/bin/../lib/gcc/arm-none-eabi/4.5.2/../../../../arm-none-eabi/lib/thumb2\libstdc++.a(vterminate.o) (_impure_ptr)
c:/progra~2/codesourcery/source~1/bin/../lib/gcc/arm-none-eabi/4.5.2/../../../../arm-none-eabi/lib/thumb2\libc.a(lib_a-malloc.o)
                              c:/progra~2/codesourcery/source~1/bin/../lib/gcc/arm-none-eabi/4.5.2/../../../../arm-none-eabi/lib/thumb2\libstdc++.a(eh_alloc.o) (malloc)
c:/progra~2/codesourcery/source~1/bin/../lib/gcc/arm-none-eabi/4.5.2/../../../../arm-none-eabi/lib/thumb2\libc.a(lib_a-mallocr.o)
                              c:/progra~2/codesourcery/source~1/bin/../lib/gcc/arm-none-eabi/4.5.2/../../../../arm-none-eabi/lib/thumb2\libc.a(lib_a-fvwrite.o) (_malloc_r)
c:/progra~2/codesourcery/source~1/bin/../lib/gcc/arm-none-eabi/4.5.2/../../../../arm-none-eabi/lib/thumb2\libc.a(lib_a-memchr.o)
                              c:/progra~2/codesourcery/source~1/bin/../lib/gcc/arm-none-eabi/4.5.2/../../../../arm-none-eabi/lib/thumb2\libc.a(lib_a-fvwrite.o) (memchr)
c:/progra~2/codesourcery/source~1/bin/../lib/gcc/arm-none-eabi/4.5.2/../../../../arm-none-eabi/lib/thumb2\libc.a(lib_a-memcmp.o)
                              c:/progra~2/codesourcery/source~1/bin/../lib/gcc/arm-none-eabi/4.5.2/../../../../arm-none-eabi/lib/thumb2\libstdc++.a(cp-demangle.o) (memcmp)
c:/progra~2/codesourcery/source~1/bin/../lib/gcc/arm-none-eabi/4.5.2/../../../../arm-none-eabi/lib/thumb2\libc.a(lib_a-memcpy.o)
                              build\lib_sd\fat.o (memcpy)
c:/progra~2/codesourcery/source~1/bin/../lib/gcc/arm-none-eabi/4.5.2/../../../../arm-none-eabi/lib/thumb2\libc.a(lib_a-memmove.o)
                              c:/progra~2/codesourcery/source~1/bin/../lib/gcc/arm-none-eabi/4.5.2/../../../../arm-none-eabi/lib/thumb2\libc.a(lib_a-fvwrite.o) (memmove)
c:/progra~2/codesourcery/source~1/bin/../lib/gcc/arm-none-eabi/4.5.2/../../../../arm-none-eabi/lib/thumb2\libc.a(lib_a-memset.o)
                              build\lib_sd\fat.o (memset)
c:/progra~2/codesourcery/source~1/bin/../lib/gcc/arm-none-eabi/4.5.2/../../../../arm-none-eabi/lib/thumb2\libc.a(lib_a-mlock.o)
                              c:/progra~2/codesourcery/source~1/bin/../lib/gcc/arm-none-eabi/4.5.2/../../../../arm-none-eabi/lib/thumb2\libc.a(lib_a-mallocr.o) (__malloc_lock)
c:/progra~2/codesourcery/source~1/bin/../lib/gcc/arm-none-eabi/4.5.2/../../../../arm-none-eabi/lib/thumb2\libc.a(lib_a-putc.o)
                              c:/progra~2/codesourcery/source~1/bin/../lib/gcc/arm-none-eabi/4.5.2/../../../../arm-none-eabi/lib/thumb2\libc.a(lib_a-fputc.o) (_putc_r)
c:/progra~2/codesourcery/source~1/bin/../lib/gcc/arm-none-eabi/4.5.2/../../../../arm-none-eabi/lib/thumb2\libc.a(lib_a-rand.o)
                              build\Menu.o (rand)
c:/progra~2/codesourcery/source~1/bin/../lib/gcc/arm-none-eabi/4.5.2/../../../../arm-none-eabi/lib/thumb2\libc.a(lib_a-realloc.o)
                              c:/progra~2/codesourcery/source~1/bin/../lib/gcc/arm-none-eabi/4.5.2/../../../../arm-none-eabi/lib/thumb2\libstdc++.a(cp-demangle.o) (realloc)
c:/progra~2/codesourcery/source~1/bin/../lib/gcc/arm-none-eabi/4.5.2/../../../../arm-none-eabi/lib/thumb2\libc.a(lib_a-reallocr.o)
                              c:/progra~2/codesourcery/source~1/bin/../lib/gcc/arm-none-eabi/4.5.2/../../../../arm-none-eabi/lib/thumb2\libc.a(lib_a-fvwrite.o) (_realloc_r)
c:/progra~2/codesourcery/source~1/bin/../lib/gcc/arm-none-eabi/4.5.2/../../../../arm-none-eabi/lib/thumb2\libc.a(lib_a-signal.o)
                              c:/progra~2/codesourcery/source~1/bin/../lib/gcc/arm-none-eabi/4.5.2/../../../../arm-none-eabi/lib/thumb2\libc.a(lib_a-abort.o) (raise)
c:/progra~2/codesourcery/source~1/bin/../lib/gcc/arm-none-eabi/4.5.2/../../../../arm-none-eabi/lib/thumb2\libc.a(lib_a-signalr.o)
                              c:/progra~2/codesourcery/source~1/bin/../lib/gcc/arm-none-eabi/4.5.2/../../../../arm-none-eabi/lib/thumb2\libc.a(lib_a-signal.o) (_kill_r)
c:/progra~2/codesourcery/source~1/bin/../lib/gcc/arm-none-eabi/4.5.2/../../../../arm-none-eabi/lib/thumb2\libc.a(lib_a-sprintf.o)
                              c:/progra~2/codesourcery/source~1/bin/../lib/gcc/arm-none-eabi/4.5.2/../../../../arm-none-eabi/lib/thumb2\libstdc++.a(cp-demangle.o) (sprintf)
c:/progra~2/codesourcery/source~1/bin/../lib/gcc/arm-none-eabi/4.5.2/../../../../arm-none-eabi/lib/thumb2\libc.a(lib_a-strchr.o)
                              build\lib_sd\fat.o (strchr)
c:/progra~2/codesourcery/source~1/bin/../lib/gcc/arm-none-eabi/4.5.2/../../../../arm-none-eabi/lib/thumb2\libc.a(lib_a-strcmp.o)
                              build\lib_sd\fat.o (strcmp)
c:/progra~2/codesourcery/source~1/bin/../lib/gcc/arm-none-eabi/4.5.2/../../../../arm-none-eabi/lib/thumb2\libc.a(lib_a-strcpy.o)
                              c:/progra~2/codesourcery/source~1/bin/../lib/gcc/arm-none-eabi/4.5.2/../../../../arm-none-eabi/lib/thumb2\libstdc++.a(cp-demangle.o) (strcpy)
c:/progra~2/codesourcery/source~1/bin/../lib/gcc/arm-none-eabi/4.5.2/../../../../arm-none-eabi/lib/thumb2\libc.a(lib_a-strlen.o)
                              build\lib_sd\fat.o (strlen)
c:/progra~2/codesourcery/source~1/bin/../lib/gcc/arm-none-eabi/4.5.2/../../../../arm-none-eabi/lib/thumb2\libc.a(lib_a-strncmp.o)
                              build\lib_sd\fat.o (strncmp)
c:/progra~2/codesourcery/source~1/bin/../lib/gcc/arm-none-eabi/4.5.2/../../../../arm-none-eabi/lib/thumb2\libc.a(lib_a-strncpy.o)
                              build\lib_sd\fat.o (strncpy)
c:/progra~2/codesourcery/source~1/bin/../lib/gcc/arm-none-eabi/4.5.2/../../../../arm-none-eabi/lib/thumb2\libc.a(lib_a-strrchr.o)
                              build\lib_sd\fat.o (strrchr)
c:/progra~2/codesourcery/source~1/bin/../lib/gcc/arm-none-eabi/4.5.2/../../../../arm-none-eabi/lib/thumb2\libc.a(lib_a-svfprintf.o)
                              c:/progra~2/codesourcery/source~1/bin/../lib/gcc/arm-none-eabi/4.5.2/../../../../arm-none-eabi/lib/thumb2\libc.a(lib_a-sprintf.o) (_svfprintf_r)
c:/progra~2/codesourcery/source~1/bin/../lib/gcc/arm-none-eabi/4.5.2/../../../../arm-none-eabi/lib/thumb2\libc.a(lib_a-syswrite.o)
                              c:/progra~2/codesourcery/source~1/bin/../lib/gcc/arm-none-eabi/4.5.2/../../../../arm-none-eabi/lib/thumb2\libstdc++.a(pure.o) (write)
c:/progra~2/codesourcery/source~1/bin/../lib/gcc/arm-none-eabi/4.5.2/../../../../arm-none-eabi/lib/thumb2\libc.a(lib_a-wbuf.o)
                              c:/progra~2/codesourcery/source~1/bin/../lib/gcc/arm-none-eabi/4.5.2/../../../../arm-none-eabi/lib/thumb2\libc.a(lib_a-putc.o) (__swbuf_r)
c:/progra~2/codesourcery/source~1/bin/../lib/gcc/arm-none-eabi/4.5.2/../../../../arm-none-eabi/lib/thumb2\libc.a(lib_a-wsetup.o)
                              c:/progra~2/codesourcery/source~1/bin/../lib/gcc/arm-none-eabi/4.5.2/../../../../arm-none-eabi/lib/thumb2\libc.a(lib_a-fvwrite.o) (__swsetup_r)
c:/progra~2/codesourcery/source~1/bin/../lib/gcc/arm-none-eabi/4.5.2/../../../../arm-none-eabi/lib/thumb2\libc.a(lib_a-dtoa.o)
                              c:/progra~2/codesourcery/source~1/bin/../lib/gcc/arm-none-eabi/4.5.2/../../../../arm-none-eabi/lib/thumb2\libc.a(lib_a-svfprintf.o) (_dtoa_r)
c:/progra~2/codesourcery/source~1/bin/../lib/gcc/arm-none-eabi/4.5.2/../../../../arm-none-eabi/lib/thumb2\libc.a(lib_a-fflush.o)
                              c:/progra~2/codesourcery/source~1/bin/../lib/gcc/arm-none-eabi/4.5.2/../../../../arm-none-eabi/lib/thumb2\libc.a(lib_a-fvwrite.o) (_fflush_r)
c:/progra~2/codesourcery/source~1/bin/../lib/gcc/arm-none-eabi/4.5.2/../../../../arm-none-eabi/lib/thumb2\libc.a(lib_a-findfp.o)
                              c:/progra~2/codesourcery/source~1/bin/../lib/gcc/arm-none-eabi/4.5.2/../../../../arm-none-eabi/lib/thumb2\libc.a(lib_a-fputc.o) (__sinit)
c:/progra~2/codesourcery/source~1/bin/../lib/gcc/arm-none-eabi/4.5.2/../../../../arm-none-eabi/lib/thumb2\libc.a(lib_a-freer.o)
                              c:/progra~2/codesourcery/source~1/bin/../lib/gcc/arm-none-eabi/4.5.2/../../../../arm-none-eabi/lib/thumb2\libc.a(lib_a-fvwrite.o) (_free_r)
c:/progra~2/codesourcery/source~1/bin/../lib/gcc/arm-none-eabi/4.5.2/../../../../arm-none-eabi/lib/thumb2\libc.a(lib_a-fwalk.o)
                              c:/progra~2/codesourcery/source~1/bin/../lib/gcc/arm-none-eabi/4.5.2/../../../../arm-none-eabi/lib/thumb2\libc.a(lib_a-findfp.o) (_fwalk)
c:/progra~2/codesourcery/source~1/bin/../lib/gcc/arm-none-eabi/4.5.2/../../../../arm-none-eabi/lib/thumb2\libc.a(lib_a-locale.o)
                              c:/progra~2/codesourcery/source~1/bin/../lib/gcc/arm-none-eabi/4.5.2/../../../../arm-none-eabi/lib/thumb2\libc.a(lib_a-svfprintf.o) (_localeconv_r)
c:/progra~2/codesourcery/source~1/bin/../lib/gcc/arm-none-eabi/4.5.2/../../../../arm-none-eabi/lib/thumb2\libc.a(lib_a-makebuf.o)
                              c:/progra~2/codesourcery/source~1/bin/../lib/gcc/arm-none-eabi/4.5.2/../../../../arm-none-eabi/lib/thumb2\libc.a(lib_a-wsetup.o) (__smakebuf_r)
c:/progra~2/codesourcery/source~1/bin/../lib/gcc/arm-none-eabi/4.5.2/../../../../arm-none-eabi/lib/thumb2\libc.a(lib_a-mprec.o)
                              c:/progra~2/codesourcery/source~1/bin/../lib/gcc/arm-none-eabi/4.5.2/../../../../arm-none-eabi/lib/thumb2\libc.a(lib_a-dtoa.o) (_Balloc)
c:/progra~2/codesourcery/source~1/bin/../lib/gcc/arm-none-eabi/4.5.2/../../../../arm-none-eabi/lib/thumb2\libc.a(lib_a-reent.o)
                              c:/progra~2/codesourcery/source~1/bin/../lib/gcc/arm-none-eabi/4.5.2/../../../../arm-none-eabi/lib/thumb2\libc.a(lib_a-signalr.o) (errno)
c:/progra~2/codesourcery/source~1/bin/../lib/gcc/arm-none-eabi/4.5.2/../../../../arm-none-eabi/lib/thumb2\libc.a(lib_a-s_fpclassify.o)
                              c:/progra~2/codesourcery/source~1/bin/../lib/gcc/arm-none-eabi/4.5.2/../../../../arm-none-eabi/lib/thumb2\libc.a(lib_a-svfprintf.o) (__fpclassifyd)
c:/progra~2/codesourcery/source~1/bin/../lib/gcc/arm-none-eabi/4.5.2/../../../../arm-none-eabi/lib/thumb2\libc.a(lib_a-stdio.o)
                              c:/progra~2/codesourcery/source~1/bin/../lib/gcc/arm-none-eabi/4.5.2/../../../../arm-none-eabi/lib/thumb2\libc.a(lib_a-findfp.o) (__sread)
c:/progra~2/codesourcery/source~1/bin/../lib/gcc/arm-none-eabi/4.5.2/../../../../arm-none-eabi/lib/thumb2\libc.a(lib_a-svfiprintf.o)
                              c:/progra~2/codesourcery/source~1/bin/../lib/gcc/arm-none-eabi/4.5.2/../../../../arm-none-eabi/lib/thumb2\libc.a(lib_a-svfprintf.o) (__ssprint_r)
c:/progra~2/codesourcery/source~1/bin/../lib/gcc/arm-none-eabi/4.5.2/../../../../arm-none-eabi/lib/thumb2\libc.a(lib_a-callocr.o)
                              c:/progra~2/codesourcery/source~1/bin/../lib/gcc/arm-none-eabi/4.5.2/../../../../arm-none-eabi/lib/thumb2\libc.a(lib_a-mprec.o) (_calloc_r)
c:/progra~2/codesourcery/source~1/bin/../lib/gcc/arm-none-eabi/4.5.2/../../../../arm-none-eabi/lib/thumb2\libc.a(lib_a-fclose.o)
                              c:/progra~2/codesourcery/source~1/bin/../lib/gcc/arm-none-eabi/4.5.2/../../../../arm-none-eabi/lib/thumb2\libc.a(lib_a-findfp.o) (fclose)
c:/progra~2/codesourcery/source~1/bin/../lib/gcc/arm-none-eabi/4.5.2/../../../../arm-none-eabi/lib/thumb2\libc.a(lib_a-fstatr.o)
                              c:/progra~2/codesourcery/source~1/bin/../lib/gcc/arm-none-eabi/4.5.2/../../../../arm-none-eabi/lib/thumb2\libc.a(lib_a-makebuf.o) (_fstat_r)
c:/progra~2/codesourcery/source~1/bin/../lib/gcc/arm-none-eabi/4.5.2/../../../../arm-none-eabi/lib/thumb2\libc.a(lib_a-isattyr.o)
                              c:/progra~2/codesourcery/source~1/bin/../lib/gcc/arm-none-eabi/4.5.2/../../../../arm-none-eabi/lib/thumb2\libc.a(lib_a-makebuf.o) (_isatty_r)
c:/progra~2/codesourcery/source~1/bin/../lib/gcc/arm-none-eabi/4.5.2/../../../../arm-none-eabi/lib/thumb2\libc.a(lib_a-lseekr.o)
                              c:/progra~2/codesourcery/source~1/bin/../lib/gcc/arm-none-eabi/4.5.2/../../../../arm-none-eabi/lib/thumb2\libc.a(lib_a-stdio.o) (_lseek_r)
c:/progra~2/codesourcery/source~1/bin/../lib/gcc/arm-none-eabi/4.5.2/thumb2\libgcc.a(_arm_addsubdf3.o)
                              c:/progra~2/codesourcery/source~1/bin/../lib/gcc/arm-none-eabi/4.5.2/../../../../arm-none-eabi/lib/thumb2\libc.a(lib_a-dtoa.o) (__aeabi_dsub)
c:/progra~2/codesourcery/source~1/bin/../lib/gcc/arm-none-eabi/4.5.2/thumb2\libgcc.a(_arm_muldivdf3.o)
                              c:/progra~2/codesourcery/source~1/bin/../lib/gcc/arm-none-eabi/4.5.2/../../../../arm-none-eabi/lib/thumb2\libc.a(lib_a-dtoa.o) (__aeabi_dmul)
c:/progra~2/codesourcery/source~1/bin/../lib/gcc/arm-none-eabi/4.5.2/thumb2\libgcc.a(_arm_cmpdf2.o)
                              c:/progra~2/codesourcery/source~1/bin/../lib/gcc/arm-none-eabi/4.5.2/../../../../arm-none-eabi/lib/thumb2\libc.a(lib_a-svfprintf.o) (__aeabi_dcmpeq)
c:/progra~2/codesourcery/source~1/bin/../lib/gcc/arm-none-eabi/4.5.2/thumb2\libgcc.a(_arm_fixdfsi.o)
                              c:/progra~2/codesourcery/source~1/bin/../lib/gcc/arm-none-eabi/4.5.2/../../../../arm-none-eabi/lib/thumb2\libc.a(lib_a-dtoa.o) (__aeabi_d2iz)

Allocating common symbols
Common symbol       size              file

errno               0x4               c:/progra~2/codesourcery/source~1/bin/../lib/gcc/arm-none-eabi/4.5.2/../../../../arm-none-eabi/lib/thumb2\libc.a(lib_a-reent.o)

Discarded input sections

 .group         0x00000000       0x10 src\shared\Packet.o
 .group         0x00000000       0x10 src\shared\Packet.o
 .group         0x00000000       0x10 build\Command.o
 .group         0x00000000       0x10 build\Command.o
 .group         0x00000000       0x10 build\Command.o
 .group         0x00000000       0x10 build\Command.o
 .group         0x00000000       0x10 build\Command.o
 .group         0x00000000       0x10 build\Command.o
 .group         0x00000000       0x10 build\Command.o
 .group         0x00000000       0x10 build\Command.o
 .group         0x00000000       0x10 build\Command.o
 .group         0x00000000       0x10 build\Command.o
 .group         0x00000000       0x10 build\Command.o
 .group         0x00000000       0x10 build\Command.o
 .group         0x00000000       0x10 build\DebugPacketProcessor.o
 .group         0x00000000       0x10 build\DebugPacketProcessor.o
 .group         0x00000000       0x10 build\Host.o
 .group         0x00000000       0x10 build\Host.o
 .group         0x00000000       0x10 build\Host.o
 .group         0x00000000       0x10 build\Host.o
 .group         0x00000000       0x10 build\Host.o
 .group         0x00000000       0x10 build\Host.o
 .group         0x00000000       0x10 build\Host.o
 .group         0x00000000       0x10 build\Host.o
 .group         0x00000000       0x10 build\Host.o
 .group         0x00000000       0x10 build\Host.o
 .group         0x00000000       0x10 build\Host.o
 .group         0x00000000       0x10 build\Host.o
 .group         0x00000000       0x10 build\Host.o
 .group         0x00000000       0x10 build\Host.o
 .group         0x00000000       0x10 build\Host.o
 .group         0x00000000       0x10 build\Host.o
 .group         0x00000000       0x10 build\Host.o
 .group         0x00000000       0x10 build\Host.o
 .group         0x00000000       0x10 build\Host.o
 .group         0x00000000       0x10 build\Host.o
 .group         0x00000000       0x10 build\Host.o
 .group         0x00000000       0x10 build\Host.o
 .group         0x00000000       0x10 build\Host.o
 .group         0x00000000       0x10 build\Host.o
 .group         0x00000000       0x10 build\Host.o
 .group         0x00000000       0x10 build\Host.o
 .group         0x00000000       0x10 build\Host.o
 .group         0x00000000       0x10 build\Host.o
 .group         0x00000000       0x10 build\Host.o
 .group         0x00000000       0x10 build\Host.o
 .text._ZN6Packet5errorEh
                0x00000000       0x24 build\Host.o
 .ARM.extab.text._ZN6Packet5errorEh
                0x00000000        0xc build\Host.o
 .ARM.exidx.text._ZN6Packet5errorEh
                0x00000000        0x8 build\Host.o
 .text._ZNK6Packet9getLengthEv
                0x00000000       0x1c build\Host.o
 .ARM.extab.text._ZNK6Packet9getLengthEv
                0x00000000        0x0 build\Host.o
 .ARM.exidx.text._ZNK6Packet9getLengthEv
                0x00000000        0x8 build\Host.o
 .text._ZNK6Packet8hasErrorEv
                0x00000000       0x28 build\Host.o
 .ARM.extab.text._ZNK6Packet8hasErrorEv
                0x00000000        0x0 build\Host.o
 .ARM.exidx.text._ZNK6Packet8hasErrorEv
                0x00000000        0x8 build\Host.o
 .text._ZNK5PointixEj
                0x00000000       0x20 build\Host.o
 .ARM.extab.text._ZNK5PointixEj
                0x00000000        0x0 build\Host.o
 .ARM.exidx.text._ZNK5PointixEj
                0x00000000        0x8 build\Host.o
 .text._ZN11Motherboard8getBoardEv
                0x00000000       0x14 build\Host.o
 .ARM.extab.text._ZN11Motherboard8getBoardEv
                0x00000000        0x0 build\Host.o
 .ARM.exidx.text._ZN11Motherboard8getBoardEv
                0x00000000        0x8 build\Host.o
 .group         0x00000000       0x10 build\Interface.o
 .group         0x00000000       0x10 build\Interface.o
 .group         0x00000000       0x10 build\Interface.o
 .group         0x00000000       0x10 build\Interface.o
 .group         0x00000000       0x10 build\Interface.o
 .group         0x00000000       0x10 build\Interface.o
 .group         0x00000000       0x10 build\Interface.o
 .group         0x00000000       0x10 build\InterfaceBoard.o
 .group         0x00000000       0x10 build\InterfaceBoard.o
 .group         0x00000000       0x10 build\InterfaceBoard.o
 .group         0x00000000       0x10 build\InterfaceBoard.o
 .group         0x00000000       0x10 build\InterfaceBoard.o
 .group         0x00000000       0x10 build\InterfaceBoard.o
 .group         0x00000000       0x10 build\InterfaceBoard.o
 .group         0x00000000       0x10 build\InterfaceBoard.o
 .group         0x00000000        0x8 build\InterfaceBoard.o
 .group         0x00000000        0x8 build\InterfaceBoard.o
 .group         0x00000000        0x8 build\InterfaceBoard.o
 .text._ZN4Port15setPinDirectionEhb
                0x00000000       0x2c build\InterfaceBoard.o
 .ARM.extab.text._ZN4Port15setPinDirectionEhb
                0x00000000        0xc build\InterfaceBoard.o
 .ARM.exidx.text._ZN4Port15setPinDirectionEhb
                0x00000000        0x8 build\InterfaceBoard.o
 .text._ZN4Port6setPinEhb
                0x00000000       0x4c build\InterfaceBoard.o
 .ARM.extab.text._ZN4Port6setPinEhb
                0x00000000        0xc build\InterfaceBoard.o
 .ARM.exidx.text._ZN4Port6setPinEhb
                0x00000000        0x8 build\InterfaceBoard.o
 .text._ZN3PinC2ER4Porth
                0x00000000       0x38 build\InterfaceBoard.o
 .ARM.extab.text._ZN3PinC2ER4Porth
                0x00000000        0x0 build\InterfaceBoard.o
 .ARM.exidx.text._ZN3PinC2ER4Porth
                0x00000000        0x8 build\InterfaceBoard.o
 .text._ZN3Pin12setDirectionEb
                0x00000000       0x30 build\InterfaceBoard.o
 .ARM.extab.text._ZN3Pin12setDirectionEb
                0x00000000        0xc build\InterfaceBoard.o
 .ARM.exidx.text._ZN3Pin12setDirectionEb
                0x00000000        0x8 build\InterfaceBoard.o
 .text._ZN3Pin8setValueEb
                0x00000000       0x30 build\InterfaceBoard.o
 .ARM.extab.text._ZN3Pin8setValueEb
                0x00000000        0xc build\InterfaceBoard.o
 .ARM.exidx.text._ZN3Pin8setValueEb
                0x00000000        0x8 build\InterfaceBoard.o
 .group         0x00000000       0x10 build\LPCPort.o
 .group         0x00000000       0x10 build\LiquidCrystal.o
 .group         0x00000000       0x10 build\LiquidCrystal.o
 .group         0x00000000       0x10 build\LiquidCrystal.o
 .group         0x00000000       0x10 build\LiquidCrystal.o
 .group         0x00000000       0x10 build\LiquidCrystal.o
 .group         0x00000000       0x10 build\LiquidCrystal.o
 .group         0x00000000       0x10 build\LiquidCrystal.o
 .group         0x00000000       0x10 build\LiquidCrystal.o
 .group         0x00000000       0x10 build\LiquidCrystal.o
 .group         0x00000000       0x10 build\LiquidCrystal.o
 .group         0x00000000        0x8 build\LiquidCrystal.o
 .group         0x00000000        0x8 build\LiquidCrystal.o
 .group         0x00000000        0x8 build\LiquidCrystal.o
 .text._ZN4Port15setPinDirectionEhb
                0x00000000       0x2c build\LiquidCrystal.o
 .ARM.extab.text._ZN4Port15setPinDirectionEhb
                0x00000000        0xc build\LiquidCrystal.o
 .ARM.exidx.text._ZN4Port15setPinDirectionEhb
                0x00000000        0x8 build\LiquidCrystal.o
 .text._ZN4Port6setPinEhb
                0x00000000       0x4c build\LiquidCrystal.o
 .ARM.extab.text._ZN4Port6setPinEhb
                0x00000000        0xc build\LiquidCrystal.o
 .ARM.exidx.text._ZN4Port6setPinEhb
                0x00000000        0x8 build\LiquidCrystal.o
 .text._ZN3Pin12setDirectionEb
                0x00000000       0x30 build\LiquidCrystal.o
 .ARM.extab.text._ZN3Pin12setDirectionEb
                0x00000000        0xc build\LiquidCrystal.o
 .ARM.exidx.text._ZN3Pin12setDirectionEb
                0x00000000        0x8 build\LiquidCrystal.o
 .text._ZN3Pin8setValueEb
                0x00000000       0x30 build\LiquidCrystal.o
 .ARM.extab.text._ZN3Pin8setValueEb
                0x00000000        0xc build\LiquidCrystal.o
 .ARM.exidx.text._ZN3Pin8setValueEb
                0x00000000        0x8 build\LiquidCrystal.o
 .group         0x00000000       0x10 build\Main.o
 .text._ZN11Motherboard8getBoardEv
                0x00000000       0x14 build\Main.o
 .ARM.extab.text._ZN11Motherboard8getBoardEv
                0x00000000        0x0 build\Main.o
 .ARM.exidx.text._ZN11Motherboard8getBoardEv
                0x00000000        0x8 build\Main.o
 .group         0x00000000       0x10 build\Menu.o
 .group         0x00000000       0x10 build\Menu.o
 .group         0x00000000       0x10 build\Menu.o
 .group         0x00000000       0x10 build\Menu.o
 .group         0x00000000       0x10 build\Menu.o
 .group         0x00000000       0x10 build\Menu.o
 .group         0x00000000       0x10 build\Menu.o
 .group         0x00000000       0x10 build\Menu.o
 .group         0x00000000       0x10 build\Menu.o
 .group         0x00000000       0x10 build\Menu.o
 .group         0x00000000       0x10 build\Menu.o
 .group         0x00000000       0x10 build\Menu.o
 .group         0x00000000       0x10 build\Menu.o
 .group         0x00000000        0x8 build\Menu.o
 .group         0x00000000        0x8 build\Menu.o
 .group         0x00000000        0x8 build\Menu.o
 .text._ZNK6Packet9getLengthEv
                0x00000000       0x1c build\Menu.o
 .ARM.extab.text._ZNK6Packet9getLengthEv
                0x00000000        0x0 build\Menu.o
 .ARM.exidx.text._ZNK6Packet9getLengthEv
                0x00000000        0x8 build\Menu.o
 .text._ZNK6Packet12getErrorCodeEv
                0x00000000       0x1c build\Menu.o
 .ARM.extab.text._ZNK6Packet12getErrorCodeEv
                0x00000000        0x0 build\Menu.o
 .ARM.exidx.text._ZNK6Packet12getErrorCodeEv
                0x00000000        0x8 build\Menu.o
 .text._ZN6ScreenC2Ev
                0x00000000       0x20 build\Menu.o
 .ARM.extab.text._ZN6ScreenC2Ev
                0x00000000        0x0 build\Menu.o
 .ARM.exidx.text._ZN6ScreenC2Ev
                0x00000000        0x8 build\Menu.o
 .text._ZN11MonitorModeC2Ev
                0x00000000       0x34 build\Menu.o
 .ARM.extab.text._ZN11MonitorModeC2Ev
                0x00000000        0xc build\Menu.o
 .ARM.exidx.text._ZN11MonitorModeC2Ev
                0x00000000        0x8 build\Menu.o
 .rodata._ZTV6Screen
                0x00000000       0x18 build\Menu.o
 .rodata._ZTS6Screen
                0x00000000        0x8 build\Menu.o
 .rodata._ZTI6Screen
                0x00000000        0x8 build\Menu.o
 .group         0x00000000       0x10 build\Motherboard.o
 .group         0x00000000       0x10 build\Motherboard.o
 .group         0x00000000       0x10 build\Motherboard.o
 .group         0x00000000       0x10 build\Motherboard.o
 .group         0x00000000       0x10 build\Motherboard.o
 .group         0x00000000       0x10 build\Motherboard.o
 .group         0x00000000       0x10 build\Motherboard.o
 .group         0x00000000       0x10 build\Motherboard.o
 .group         0x00000000       0x10 build\Motherboard.o
 .group         0x00000000       0x10 build\Motherboard.o
 .group         0x00000000       0x10 build\Motherboard.o
 .group         0x00000000       0x10 build\Motherboard.o
 .group         0x00000000       0x10 build\Motherboard.o
 .group         0x00000000       0x10 build\Motherboard.o
 .group         0x00000000       0x10 build\Motherboard.o
 .text._ZN4UART11getHostUARTEv
                0x00000000       0x14 build\Motherboard.o
 .ARM.extab.text._ZN4UART11getHostUARTEv
                0x00000000        0x0 build\Motherboard.o
 .ARM.exidx.text._ZN4UART11getHostUARTEv
                0x00000000        0x8 build\Motherboard.o
 .text._ZN4PortC2Ev
                0x00000000       0x20 build\Motherboard.o
 .ARM.extab.text._ZN4PortC2Ev
                0x00000000        0x0 build\Motherboard.o
 .ARM.exidx.text._ZN4PortC2Ev
                0x00000000        0x8 build\Motherboard.o
 .text._ZN4Port15setPinDirectionEhb
                0x00000000       0x2c build\Motherboard.o
 .ARM.extab.text._ZN4Port15setPinDirectionEhb
                0x00000000        0xc build\Motherboard.o
 .ARM.exidx.text._ZN4Port15setPinDirectionEhb
                0x00000000        0x8 build\Motherboard.o
 .text._ZN4Port6setPinEhb
                0x00000000       0x4c build\Motherboard.o
 .ARM.extab.text._ZN4Port6setPinEhb
                0x00000000        0xc build\Motherboard.o
 .ARM.exidx.text._ZN4Port6setPinEhb
                0x00000000        0x8 build\Motherboard.o
 .text._ZN3PinC2Ev
                0x00000000       0x28 build\Motherboard.o
 .ARM.extab.text._ZN3PinC2Ev
                0x00000000        0x0 build\Motherboard.o
 .ARM.exidx.text._ZN3PinC2Ev
                0x00000000        0x8 build\Motherboard.o
 .text._ZN3PinC2ER4Porth
                0x00000000       0x38 build\Motherboard.o
 .ARM.extab.text._ZN3PinC2ER4Porth
                0x00000000        0x0 build\Motherboard.o
 .ARM.exidx.text._ZN3PinC2ER4Porth
                0x00000000        0x8 build\Motherboard.o
 .text._ZN3Pin12setDirectionEb
                0x00000000       0x30 build\Motherboard.o
 .ARM.extab.text._ZN3Pin12setDirectionEb
                0x00000000        0xc build\Motherboard.o
 .ARM.exidx.text._ZN3Pin12setDirectionEb
                0x00000000        0x8 build\Motherboard.o
 .text._ZN3Pin8setValueEb
                0x00000000       0x30 build\Motherboard.o
 .ARM.extab.text._ZN3Pin8setValueEb
                0x00000000        0xc build\Motherboard.o
 .ARM.exidx.text._ZN3Pin8setValueEb
                0x00000000        0x8 build\Motherboard.o
 .text._ZN11Motherboard11getHostUARTEv
                0x00000000       0x18 build\Motherboard.o
 .ARM.extab.text._ZN11Motherboard11getHostUARTEv
                0x00000000        0x0 build\Motherboard.o
 .ARM.exidx.text._ZN11Motherboard11getHostUARTEv
                0x00000000        0x8 build\Motherboard.o
 .text._ZN11Motherboard8getBoardEv
                0x00000000       0x14 build\Motherboard.o
 .ARM.extab.text._ZN11Motherboard8getBoardEv
                0x00000000        0x0 build\Motherboard.o
 .ARM.exidx.text._ZN11Motherboard8getBoardEv
                0x00000000        0x8 build\Motherboard.o
 .group         0x00000000       0x10 build\Packet.o
 .group         0x00000000       0x10 build\Packet.o
 .text._ZN6Packet5errorEh
                0x00000000       0x24 build\Packet.o
 .ARM.extab.text._ZN6Packet5errorEh
                0x00000000        0x0 build\Packet.o
 .ARM.exidx.text._ZN6Packet5errorEh
                0x00000000        0x8 build\Packet.o
 .text._ZN6PacketC2Ev
                0x00000000       0x18 build\Packet.o
 .ARM.extab.text._ZN6PacketC2Ev
                0x00000000        0x0 build\Packet.o
 .ARM.exidx.text._ZN6PacketC2Ev
                0x00000000        0x8 build\Packet.o
 .group         0x00000000       0x10 build\SDCard.o
 .group         0x00000000       0x10 build\SDCard.o
 .text._ZNK6Packet9getLengthEv
                0x00000000       0x1c build\SDCard.o
 .ARM.extab.text._ZNK6Packet9getLengthEv
                0x00000000        0x0 build\SDCard.o
 .ARM.exidx.text._ZNK6Packet9getLengthEv
                0x00000000        0x8 build\SDCard.o
 .text._ZNK6Packet7getDataEv
                0x00000000       0x1c build\SDCard.o
 .ARM.extab.text._ZNK6Packet7getDataEv
                0x00000000        0x0 build\SDCard.o
 .ARM.exidx.text._ZNK6Packet7getDataEv
                0x00000000        0x8 build\SDCard.o
 .group         0x00000000       0x10 build\StepperInterface.o
 .group         0x00000000       0x10 build\StepperInterface.o
 .group         0x00000000       0x10 build\StepperInterface.o
 .group         0x00000000       0x10 build\StepperInterface.o
 .group         0x00000000       0x10 build\StepperInterface.o
 .group         0x00000000       0x10 build\StepperInterface.o
 .group         0x00000000       0x10 build\StepperInterface.o
 .group         0x00000000       0x10 build\StepperInterface.o
 .text._ZN4Port6isNullEv
                0x00000000       0x24 build\StepperInterface.o
 .ARM.extab.text._ZN4Port6isNullEv
                0x00000000        0x0 build\StepperInterface.o
 .ARM.exidx.text._ZN4Port6isNullEv
                0x00000000        0x8 build\StepperInterface.o
 .text._ZN4Port15setPinDirectionEhb
                0x00000000       0x2c build\StepperInterface.o
 .ARM.extab.text._ZN4Port15setPinDirectionEhb
                0x00000000        0xc build\StepperInterface.o
 .ARM.exidx.text._ZN4Port15setPinDirectionEhb
                0x00000000        0x8 build\StepperInterface.o
 .text._ZN4Port6getPinEh
                0x00000000       0x34 build\StepperInterface.o
 .ARM.extab.text._ZN4Port6getPinEh
                0x00000000        0xc build\StepperInterface.o
 .ARM.exidx.text._ZN4Port6getPinEh
                0x00000000        0x8 build\StepperInterface.o
 .text._ZN4Port6setPinEhb
                0x00000000       0x4c build\StepperInterface.o
 .ARM.extab.text._ZN4Port6setPinEhb
                0x00000000        0xc build\StepperInterface.o
 .ARM.exidx.text._ZN4Port6setPinEhb
                0x00000000        0x8 build\StepperInterface.o
 .text._ZN3Pin6isNullEv
                0x00000000       0x1c build\StepperInterface.o
 .ARM.extab.text._ZN3Pin6isNullEv
                0x00000000        0x0 build\StepperInterface.o
 .ARM.exidx.text._ZN3Pin6isNullEv
                0x00000000        0x8 build\StepperInterface.o
 .text._ZN3Pin12setDirectionEb
                0x00000000       0x30 build\StepperInterface.o
 .ARM.extab.text._ZN3Pin12setDirectionEb
                0x00000000        0xc build\StepperInterface.o
 .ARM.exidx.text._ZN3Pin12setDirectionEb
                0x00000000        0x8 build\StepperInterface.o
 .text._ZN3Pin8getValueEv
                0x00000000       0x28 build\StepperInterface.o
 .ARM.extab.text._ZN3Pin8getValueEv
                0x00000000        0xc build\StepperInterface.o
 .ARM.exidx.text._ZN3Pin8getValueEv
                0x00000000        0x8 build\StepperInterface.o
 .text._ZN3Pin8setValueEb
                0x00000000       0x30 build\StepperInterface.o
 .ARM.extab.text._ZN3Pin8setValueEb
                0x00000000        0xc build\StepperInterface.o
 .ARM.exidx.text._ZN3Pin8setValueEb
                0x00000000        0x8 build\StepperInterface.o
 .group         0x00000000       0x10 build\Steppers.o
 .group         0x00000000       0x10 build\Steppers.o
 .group         0x00000000       0x10 build\Steppers.o
 .group         0x00000000       0x10 build\Steppers.o
 .group         0x00000000       0x10 build\Steppers.o
 .group         0x00000000       0x10 build\Steppers.o
 .group         0x00000000       0x10 build\Steppers.o
 .group         0x00000000       0x10 build\Steppers.o
 .group         0x00000000       0x10 build\Steppers.o
 .group         0x00000000       0x10 build\Steppers.o
 .group         0x00000000       0x10 build\Steppers.o
 .group         0x00000000       0x10 build\Steppers.o
 .text._ZN5PointC2Elllll
                0x00000000       0x3c build\Steppers.o
 .ARM.extab.text._ZN5PointC2Elllll
                0x00000000        0x0 build\Steppers.o
 .ARM.exidx.text._ZN5PointC2Elllll
                0x00000000        0x8 build\Steppers.o
 .text._ZNK5PointixEj
                0x00000000       0x20 build\Steppers.o
 .ARM.extab.text._ZNK5PointixEj
                0x00000000        0x0 build\Steppers.o
 .ARM.exidx.text._ZNK5PointixEj
                0x00000000        0x8 build\Steppers.o
 .text._ZN11Motherboard19getStepperInterfaceEi
                0x00000000       0x28 build\Steppers.o
 .ARM.extab.text._ZN11Motherboard19getStepperInterfaceEi
                0x00000000        0x0 build\Steppers.o
 .ARM.exidx.text._ZN11Motherboard19getStepperInterfaceEi
                0x00000000        0x8 build\Steppers.o
 .group         0x00000000       0x10 build\Timeout.o
 .text._ZN11Motherboard8getBoardEv
                0x00000000       0x14 build\Timeout.o
 .ARM.extab.text._ZN11Motherboard8getBoardEv
                0x00000000        0x0 build\Timeout.o
 .ARM.exidx.text._ZN11Motherboard8getBoardEv
                0x00000000        0x8 build\Timeout.o
 .group         0x00000000       0x10 build\Tool.o
 .group         0x00000000       0x10 build\Tool.o
 .group         0x00000000       0x10 build\Tool.o
 .group         0x00000000       0x10 build\Tool.o
 .group         0x00000000       0x10 build\Tool.o
 .group         0x00000000       0x10 build\Tool.o
 .group         0x00000000       0x10 build\Tool.o
 .group         0x00000000       0x10 build\Tool.o
 .text._ZN6Packet5errorEh
                0x00000000       0x24 build\Tool.o
 .ARM.extab.text._ZN6Packet5errorEh
                0x00000000        0xc build\Tool.o
 .ARM.exidx.text._ZN6Packet5errorEh
                0x00000000        0x8 build\Tool.o
 .text._ZNK6Packet8hasErrorEv
                0x00000000       0x28 build\Tool.o
 .ARM.extab.text._ZNK6Packet8hasErrorEv
                0x00000000        0x0 build\Tool.o
 .ARM.exidx.text._ZNK6Packet8hasErrorEv
                0x00000000        0x8 build\Tool.o
 .text._ZNK6Packet12getErrorCodeEv
                0x00000000       0x1c build\Tool.o
 .ARM.extab.text._ZNK6Packet12getErrorCodeEv
                0x00000000        0x0 build\Tool.o
 .ARM.exidx.text._ZNK6Packet12getErrorCodeEv
                0x00000000        0x8 build\Tool.o
 .text._ZNK8InPacket10isFinishedEv
                0x00000000       0x28 build\Tool.o
 .ARM.extab.text._ZNK8InPacket10isFinishedEv
                0x00000000        0x0 build\Tool.o
 .ARM.exidx.text._ZNK8InPacket10isFinishedEv
                0x00000000        0x8 build\Tool.o
 .text._ZN8InPacket7timeoutEv
                0x00000000       0x1c build\Tool.o
 .ARM.extab.text._ZN8InPacket7timeoutEv
                0x00000000        0xc build\Tool.o
 .ARM.exidx.text._ZN8InPacket7timeoutEv
                0x00000000        0x8 build\Tool.o
 .text._ZN4UART12getSlaveUARTEv
                0x00000000       0x14 build\Tool.o
 .ARM.extab.text._ZN4UART12getSlaveUARTEv
                0x00000000        0x0 build\Tool.o
 .ARM.exidx.text._ZN4UART12getSlaveUARTEv
                0x00000000        0x8 build\Tool.o
 .text._ZN11Motherboard12getSlaveUARTEv
                0x00000000       0x18 build\Tool.o
 .ARM.extab.text._ZN11Motherboard12getSlaveUARTEv
                0x00000000        0x0 build\Tool.o
 .ARM.exidx.text._ZN11Motherboard12getSlaveUARTEv
                0x00000000        0x8 build\Tool.o
 .text._ZN11Motherboard8getBoardEv
                0x00000000       0x14 build\Tool.o
 .ARM.extab.text._ZN11Motherboard8getBoardEv
                0x00000000        0x0 build\Tool.o
 .ARM.exidx.text._ZN11Motherboard8getBoardEv
                0x00000000        0x8 build\Tool.o
 .group         0x00000000       0x10 build\UART.o
 .group         0x00000000       0x10 build\UART.o
 .group         0x00000000       0x10 build\UART.o
 .group         0x00000000       0x10 build\UART.o
 .group         0x00000000       0x10 build\UART.o
 .group         0x00000000       0x10 build\UART.o
 .group         0x00000000       0x10 build\UART.o
 .group         0x00000000       0x10 build\UART.o
 .text._ZNK9OutPacket9isSendingEv
                0x00000000       0x38 build\UART.o
 .ARM.extab.text._ZNK9OutPacket9isSendingEv
                0x00000000        0x0 build\UART.o
 .ARM.exidx.text._ZNK9OutPacket9isSendingEv
                0x00000000        0x8 build\UART.o
 .text._ZN4Port15setPinDirectionEhb
                0x00000000       0x2c build\UART.o
 .ARM.extab.text._ZN4Port15setPinDirectionEhb
                0x00000000        0xc build\UART.o
 .ARM.exidx.text._ZN4Port15setPinDirectionEhb
                0x00000000        0x8 build\UART.o
 .text._ZN4Port6setPinEhb
                0x00000000       0x4c build\UART.o
 .ARM.extab.text._ZN4Port6setPinEhb
                0x00000000        0xc build\UART.o
 .ARM.exidx.text._ZN4Port6setPinEhb
                0x00000000        0x8 build\UART.o
 .text._ZN3PinC2ER4Porth
                0x00000000       0x38 build\UART.o
 .ARM.extab.text._ZN3PinC2ER4Porth
                0x00000000        0x0 build\UART.o
 .ARM.exidx.text._ZN3PinC2ER4Porth
                0x00000000        0x8 build\UART.o
 .text._ZN3Pin12setDirectionEb
                0x00000000       0x30 build\UART.o
 .ARM.extab.text._ZN3Pin12setDirectionEb
                0x00000000        0xc build\UART.o
 .ARM.exidx.text._ZN3Pin12setDirectionEb
                0x00000000        0x8 build\UART.o
 .text._ZN3Pin8setValueEb
                0x00000000       0x30 build\UART.o
 .ARM.extab.text._ZN3Pin8setValueEb
                0x00000000        0xc build\UART.o
 .ARM.exidx.text._ZN3Pin8setValueEb
                0x00000000        0x8 build\UART.o

Memory Configuration

Name             Origin             Length             Attributes
rom              0x00000000         0x00080000         xr
ram              0x10000000         0x00008000         xrw
ram1             0x2007c000         0x00004000         xrw
ram2             0x20080000         0x00004000         xrw
*default*        0x00000000         0xffffffff

Linker script and memory map

LOAD build\lib_sd\byteordering.o
LOAD build\lib_sd\fat.o
LOAD build\lib_sd\partition.o
LOAD build\lib_sd\sd_raw.o
LOAD build\lib\source\debug_frmwrk.o
LOAD build\lib\source\lpc17xx_adc.o
LOAD build\lib\source\lpc17xx_clkpwr.o
LOAD build\lib\source\lpc17xx_dac.o
LOAD build\lib\source\lpc17xx_exti.o
LOAD build\lib\source\lpc17xx_gpdma.o
LOAD build\lib\source\lpc17xx_gpio.o
LOAD build\lib\source\lpc17xx_i2c.o
LOAD build\lib\source\lpc17xx_i2s.o
LOAD build\lib\source\lpc17xx_libcfg_default.o
LOAD build\lib\source\lpc17xx_mcpwm.o
LOAD build\lib\source\lpc17xx_nvic.o
LOAD build\lib\source\lpc17xx_pinsel.o
LOAD build\lib\source\lpc17xx_pwm.o
LOAD build\lib\source\lpc17xx_qei.o
LOAD build\lib\source\lpc17xx_rit.o
LOAD build\lib\source\lpc17xx_spi.o
LOAD build\lib\source\lpc17xx_systick.o
LOAD build\lib\source\lpc17xx_timer.o
LOAD build\lib\source\lpc17xx_uart.o
LOAD build\lib\source\lpc17xx_wdt.o
LOAD build\system\core_cm3.o
LOAD build\system\system_LPC17xx.o
LOAD build\system\startup_LPC17xx.o
LOAD build\USBCDC\cdcuser.o
LOAD build\USBCDC\serial.o
LOAD build\USBCDC\usbcore.o
LOAD build\USBCDC\usbdesc.o
LOAD build\USBCDC\usbhw.o
LOAD build\USBCDC\usbuser.o
LOAD build\USBCDC\vcomdemo.o
LOAD src\shared\PID.o
LOAD src\shared\Packet.o
LOAD build\Command.o
LOAD build\DebugPacketProcessor.o
LOAD build\EepromMap.o
LOAD build\Host.o
LOAD build\Interface.o
LOAD build\InterfaceBoard.o
LOAD build\LPCPort.o
LOAD build\LiquidCrystal.o
LOAD build\Main.o
LOAD build\Menu.o
LOAD build\Motherboard.o
LOAD build\PID.o
LOAD build\PSU.o
LOAD build\Packet.o
LOAD build\SDCard.o
LOAD build\StepperInterface.o
LOAD build\Steppers.o
LOAD build\Timeout.o
LOAD build\Tool.o
LOAD build\UART.o
                0x10008000                PROVIDE (__cs3_stack, (__cs3_region_start_ram + __cs3_region_size_ram))
                0x000054a0                PROVIDE (__cs3_stack_size, ((__cs3_region_start_ram + __cs3_region_size_ram) - _end))
                0x10002b60                PROVIDE (__cs3_heap_start, _end)
                0x10008000                PROVIDE (__cs3_heap_end, (__cs3_region_start_ram + __cs3_region_size_ram))

.text           0x00000000    0x2b848
 CREATE_OBJECT_SYMBOLS
                0x00000000                __cs3_region_start_rom = .
 *(.cs3.region-head.rom)
                0x00000000                __cs3_interrupt_vector = __cs3_interrupt_vector_cortex_m
 *(.cs3.interrupt_vector)
 .cs3.interrupt_vector
                0x00000000       0xcc build\system\startup_LPC17xx.o
                0x00000000                __cs3_interrupt_vector_cortex_m
                0x00000001                ASSERT ((. != __cs3_interrupt_vector_cortex_m), No interrupt vector)
 *(.rom)
 *(.rom.b)
                0x000000cc                __cs3_reset = __cs3_reset_cortex_m
 *(.cs3.reset)
 .cs3.reset     0x000000cc       0x10 build\system\startup_LPC17xx.o
                0x000000cc                __cs3_reset_cortex_m
                0x00000001                ASSERT ((. != __cs3_reset), No reset code)
 *(.text .text.* .gnu.linkonce.t.*)
 .text          0x000000dc        0x0 build\lib_sd\byteordering.o
 .text          0x000000dc     0x1cb0 build\lib_sd\fat.o
                0x000000dc                fat_open
                0x00000178                fat_close
                0x00000760                fat_get_dir_entry_of_path
                0x00000898                fat_open_file
                0x00000940                fat_close_file
                0x0000097c                fat_read_file
                0x00000b0c                fat_write_file
                0x00000d08                fat_seek_file
                0x00000da4                fat_resize_file
                0x00000ee8                fat_open_dir
                0x00000f84                fat_close_dir
                0x00000fa4                fat_read_dir
                0x0000112c                fat_reset_dir
                0x00001964                fat_create_file
                0x00001a20                fat_delete_file
                0x00001ad8                fat_create_dir
                0x00001c5c                fat_get_fs_size
                0x00001c90                fat_get_fs_free
 .text          0x00001d8c      0x16c build\lib_sd\partition.o
                0x00001d8c                partition_open
                0x00001ecc                partition_close
 .text          0x00001ef8      0xc30 build\lib_sd\sd_raw.o
                0x00001ef8                sd_raw_init
                0x000021f8                sd_raw_available
                0x0000220c                sd_raw_locked
                0x0000233c                sd_raw_read
                0x000024c4                sd_raw_read_interval
                0x00002544                sd_raw_write
                0x00002720                sd_raw_write_interval
                0x000027bc                sd_raw_sync
                0x00002808                sd_raw_get_info
 .text          0x00002b28      0x75c build\lib\source\debug_frmwrk.o
                0x00002b28                UARTPutChar
                0x00002b50                UARTGetChar
                0x00002b80                UARTPuts
                0x00002bb4                UARTPuts_
                0x00002bdc                UARTPutDec
                0x00002c94                UARTPutDec16
                0x00002dd0                UARTPutDec32
                0x00003034                UARTPutHex
                0x000030a8                UARTPutHex16
                0x0000311c                UARTPutHex32
                0x0000318c                debug_frmwrk_init
 .text          0x00003284      0x518 build\lib\source\lpc17xx_adc.o
                0x00003284                ADC_Init
                0x0000331c                ADC_DeInit
                0x00003360                ADC_GetData
                0x00003394                ADC_StartCmd
                0x00003418                ADC_BurstCmd
                0x00003464                ADC_PowerdownCmd
                0x000034b0                ADC_EdgeStartConfig
                0x00003514                ADC_IntConfig
                0x000035b8                ADC_ChannelCmd
                0x00003620                ADC_ChannelGetData
                0x00003674                ADC_ChannelGetStatus
                0x000036f8                ADC_GlobalGetData
                0x00003728                ADC_GlobalGetStatus
 .text          0x0000379c      0x250 build\lib\source\lpc17xx_clkpwr.o
                0x0000379c                CLKPWR_SetPCLKDiv
                0x0000383c                CLKPWR_GetPCLKSEL
                0x00003888                CLKPWR_GetPCLK
                0x000038f8                CLKPWR_ConfigPPWR
                0x00003958                CLKPWR_Sleep
                0x00003974                CLKPWR_DeepSleep
                0x0000399c                CLKPWR_PowerDown
                0x000039c4                CLKPWR_DeepPowerDown
 .text          0x000039ec      0x17c build\lib\source\lpc17xx_dac.o
                0x000039ec                DAC_Init
                0x00003a20                DAC_UpdateValue
                0x00003a74                DAC_SetBias
                0x00003ac0                DAC_ConfigDAConverterControl
                0x00003b34                DAC_SetDMATimeOut
 .text          0x00003b68      0x174 build\lib\source\lpc17xx_exti.o
                0x00003b68                EXTI_Init
                0x00003b94                EXTI_DeInit
                0x00003ba0                EXTI_Config
                0x00003be0                EXTI_SetMode
                0x00003c44                EXTI_SetPolarity
                0x00003ca8                EXTI_ClearEXTIFlag
 .text          0x00003cdc      0x628 build\lib\source\lpc17xx_gpdma.o
                0x00003cdc                GPDMA_Init
                0x00003d64                GPDMA_Setup
                0x000040ec                GPDMA_ChannelCmd
                0x00004134                GPDMA_IntGetStatus
                0x00004294                GPDMA_ClearIntPending
 .text          0x00004304      0x88c build\lib\source\lpc17xx_gpio.o
                0x00004460                GPIO_SetDir
                0x000044ac                GPIO_SetValue
                0x000044d8                GPIO_ClearValue
                0x00004504                GPIO_ReadValue
                0x00004534                GPIO_IntCmd
                0x000045a4                isenabled
                0x000045c4                GPIO_GetIntStatus
                0x00004674                GPIO_ClearInt
                0x000046ac                FIO_SetDir
                0x000046d4                FIO_SetValue
                0x000046f4                FIO_ClearValue
                0x00004714                FIO_ReadValue
                0x00004734                FIO_IntCmd
                0x0000475c                FIO_GetIntStatus
                0x00004788                FIO_ClearInt
                0x000047a8                FIO_SetMask
                0x000047f4                FIO_HalfWordSetDir
                0x00004890                FIO_HalfWordSetMask
                0x0000492c                FIO_HalfWordSetValue
                0x0000496c                FIO_HalfWordClearValue
                0x000049ac                FIO_HalfWordReadValue
                0x000049f0                FIO_ByteSetDir
                0x00004a60                FIO_ByteSetMask
                0x00004ad8                FIO_ByteSetValue
                0x00004b14                FIO_ByteClearValue
                0x00004b50                FIO_ByteReadValue
 .text          0x00004b90     0x1348 build\lib\source\lpc17xx_i2c.o
                0x00004e20                I2C_Init
                0x00004edc                I2C_DeInit
                0x00004f68                I2C_Cmd
                0x00004fdc                I2C_IntCmd
                0x0000506c                I2C_MasterHandler
                0x00005430                I2C_SlaveHandler
                0x00005604                I2C_MasterTransferData
                0x00005938                I2C_SlaveTransferData
                0x00005b98                I2C_SetOwnSlaveAddr
                0x00005c9c                I2C_MonitorModeConfig
                0x00005d24                I2C_MonitorModeCmd
                0x00005dc4                I2C_MonitorGetDatabuffer
                0x00005e10                I2C_MonitorHandler
                0x00005e68                I2C_MasterTransferComplete
                0x00005ea0                I2C_SlaveTransferComplete
 .text          0x00005ed8      0xb2c build\lib\source\lpc17xx_i2s.o
                0x00005fd8                I2S_Init
                0x0000601c                I2S_Config
                0x00006150                I2S_DeInit
                0x00006188                I2S_GetLevel
                0x000061ec                I2S_Start
                0x0000623c                I2S_Send
                0x00006270                I2S_Receive
                0x000062a0                I2S_Pause
                0x00006304                I2S_Mute
                0x00006368                I2S_Stop
                0x000063f0                I2S_FreqConfig
                0x000064ec                I2S_SetBitRate
                0x00006558                I2S_ModeConfig
                0x00006684                I2S_DMAConfig
                0x00006730                I2S_DMACmd
                0x0000683c                I2S_IRQConfig
                0x000068ac                I2S_IRQCmd
                0x0000695c                I2S_GetIRQStatus
                0x000069b8                I2S_GetIRQDepth
 .text          0x00006a04        0xc build\lib\source\lpc17xx_libcfg_default.o
                0x00006a04                check_failed
 .text          0x00006a10      0x7dc build\lib\source\lpc17xx_mcpwm.o
                0x00006a10                MCPWM_Init
                0x00006a44                MCPWM_ConfigChannel
                0x00006c68                MCPWM_WriteToShadow
                0x00006cc4                MCPWM_ConfigCapture
                0x00006e64                MCPWM_ClearCapture
                0x00006e94                MCPWM_GetCapture
                0x00006ed4                MCPWM_CountConfig
                0x00007028                MCPWM_Start
                0x00007084                MCPWM_Stop
                0x000070e0                MCPWM_ACMode
                0x0000710c                MCPWM_DCMode
                0x0000715c                MCPWM_IntConfig
                0x00007188                MCPWM_IntSet
                0x000071a4                MCPWM_IntClear
                0x000071c0                MCPWM_GetIntStatus
 .text          0x000071ec       0xfc build\lib\source\lpc17xx_nvic.o
                0x000071ec                NVIC_DeInit
                0x0000724c                NVIC_SCBDeInit
                0x000072cc                NVIC_SetVTOR
 .text          0x000072e8      0x284 build\lib\source\lpc17xx_pinsel.o
                0x0000749c                PINSEL_ConfigTraceFunc
                0x000074dc                PINSEL_SetI2C0Pins
                0x00007518                PINSEL_ConfigPin
 .text          0x0000756c      0xaac build\lib\source\lpc17xx_pwm.o
                0x0000756c                PWM_GetIntStatus
                0x000075f4                PWM_ClearIntPending
                0x0000766c                PWM_ConfigStructInit
                0x000076d0                PWM_Init
                0x00007864                PWM_DeInit
                0x000078a4                PWM_Cmd
                0x00007908                PWM_CounterCmd
                0x0000796c                PWM_ResetCounter
                0x000079b0                PWM_ConfigMatch
                0x00007b84                PWM_ConfigCapture
                0x00007d54                PWM_GetCaptureValue
                0x00007db8                PWM_MatchUpdate
                0x00007eb0                PWM_ChannelConfig
                0x00007f6c                PWM_ChannelCmd
 .text          0x00008018      0x8a8 build\lib\source\lpc17xx_qei.o
                0x00008018                QEI_Reset
                0x0000806c                QEI_Init
                0x000081ac                QEI_DeInit
                0x000081e4                QEI_ConfigStructInit
                0x00008220                QEI_GetStatus
                0x00008274                QEI_GetPosition
                0x000082a4                QEI_SetMaxPosition
                0x000082d8                QEI_SetPositionComp
                0x0000833c                QEI_GetIndex
                0x0000836c                QEI_SetIndexComp
                0x000083a0                QEI_SetTimerReload
                0x0000844c                QEI_GetTimer
                0x0000847c                QEI_GetVelocity
                0x000084ac                QEI_GetVelocityCap
                0x000084dc                QEI_SetVelocityComp
                0x00008510                QEI_SetDigiFilter
                0x00008544                QEI_GetIntStatus
                0x000085ec                QEI_IntCmd
                0x000086ac                QEI_IntSet
                0x00008744                QEI_IntClear
                0x000087dc                QEI_CalculateRPM
 .text          0x000088c0      0x248 build\lib\source\lpc17xx_rit.o
                0x000088c0                RIT_Init
                0x00008918                RIT_DeInit
                0x00008970                RIT_TimerConfig
                0x000089d4                RIT_Cmd
                0x00008a40                RIT_TimerDebugCmd
                0x00008aac                RIT_GetIntStatus
 .text          0x00008b08      0x58c build\lib\source\lpc17xx_spi.o
                0x00008b08                SPI_SetClock
                0x00008b84                SPI_DeInit
                0x00008bc4                SPI_GetDataSize
                0x00008c00                SPI_Init
                0x00008c98                SPI_ConfigStructInit
                0x00008cdc                SPI_SendData
                0x00008d10                SPI_ReceiveData
                0x00008d44                SPI_ReadWrite
                0x00008f38                SPI_IntCmd
                0x00008fa0                SPI_GetIntStatus
                0x00008fd8                SPI_ClearIntPending
                0x0000900c                SPI_GetStatus
                0x00009040                SPI_CheckStatus
 .text          0x00009094      0x20c build\lib\source\lpc17xx_systick.o
                0x00009094                SYSTICK_InternalInit
                0x00009128                SYSTICK_ExternalInit
                0x000091d0                SYSTICK_Cmd
                0x00009220                SYSTICK_IntCmd
                0x00009270                SYSTICK_GetCurrentValue
                0x00009284                SYSTICK_ClearCounterFlag
 .text          0x000092a0      0xab8 build\lib\source\lpc17xx_timer.o
                0x000093cc                TIM_GetIntStatus
                0x00009474                TIM_GetIntCaptureStatus
                0x00009520                TIM_ClearIntPending
                0x000095b0                TIM_ClearIntCapturePending
                0x00009644                TIM_ConfigStructInit
                0x00009684                TIM_Init
                0x0000982c                TIM_DeInit
                0x000098d4                TIM_Cmd
                0x00009944                TIM_ResetCounter
                0x000099a8                TIM_ConfigMatch
                0x00009b58                TIM_UpdateMatchValue
                0x00009be8                TIM_ConfigCapture
                0x00009ce0                TIM_GetCaptureValue
 .text          0x00009d58     0x1610 build\lib\source\lpc17xx_uart.o
                0x00009fb0                UART_Init
                0x0000a2d4                UART_DeInit
                0x0000a37c                UART_ConfigStructInit
                0x0000a3b0                UART_SendByte
                0x0000a418                UART_ReceiveByte
                0x0000a480                UART_Send
                0x0000a58c                UART_Receive
                0x0000a664                UART_ForceBreak
                0x0000a6dc                UART_IntConfig
                0x0000a874                UART_GetLineStatus
                0x0000a8dc                UART_GetIntId
                0x0000a938                UART_CheckBusy
                0x0000a964                UART_FIFOConfig
                0x0000aac0                UART_FIFOConfigStructInit
                0x0000aaf4                UART_ABCmd
                0x0000ac3c                UART_ABClearIntPending
                0x0000acb0                UART_TxCmd
                0x0000ad7c                UART_IrDAInvtInputCmd
                0x0000adf8                UART_IrDACmd
                0x0000ae6c                UART_IrDAPulseDivConfig
                0x0000af0c                UART_FullModemForcePinState
                0x0000afc8                UART_FullModemConfigMode
                0x0000b090                UART_FullModemGetStatus
                0x0000b0c4                UART_RS485Config
                0x0000b24c                UART_RS485ReceiverCmd
                0x0000b294                UART_RS485Send
                0x0000b318                UART_RS485SendSlvAddr
                0x0000b340                UART_RS485SendData
 .text          0x0000b368      0x2f8 build\lib\source\lpc17xx_wdt.o
                0x0000b4e0                WDT_Init
                0x0000b574                WDT_Start
                0x0000b5b8                WDT_ReadTimeOutFlag
                0x0000b5d8                WDT_ClrTimeOutFlag
                0x0000b5f8                WDT_UpdateTimeOut
                0x0000b628                WDT_Feed
                0x0000b64c                WDT_GetCurrentCount
 .text          0x0000b660        0x0 build\system\core_cm3.o
 .text          0x0000b660      0x510 build\system\system_LPC17xx.o
                0x0000b660                _undef_open_r
                0x0000b680                _undef_close_r
                0x0000b69c                _undef_write_r
                0x0000b6b8                _undef_read_r
                0x0000b6d4                _write_r
                0x0000b708                _read_r
                0x0000b73c                _open_r
                0x0000b7c8                _close_r
                0x0000b7f4                _sbrk_r
                0x0000b848                SystemCoreClockUpdate
                0x0000b9f0                SystemInit
 .text          0x0000bb70       0x14 build\system\startup_LPC17xx.o
                0x0000bb70                NMI_Handler
                0x0000bb72                HardFault_Handler
                0x0000bb74                MemManage_Handler
                0x0000bb76                BusFault_Handler
                0x0000bb78                UsageFault_Handler
                0x0000bb7a                SVC_Handler
                0x0000bb7c                DebugMon_Handler
                0x0000bb7e                PendSV_Handler
                0x0000bb80                SysTick_Handler
                0x0000bb82                PWM1_IRQHandler
                0x0000bb82                I2C1_IRQHandler
                0x0000bb82                EINT2_IRQHandler
                0x0000bb82                EINT3_IRQHandler
                0x0000bb82                CANActivity_IRQHandler
                0x0000bb82                TIMER3_IRQHandler
                0x0000bb82                I2C0_IRQHandler
                0x0000bb82                PLL0_IRQHandler
                0x0000bb82                RIT_IRQHandler
                0x0000bb82                PLL1_IRQHandler
                0x0000bb82                SSP0_IRQHandler
                0x0000bb82                I2S_IRQHandler
                0x0000bb82                I2C2_IRQHandler
                0x0000bb82                RTC_IRQHandler
                0x0000bb82                TIMER0_IRQHandler
                0x0000bb82                SPI_IRQHandler
                0x0000bb82                EINT1_IRQHandler
                0x0000bb82                TIMER1_IRQHandler
                0x0000bb82                UART2_IRQHandler
                0x0000bb82                Default_Handler
                0x0000bb82                ADC_IRQHandler
                0x0000bb82                SSP1_IRQHandler
                0x0000bb82                BOD_IRQHandler
                0x0000bb82                USBActivity_IRQHandler
                0x0000bb82                WDT_IRQHandler
                0x0000bb82                CAN_IRQHandler
                0x0000bb82                QEI_IRQHandler
                0x0000bb82                EINT0_IRQHandler
                0x0000bb82                DMA_IRQHandler
                0x0000bb82                TIMER2_IRQHandler
                0x0000bb82                UART3_IRQHandler
                0x0000bb82                MCPWM_IRQHandler
                0x0000bb82                ENET_IRQHandler
 .text          0x0000bb84      0x4d8 build\USBCDC\cdcuser.o
                0x0000bb84                CDC_RdOutBuf
                0x0000bbf4                CDC_WrOutBuf
                0x0000bc4c                CDC_OutBufAvailChar
                0x0000bc7c                CDC_Init
                0x0000bd0c                CDC_SendEncapsulatedCommand
                0x0000bd1c                CDC_GetEncapsulatedResponse
                0x0000bd2c                CDC_SetCommFeature
                0x0000bd48                CDC_GetCommFeature
                0x0000bd64                CDC_ClearCommFeature
                0x0000bd80                CDC_SetLineCoding
                0x0000be00                CDC_GetLineCoding
                0x0000be64                CDC_SetControlLineState
                0x0000be80                CDC_SendBreak
                0x0000be9c                CDC_BulkIn
                0x0000bee4                CDC_BulkOut
                0x0000bf10                CDC_GetSerialState
                0x0000bfe4                CDC_NotificationIn
 .text          0x0000c05c      0x7f0 build\USBCDC\serial.o
                0x0000c0c8                ser_OpenPort
                0x0000c128                ser_ClosePort
                0x0000c188                ser_InitPort0
                0x0000c33c                ser_InitPort1
                0x0000c4f0                ser_Read
                0x0000c574                ser_Write
                0x0000c640                ser_AvailChar
                0x0000c66c                ser_LineState
                0x0000c694                UART0_IRQHandler
                0x0000c764                UART1_IRQHandler
 .text          0x0000c84c      0xe64 build\USBCDC\usbcore.o
                0x0000c84c                USB_ResetCore
                0x0000c8a0                USB_SetupStage
                0x0000c8b4                USB_DataInStage
                0x0000c90c                USB_DataOutStage
                0x0000c94c                USB_StatusInStage
                0x0000c964                USB_StatusOutStage
                0x0000c978                USB_ReqGetStatus
                0x0000ca94                USB_ReqSetClrFeature
                0x0000cbd4                USB_ReqSetAddress
                0x0000cc10                USB_ReqGetDescriptor
                0x0000cd38                USB_ReqGetConfiguration
                0x0000cd70                USB_ReqSetConfiguration
                0x0000cff8                USB_ReqGetInterface
                0x0000d058                USB_ReqSetInterface
                0x0000d23c                USB_EndPoint0
 .text          0x0000d6b0        0x0 build\USBCDC\usbdesc.o
 .text          0x0000d6b0      0x83c build\USBCDC\usbhw.o
                0x0000d6e4                EPAdr
                0x0000d718                WrCmd
                0x0000d750                WrCmdDat
                0x0000d7ac                WrCmdEP
                0x0000d814                RdCmdDat
                0x0000d854                USB_Init
                0x0000d8f4                USB_Connect
                0x0000d924                USB_Reset
                0x0000d994                USB_Suspend
                0x0000d9a0                USB_Resume
                0x0000d9ac                USB_WakeUp
                0x0000d9d4                USB_WakeUpCfg
                0x0000d9e8                USB_SetAddress
                0x0000da28                USB_Configure
                0x0000da80                USB_ConfigEP
                0x0000dae8                USB_DirCtrlEP
                0x0000dafc                USB_EnableEP
                0x0000db2c                USB_DisableEP
                0x0000db5c                USB_ResetEP
                0x0000db8c                USB_SetStallEP
                0x0000dbbc                USB_ClrStallEP
                0x0000dbec                USB_ClearEPBuf
                0x0000dc08                USB_ReadEP
                0x0000dcb0                USB_WriteEP
                0x0000dd30                USB_GetFrame
                0x0000dd6c                USB_IRQHandler
 .text          0x0000deec      0x180 build\USBCDC\usbuser.o
                0x0000deec                USB_Reset_Event
                0x0000def8                USB_Configure_Event
                0x0000df04                USB_EndPoint1
                0x0000df40                USB_EndPoint2
                0x0000df68                USB_EndPoint3
                0x0000df7c                USB_EndPoint4
                0x0000df90                USB_EndPoint5
                0x0000dfa4                USB_EndPoint6
                0x0000dfb8                USB_EndPoint7
                0x0000dfcc                USB_EndPoint8
                0x0000dfe0                USB_EndPoint9
                0x0000dff4                USB_EndPoint10
                0x0000e008                USB_EndPoint11
                0x0000e01c                USB_EndPoint12
                0x0000e030                USB_EndPoint13
                0x0000e044                USB_EndPoint14
                0x0000e058                USB_EndPoint15
 .text          0x0000e06c      0x10c build\USBCDC\vcomdemo.o
                0x0000e06c                VCOM_Init
                0x0000e07c                VCOM_Serial2Usb
                0x0000e0cc                VCOM_Usb2Serial
                0x0000e118                VCOM_CheckSerialState
                0x0000e148                main
 .text          0x0000e178      0x28c src\shared\PID.o
                0x0000e178                PID::reset()
                0x0000e1b0                PID::reset_state()
                0x0000e234                PID::calculate(int)
                0x0000e38c                PID::setTarget(int)
                0x0000e3b4                PID::getErrorTerm()
                0x0000e3cc                PID::getDeltaTerm()
                0x0000e3ec                PID::getLastOutput()
 .text          0x0000e404      0x54c src\shared\Packet.o
                0x0000e404                _crc_ibutton_update(unsigned char, unsigned char)
                0x0000e474                Packet::appendByte(unsigned char)
                0x0000e4d4                Packet::reset()
                0x0000e50c                InPacket::InPacket()
                0x0000e50c                InPacket::InPacket()
                0x0000e530                InPacket::reset()
                0x0000e548                InPacket::processByte(unsigned char)
                0x0000e670                Packet::read8(unsigned char) const
                0x0000e694                Packet::read16(unsigned char) const
                0x0000e6d4                Packet::read32(unsigned char) const
                0x0000e72c                OutPacket::OutPacket()
                0x0000e72c                OutPacket::OutPacket()
                0x0000e750                OutPacket::reset()
                0x0000e774                OutPacket::prepareForResend()
                0x0000e7a4                OutPacket::getNextByteToSend()
                0x0000e8a0                OutPacket::append8(unsigned char)
                0x0000e8c0                OutPacket::append16(unsigned short)
                0x0000e8f8                OutPacket::append32(unsigned long)
 .text._ZN6Packet5errorEh
                0x0000e950       0x24 src\shared\Packet.o
                0x0000e950                Packet::error(unsigned char)
 .text._ZN6PacketC2Ev
                0x0000e974       0x18 src\shared\Packet.o
                0x0000e974                Packet::Packet()
                0x0000e974                Packet::Packet()
 .text          0x0000e98c      0xb94 build\Command.o
                0x0000e98c                command::getRemainingCapacity()
                0x0000e9ac                command::pause(bool)
                0x0000e9cc                command::isPaused()
                0x0000e9e0                command::isEmpty()
                0x0000e9f4                command::push(unsigned char)
                0x0000ea14                command::pop8()
                0x0000ea28                command::pop16()
                0x0000ea54                command::pop32()
                0x0000ea94                command::reset()
                0x0000eab0                command::runCommandSlice()
 .text._ZN5PointC2Elllll
                0x0000f520       0x3c build\Command.o
                0x0000f520                Point::Point(long, long, long, long, long)
                0x0000f520                Point::Point(long, long, long, long, long)
 .text._ZN5PointC2Elll
                0x0000f55c       0x64 build\Command.o
                0x0000f55c                Point::Point(long, long, long)
                0x0000f55c                Point::Point(long, long, long)
 .text._ZNK5PointixEj
                0x0000f5c0       0x20 build\Command.o
                0x0000f5c0                Point::operator[](unsigned int) const
 .text._ZNK6Packet8hasErrorEv
                0x0000f5e0       0x28 build\Command.o
                0x0000f5e0                Packet::hasError() const
 .text._ZN19CircularBufferTemplIhEC2EtPh
                0x0000f608       0x48 build\Command.o
                0x0000f608                CircularBufferTempl<unsigned char>::CircularBufferTempl(unsigned short, unsigned char*)
                0x0000f608                CircularBufferTempl<unsigned char>::CircularBufferTempl(unsigned short, unsigned char*)
 .text._ZNK19CircularBufferTemplIhE20getRemainingCapacityEv
                0x0000f650       0x24 build\Command.o
                0x0000f650                CircularBufferTempl<unsigned char>::getRemainingCapacity() const
 .text._ZNK19CircularBufferTemplIhE7isEmptyEv
                0x0000f674       0x24 build\Command.o
                0x0000f674                CircularBufferTempl<unsigned char>::isEmpty() const
 .text._ZN19CircularBufferTemplIhE4pushEh
                0x0000f698       0x5c build\Command.o
                0x0000f698                CircularBufferTempl<unsigned char>::push(unsigned char)
 .text._ZN19CircularBufferTemplIhE3popEv
                0x0000f6f4       0x6c build\Command.o
                0x0000f6f4                CircularBufferTempl<unsigned char>::pop()
 .text._ZN19CircularBufferTemplIhE5resetEv
                0x0000f760       0x34 build\Command.o
                0x0000f760                CircularBufferTempl<unsigned char>::reset()
 .text._ZNK19CircularBufferTemplIhE9getLengthEv
                0x0000f794       0x1c build\Command.o
                0x0000f794                CircularBufferTempl<unsigned char>::getLength() const
 .text._ZN19CircularBufferTemplIhEixEt
                0x0000f7b0       0x3c build\Command.o
                0x0000f7b0                CircularBufferTempl<unsigned char>::operator[](unsigned short)
 .text          0x0000f7ec      0x334 build\DebugPacketProcessor.o
                0x0000f7ec                processDebugPacket(InPacket const&, OutPacket&)
 .text._ZNK6Packet9getLengthEv
                0x0000fb20       0x1c build\DebugPacketProcessor.o
                0x0000fb20                Packet::getLength() const
 .text._ZN11Motherboard8getBoardEv
                0x0000fb3c       0x14 build\DebugPacketProcessor.o
                0x0000fb3c                Motherboard::getBoard()
 .text          0x0000fb50       0xa0 build\EepromMap.o
                0x0000fb50                eeprom::init()
                0x0000fb9c                eeprom::getEeprom8(unsigned short, unsigned char)
                0x0000fbc4                eeprom::getEeprom16(unsigned short, unsigned short)
 .text          0x0000fbf0      0x6c0 build\Host.o
                0x0000fbf0                host::runHostSlice()
                0x0000fd94                host::processCommandPacket(InPacket const&, OutPacket&)
                0x0000fe7c                host::doToolPause(OutPacket&)
                0x0000ff98                host::processQueryPacket(InPacket const&, OutPacket&)
                0x00010164                host::getMachineName()
                0x000101f8                host::getBuildName()
                0x0001020c                host::getHostState()
                0x00010220                host::startBuildFromSD()
                0x00010258                host::stopBuild()
 .text._ZNK6Packet12getErrorCodeEv
                0x000102b0       0x1c build\Host.o
                0x000102b0                Packet::getErrorCode() const
 .text._ZNK6Packet7getDataEv
                0x000102cc       0x1c build\Host.o
                0x000102cc                Packet::getData() const
 .text._ZNK8InPacket10isFinishedEv
                0x000102e8       0x28 build\Host.o
                0x000102e8                InPacket::isFinished() const
 .text._ZNK8InPacket9isStartedEv
                0x00010310       0x28 build\Host.o
                0x00010310                InPacket::isStarted() const
 .text._ZN8InPacket7timeoutEv
                0x00010338       0x1c build\Host.o
                0x00010338                InPacket::timeout()
 .text._ZNK9OutPacket9isSendingEv
                0x00010354       0x38 build\Host.o
                0x00010354                OutPacket::isSending() const
 .text._ZN4UART11getHostUARTEv
                0x0001038c       0x14 build\Host.o
                0x0001038c                UART::getHostUART()
 .text._ZNK7Timeout8isActiveEv
                0x000103a0       0x18 build\Host.o
                0x000103a0                Timeout::isActive() const
 .text._ZN11Motherboard11getHostUARTEv
                0x000103b8       0x18 build\Host.o
                0x000103b8                Motherboard::getHostUART()
 .text._ZN11Motherboard19getStepperInterfaceEi
                0x000103d0       0x28 build\Host.o
                0x000103d0                Motherboard::getStepperInterface(int)
 .text._ZN4host13handleVersionERK8InPacketR9OutPacket
                0x000103f8       0x28 build\Host.o
                0x000103f8                host::handleVersion(InPacket const&, OutPacket&)
 .text._ZN4host18handleGetBuildNameERK8InPacketR9OutPacket
                0x00010420       0x5c build\Host.o
                0x00010420                host::handleGetBuildName(InPacket const&, OutPacket&)
 .text._ZN4host19handleGetBufferSizeERK8InPacketR9OutPacket
                0x0001047c       0x2c build\Host.o
                0x0001047c                host::handleGetBufferSize(InPacket const&, OutPacket&)
 .text._ZN4host17handleGetPositionERK8InPacketR9OutPacket
                0x000104a8      0x110 build\Host.o
                0x000104a8                host::handleGetPosition(InPacket const&, OutPacket&)
 .text._ZN4host20handleGetPositionExtERK8InPacketR9OutPacket
                0x000105b8      0x148 build\Host.o
                0x000105b8                host::handleGetPositionExt(InPacket const&, OutPacket&)
 .text._ZN4host19handleCaptureToFileERK8InPacketR9OutPacket
                0x00010700       0x3c build\Host.o
                0x00010700                host::handleCaptureToFile(InPacket const&, OutPacket&)
 .text._ZN4host16handleEndCaptureERK8InPacketR9OutPacket
                0x0001073c       0x2c build\Host.o
                0x0001073c                host::handleEndCapture(InPacket const&, OutPacket&)
 .text._ZN4host14handlePlaybackERK8InPacketR9OutPacket
                0x00010768       0x84 build\Host.o
                0x00010768                host::handlePlayback(InPacket const&, OutPacket&)
 .text._ZN4host18handleNextFilenameERK8InPacketR9OutPacket
                0x000107ec      0x10c build\Host.o
                0x000107ec                host::handleNextFilename(InPacket const&, OutPacket&)
 .text._ZN4host15handleToolQueryERK8InPacketR9OutPacket
                0x000108f8      0x17c build\Host.o
                0x000108f8                host::handleToolQuery(InPacket const&, OutPacket&)
 .text._ZN4host11handlePauseERK8InPacketR9OutPacket
                0x00010a74       0x34 build\Host.o
                0x00010a74                host::handlePause(InPacket const&, OutPacket&)
 .text._ZN4host16handleIsFinishedERK8InPacketR9OutPacket
                0x00010aa8       0x60 build\Host.o
                0x00010aa8                host::handleIsFinished(InPacket const&, OutPacket&)
 .text._ZN4host16handleReadEepromERK8InPacketR9OutPacket
                0x00010b08       0x70 build\Host.o
                0x00010b08                host::handleReadEeprom(InPacket const&, OutPacket&)
 .text._ZN4host17handleWriteEepromERK8InPacketR9OutPacket
                0x00010b78       0x8c build\Host.o
                0x00010b78                host::handleWriteEeprom(InPacket const&, OutPacket&)
 .text._ZN4host18handleExtendedStopERK8InPacketR9OutPacket
                0x00010c04       0x54 build\Host.o
                0x00010c04                host::handleExtendedStop(InPacket const&, OutPacket&)
 .text          0x00010c58      0x1a4 build\Interface.o
                0x00010c58                interfaceboard::isConnected()
                0x00010d4c                interfaceboard::init()
                0x00010d5c                interfaceboard::pushScreen(Screen*)
                0x00010d78                interfaceboard::popScreen()
                0x00010d88                interfaceboard::doInterrupt()
                0x00010d98                interfaceboard::getUpdateRate()
                0x00010dac                interfaceboard::doUpdate()
 .text._ZN4Port15setPinDirectionEhb
                0x00010dfc       0x2c build\Interface.o
                0x00010dfc                Port::setPinDirection(unsigned char, bool)
 .text._ZN4Port6getPinEh
                0x00010e28       0x34 build\Interface.o
                0x00010e28                Port::getPin(unsigned char)
 .text._ZN4Port6setPinEhb
                0x00010e5c       0x4c build\Interface.o
                0x00010e5c                Port::setPin(unsigned char, bool)
 .text._ZN3PinC2ER4Porth
                0x00010ea8       0x38 build\Interface.o
                0x00010ea8                Pin::Pin(Port&, unsigned char)
                0x00010ea8                Pin::Pin(Port&, unsigned char)
 .text._ZN3Pin12setDirectionEb
                0x00010ee0       0x30 build\Interface.o
                0x00010ee0                Pin::setDirection(bool)
 .text._ZN3Pin8getValueEv
                0x00010f10       0x28 build\Interface.o
                0x00010f10                Pin::getValue()
 .text._ZN3Pin8setValueEb
                0x00010f38       0x30 build\Interface.o
                0x00010f38                Pin::setValue(bool)
 .text          0x00010f68      0x5e8 build\InterfaceBoard.o
                0x00010f68                ButtonArray::init()
                0x00010f8c                ButtonArray::scanButtons()
                0x000110b8                ButtonArray::getButton(InterfaceBoardDefinitions::ButtonName&)
                0x000110f4                InterfaceBoard::InterfaceBoard()
                0x000110f4                InterfaceBoard::InterfaceBoard()
                0x000112c8                InterfaceBoard::init()
                0x000112dc                InterfaceBoard::doInterrupt()
                0x000112f8                InterfaceBoard::getUpdateRate()
                0x0001133c                InterfaceBoard::doUpdate()
                0x00011434                InterfaceBoard::pushScreen(Screen*)
                0x000114e8                InterfaceBoard::popScreen()
 .text._ZN6ScreenC2Ev
                0x00011550       0x20 build\InterfaceBoard.o
                0x00011550                Screen::Screen()
                0x00011550                Screen::Screen()
 .text._ZN12SplashScreenC2Ev
                0x00011570       0x28 build\InterfaceBoard.o
                0x00011570                SplashScreen::SplashScreen()
                0x00011570                SplashScreen::SplashScreen()
 .text._ZN11MonitorModeC2Ev
                0x00011598       0x34 build\InterfaceBoard.o
                0x00011598                MonitorMode::MonitorMode()
                0x00011598                MonitorMode::MonitorMode()
 .text          0x000115cc       0x70 build\LPCPort.o
 .text._ZN4PortC2Eh
                0x0001163c       0x20 build\LPCPort.o
                0x0001163c                Port::Port(unsigned char)
                0x0001163c                Port::Port(unsigned char)
 .text          0x0001165c      0xc30 build\LiquidCrystal.o
                0x0001165c                SysTick_Handler()
                0x000116ac                LiquidCrystal::LiquidCrystal(Pin, Pin, Pin, Pin, Pin, Pin, Pin, Pin, Pin, Pin, Pin)
                0x000116ac                LiquidCrystal::LiquidCrystal(Pin, Pin, Pin, Pin, Pin, Pin, Pin, Pin, Pin, Pin, Pin)
                0x00011764                LiquidCrystal::LiquidCrystal(Pin, Pin, Pin, Pin, Pin, Pin, Pin, Pin, Pin, Pin)
                0x00011764                LiquidCrystal::LiquidCrystal(Pin, Pin, Pin, Pin, Pin, Pin, Pin, Pin, Pin, Pin)
                0x00011828                LiquidCrystal::LiquidCrystal(Pin, Pin, Pin, Pin, Pin, Pin, Pin)
                0x00011828                LiquidCrystal::LiquidCrystal(Pin, Pin, Pin, Pin, Pin, Pin, Pin)
                0x00011908                LiquidCrystal::LiquidCrystal(Pin, Pin, Pin, Pin, Pin, Pin)
                0x00011908                LiquidCrystal::LiquidCrystal(Pin, Pin, Pin, Pin, Pin, Pin)
                0x000119f4                LiquidCrystal::init(unsigned char, Pin, Pin, Pin, Pin, Pin, Pin, Pin, Pin, Pin, Pin, Pin)
                0x00011ac0                LiquidCrystal::begin(unsigned char, unsigned char, unsigned char)
                0x00011c38                LiquidCrystal::clear()
                0x00011c5c                LiquidCrystal::home()
                0x00011c80                LiquidCrystal::setCursor(unsigned char, unsigned char)
                0x00011ce8                LiquidCrystal::noDisplay()
                0x00011d18                LiquidCrystal::display()
                0x00011d48                LiquidCrystal::noCursor()
                0x00011d78                LiquidCrystal::cursor()
                0x00011da8                LiquidCrystal::noBlink()
                0x00011dd8                LiquidCrystal::blink()
                0x00011e08                LiquidCrystal::scrollDisplayLeft()
                0x00011e24                LiquidCrystal::scrollDisplayRight()
                0x00011e40                LiquidCrystal::leftToRight()
                0x00011e70                LiquidCrystal::rightToLeft()
                0x00011ea0                LiquidCrystal::autoscroll()
                0x00011ed0                LiquidCrystal::noAutoscroll()
                0x00011f00                LiquidCrystal::createChar(unsigned char, unsigned char*)
                0x00011f6c                LiquidCrystal::writeInt(unsigned short, unsigned char)
                0x0001202c                LiquidCrystal::writeString(char*)
                0x00012070                LiquidCrystal::writeFromPgmspace(char const*)
                0x000120b0                LiquidCrystal::send(unsigned char, bool)
                0x00012134                LiquidCrystal::pulseEnable()
                0x0001218c                LiquidCrystal::write4bits(unsigned char)
                0x0001220c                LiquidCrystal::write8bits(unsigned char)
 .text._ZN4PortC2Ev
                0x0001228c       0x20 build\LiquidCrystal.o
                0x0001228c                Port::Port()
                0x0001228c                Port::Port()
 .text._ZN4Port6isNullEv
                0x000122ac       0x24 build\LiquidCrystal.o
                0x000122ac                Port::isNull()
 .text._ZN3PinC2Ev
                0x000122d0       0x28 build\LiquidCrystal.o
                0x000122d0                Pin::Pin()
                0x000122d0                Pin::Pin()
 .text._ZN3Pin6isNullEv
                0x000122f8       0x1c build\LiquidCrystal.o
                0x000122f8                Pin::isNull()
 .text._ZN13LiquidCrystal7commandEh
                0x00012314       0x24 build\LiquidCrystal.o
                0x00012314                LiquidCrystal::command(unsigned char)
 .text._ZN13LiquidCrystal5writeEh
                0x00012338       0x24 build\LiquidCrystal.o
                0x00012338                LiquidCrystal::write(unsigned char)
 .text          0x0001235c      0x1d0 build\Main.o
                0x00012458                reset(bool)
 .text          0x0001252c     0x1298 build\Menu.o
                0x0001257c                queryExtruderParameter(unsigned char, OutPacket&)
                0x000126a4                SplashScreen::update(LiquidCrystal&, bool)
                0x00012730                SplashScreen::notifyButtonPressed(InterfaceBoardDefinitions::ButtonName)
                0x00012748                SplashScreen::reset()
                0x0001275c                JogMode::reset()
                0x00012780                JogMode::update(LiquidCrystal&, bool)
                0x00012840                JogMode::jog(InterfaceBoardDefinitions::ButtonName)
                0x0001295c                JogMode::notifyButtonPressed(InterfaceBoardDefinitions::ButtonName)
                0x000129e8                SnakeMode::update(LiquidCrystal&, bool)
                0x00012d88                SnakeMode::reset()
                0x00012e48                SnakeMode::notifyButtonPressed(InterfaceBoardDefinitions::ButtonName)
                0x00012ec4                MonitorMode::reset()
                0x00012ed8                MonitorMode::update(LiquidCrystal&, bool)
                0x00013090                MonitorMode::notifyButtonPressed(InterfaceBoardDefinitions::ButtonName)
                0x000130cc                Menu::update(LiquidCrystal&, bool)
                0x000131d0                Menu::reset()
                0x00013208                Menu::resetState()
                0x0001321c                Menu::handleSelect(unsigned char)
                0x00013234                Menu::handleCancel()
                0x00013248                Menu::notifyButtonPressed(InterfaceBoardDefinitions::ButtonName)
                0x00013308                CancelBuildMenu::CancelBuildMenu()
                0x00013308                CancelBuildMenu::CancelBuildMenu()
                0x00013340                CancelBuildMenu::resetState()
                0x00013364                CancelBuildMenu::drawItem(unsigned char, LiquidCrystal&)
                0x000133c4                CancelBuildMenu::handleSelect(unsigned char)
                0x000133f4                MainMenu::MainMenu()
                0x000133f4                MainMenu::MainMenu()
                0x0001342c                MainMenu::drawItem(unsigned char, LiquidCrystal&)
                0x0001349c                MainMenu::handleSelect(unsigned char)
                0x00013500                SDMenu::SDMenu()
                0x00013500                SDMenu::SDMenu()
                0x00013530                SDMenu::resetState()
                0x00013550                SDMenu::countFiles()
                0x000135c0                SDMenu::getFilename(unsigned char, char*, unsigned char)
                0x00013654                SDMenu::drawItem(unsigned char, LiquidCrystal&)
                0x00013704                SDMenu::handleSelect(unsigned char)
 .text._ZN5PointixEj
                0x000137c4       0x20 build\Menu.o
                0x000137c4                Point::operator[](unsigned int)
 .text._ZN4Menu13getUpdateRateEv
                0x000137e4       0x1c build\Menu.o
                0x000137e4                Menu::getUpdateRate()
 .text._ZN12SplashScreen13getUpdateRateEv
                0x00013800       0x18 build\Menu.o
                0x00013800                SplashScreen::getUpdateRate()
 .text._ZN7JogMode13getUpdateRateEv
                0x00013818       0x18 build\Menu.o
                0x00013818                JogMode::getUpdateRate()
 .text._ZN9SnakeMode13getUpdateRateEv
                0x00013830       0x18 build\Menu.o
                0x00013830                SnakeMode::getUpdateRate()
 .text._ZN11MonitorMode13getUpdateRateEv
                0x00013848       0x1c build\Menu.o
                0x00013848                MonitorMode::getUpdateRate()
 .text._ZN7JogModeC2Ev
                0x00013864       0x28 build\Menu.o
                0x00013864                JogMode::JogMode()
                0x00013864                JogMode::JogMode()
 .text._ZN9SnakeModeC2Ev
                0x0001388c       0x28 build\Menu.o
                0x0001388c                SnakeMode::SnakeMode()
                0x0001388c                SnakeMode::SnakeMode()
 .text._ZN4MenuC2Ev
                0x000138b4       0x28 build\Menu.o
                0x000138b4                Menu::Menu()
                0x000138b4                Menu::Menu()
 .text          0x000138dc      0x72c build\Motherboard.o
                0x000138dc                Motherboard::Motherboard()
                0x000138dc                Motherboard::Motherboard()
                0x00013b8c                Motherboard::reset()
                0x00013d4c                Motherboard::getCurrentMicros()
                0x00013d68                Motherboard::doInterrupt()
                0x00013da4                Motherboard::runMotherboardSlice()
                0x00013de8                TIMER1_IRQHandler()
                0x00013e08                Motherboard::indicateError(int)
                0x00013e7c                Motherboard::getCurrentError()
                0x00013e9c                TIMER2_IRQHandler()
 .text._ZN4UART12getSlaveUARTEv
                0x00014008       0x14 build\Motherboard.o
                0x00014008                UART::getSlaveUART()
 .text._ZN16StepperInterfaceC2Ev
                0x0001401c       0x4c build\Motherboard.o
                0x0001401c                StepperInterface::StepperInterface()
                0x0001401c                StepperInterface::StepperInterface()
 .text._ZN16StepperInterfaceC2ERK3PinS2_S2_S2_S2_
                0x00014068       0x64 build\Motherboard.o
                0x00014068                StepperInterface::StepperInterface(Pin const&, Pin const&, Pin const&, Pin const&, Pin const&)
                0x00014068                StepperInterface::StepperInterface(Pin const&, Pin const&, Pin const&, Pin const&, Pin const&)
 .text._ZN11Motherboard12getSlaveUARTEv
                0x000140cc       0x18 build\Motherboard.o
                0x000140cc                Motherboard::getSlaveUART()
 .text._ZN11Motherboard6getPSUEv
                0x000140e4       0x1c build\Motherboard.o
                0x000140e4                Motherboard::getPSU()
 .text          0x00014100      0x28c build\PID.o
 .text          0x0001438c       0x2c build\PSU.o
                0x0001438c                PSU::init()
                0x000143a0                PSU::turnOn(bool)
 .text          0x000143b8      0x54c build\Packet.o
 .text          0x00014904      0x730 build\SDCard.o
                0x00014904                sdcard::openPartition()
                0x00014974                sdcard::openFilesys()
                0x000149a4                sdcard::openRoot()
                0x000149f8                sdcard::initCard()
                0x00014aa8                sdcard::directoryReset()
                0x00014ae8                sdcard::directoryNextEntry(char*, unsigned char)
                0x00014bbc                sdcard::findFileInDir(char const*, fat_dir_entry_struct*)
                0x00014c18                sdcard::openFile(char const*, fat_file_struct**)
                0x00014c6c                sdcard::deleteFile(char*)
                0x00014cb4                sdcard::createFile(char*)
                0x00014ce8                sdcard::isPlaying()
                0x00014cfc                sdcard::isCapturing()
                0x00014d10                sdcard::startCapture(char*)
                0x00014da8                sdcard::capturePacket(Packet const&)
                0x00014e00                sdcard::finishCapture()
                0x00014e4c                sdcard::fetchNextByte()
                0x00014e8c                sdcard::playbackHasNext()
                0x00014ea0                sdcard::playbackNext()
                0x00014ec0                sdcard::startPlayback(char*)
                0x00014f4c                sdcard::playbackRewind(unsigned char)
                0x00014f80                sdcard::finishPlayback()
                0x00014fb4                sdcard::reset()
 .text          0x00015034      0x244 build\StepperInterface.o
                0x00015034                StepperInterface::setDirection(bool)
                0x00015064                StepperInterface::step(bool)
                0x00015088                StepperInterface::setEnabled(bool)
                0x000150b4                StepperInterface::isAtMaximum()
                0x00015100                StepperInterface::isAtMinimum()
                0x0001514c                StepperInterface::init(unsigned char)
 .text          0x00015278      0x66c build\Steppers.o
                0x00015278                steppers::isRunning()
                0x000152ac                steppers::init(Motherboard&)
                0x00015320                steppers::abort()
                0x00015344                steppers::definePosition(Point const&)
                0x00015398                steppers::getPosition()
                0x000153cc                steppers::setHoldZ(bool)
                0x000153ec                steppers::setTarget(Point const&, long)
                0x00015538                steppers::setTargetNew(Point const&, long, unsigned char)
                0x0001567c                steppers::startHoming(bool, unsigned char, unsigned long)
                0x00015744                steppers::enableAxis(unsigned char, bool)
                0x00015778                steppers::doInterrupt()
 .text._ZN8steppers4AxisC2Ev
                0x000158e4       0x20 build\Steppers.o
                0x000158e4                steppers::Axis::Axis()
                0x000158e4                steppers::Axis::Axis()
 .text._ZN8steppers4AxisC2ER16StepperInterface
                0x00015904       0x24 build\Steppers.o
                0x00015904                steppers::Axis::Axis(StepperInterface&)
                0x00015904                steppers::Axis::Axis(StepperInterface&)
 .text._ZN8steppers4Axis9setTargetElb
                0x00015928       0x84 build\Steppers.o
                0x00015928                steppers::Axis::setTarget(long, bool)
 .text._ZN8steppers4Axis9setHomingEb
                0x000159ac       0x30 build\Steppers.o
                0x000159ac                steppers::Axis::setHoming(bool)
 .text._ZN8steppers4Axis14definePositionEl
                0x000159dc       0x1c build\Steppers.o
                0x000159dc                steppers::Axis::definePosition(long)
 .text._ZN8steppers4Axis13enableStepperEb
                0x000159f8       0x24 build\Steppers.o
                0x000159f8                steppers::Axis::enableStepper(bool)
 .text._ZN8steppers4Axis5resetEv
                0x00015a1c       0x44 build\Steppers.o
                0x00015a1c                steppers::Axis::reset()
 .text._ZN8steppers4Axis11doInterruptEl
                0x00015a60       0xcc build\Steppers.o
                0x00015a60                steppers::Axis::doInterrupt(long)
 .text._ZN8steppers4Axis8doHomingEl
                0x00015b2c       0xf8 build\Steppers.o
                0x00015b2c                steppers::Axis::doHoming(long)
 .text          0x00015c24       0xe0 build\Timeout.o
                0x00015c24                Timeout::Timeout()
                0x00015c24                Timeout::Timeout()
                0x00015c4c                Timeout::start(unsigned long)
                0x00015c88                Timeout::hasElapsed()
                0x00015ce8                Timeout::abort()
 .text          0x00015d04      0x384 build\Tool.o
                0x00015d04                tool::getInPacket()
                0x00015d20                tool::getOutPacket()
                0x00015d3c                tool::reset()
                0x00015e1c                tool::getLock()
                0x00015e54                tool::releaseLock()
                0x00015e6c                tool::startTransaction()
                0x00015ec4                tool::isTransactionDone()
                0x00015ee0                tool::runToolSlice()
 .text          0x00016088      0x33c build\UART.o
                0x000160d8                UART::UART(unsigned char)
                0x000160d8                UART::UART(unsigned char)
                0x000161b8                UART::beginSend()
                0x00016238                UART::enable(bool)
                0x0001629c                UART::reset()
                0x000162c4                UART1_IRQHandler()
 .text._Z6listenv
                0x000163c4       0x30 build\UART.o
                0x000163c4                listen()
 .text._Z5speakv
                0x000163f4       0x30 build\UART.o
                0x000163f4                speak()
 .text          0x00016424        0x0 c:/progra~2/codesourcery/source~1/bin/../lib/gcc/arm-none-eabi/4.5.2/../../../../arm-none-eabi/lib/thumb2\libstdc++.a(si_class_type_info.o)
 .text._ZNK10__cxxabiv120__si_class_type_info11__do_upcastEPKNS_17__class_type_infoEPKvRNS1_15__upcast_resultE
                0x00016424       0x28 c:/progra~2/codesourcery/source~1/bin/../lib/gcc/arm-none-eabi/4.5.2/../../../../arm-none-eabi/lib/thumb2\libstdc++.a(si_class_type_info.o)
                0x00016424                __cxxabiv1::__si_class_type_info::__do_upcast(__cxxabiv1::__class_type_info const*, void const*, __cxxabiv1::__class_type_info::__upcast_result&) const
 .text._ZNK10__cxxabiv120__si_class_type_info12__do_dyncastEiNS_17__class_type_info10__sub_kindEPKS1_PKvS4_S6_RNS1_16__dyncast_resultE
                0x0001644c       0x90 c:/progra~2/codesourcery/source~1/bin/../lib/gcc/arm-none-eabi/4.5.2/../../../../arm-none-eabi/lib/thumb2\libstdc++.a(si_class_type_info.o)
                0x0001644c                __cxxabiv1::__si_class_type_info::__do_dyncast(int, __cxxabiv1::__class_type_info::__sub_kind, __cxxabiv1::__class_type_info const*, void const*, __cxxabiv1::__class_type_info const*, void const*, __cxxabiv1::__class_type_info::__dyncast_result&) const
 .text._ZNK10__cxxabiv120__si_class_type_info20__do_find_public_srcEiPKvPKNS_17__class_type_infoES2_
                0x000164dc       0x38 c:/progra~2/codesourcery/source~1/bin/../lib/gcc/arm-none-eabi/4.5.2/../../../../arm-none-eabi/lib/thumb2\libstdc++.a(si_class_type_info.o)
                0x000164dc                __cxxabiv1::__si_class_type_info::__do_find_public_src(int, void const*, __cxxabiv1::__class_type_info const*, void const*) const
 .text._ZN10__cxxabiv120__si_class_type_infoD2Ev
                0x00016514       0x14 c:/progra~2/codesourcery/source~1/bin/../lib/gcc/arm-none-eabi/4.5.2/../../../../arm-none-eabi/lib/thumb2\libstdc++.a(si_class_type_info.o)
                0x00016514                __cxxabiv1::__si_class_type_info::~__si_class_type_info()
                0x00016514                __cxxabiv1::__si_class_type_info::~__si_class_type_info()
 .text._ZN10__cxxabiv120__si_class_type_infoD0Ev
                0x00016528       0x1c c:/progra~2/codesourcery/source~1/bin/../lib/gcc/arm-none-eabi/4.5.2/../../../../arm-none-eabi/lib/thumb2\libstdc++.a(si_class_type_info.o)
                0x00016528                __cxxabiv1::__si_class_type_info::~__si_class_type_info()
 .text          0x00016544        0x0 c:/progra~2/codesourcery/source~1/bin/../lib/gcc/arm-none-eabi/4.5.2/../../../../arm-none-eabi/lib/thumb2\libstdc++.a(del_op.o)
 .text._ZdlPv   0x00016544        0x8 c:/progra~2/codesourcery/source~1/bin/../lib/gcc/arm-none-eabi/4.5.2/../../../../arm-none-eabi/lib/thumb2\libstdc++.a(del_op.o)
                0x00016544                operator delete(void*)
 .text          0x0001654c        0x0 c:/progra~2/codesourcery/source~1/bin/../lib/gcc/arm-none-eabi/4.5.2/../../../../arm-none-eabi/lib/thumb2\libstdc++.a(pure.o)
 .text.__cxa_pure_virtual
                0x0001654c       0x18 c:/progra~2/codesourcery/source~1/bin/../lib/gcc/arm-none-eabi/4.5.2/../../../../arm-none-eabi/lib/thumb2\libstdc++.a(pure.o)
                0x0001654c                __cxa_pure_virtual
 .text          0x00016564        0x0 c:/progra~2/codesourcery/source~1/bin/../lib/gcc/arm-none-eabi/4.5.2/../../../../arm-none-eabi/lib/thumb2\libstdc++.a(class_type_info.o)
 .text._ZNK10__cxxabiv117__class_type_info11__do_upcastEPKS0_PPv
                0x00016564       0x38 c:/progra~2/codesourcery/source~1/bin/../lib/gcc/arm-none-eabi/4.5.2/../../../../arm-none-eabi/lib/thumb2\libstdc++.a(class_type_info.o)
                0x00016564                __cxxabiv1::__class_type_info::__do_upcast(__cxxabiv1::__class_type_info const*, void**) const
 .text._ZNK10__cxxabiv117__class_type_info20__do_find_public_srcEiPKvPKS0_S2_
                0x0001659c        0xc c:/progra~2/codesourcery/source~1/bin/../lib/gcc/arm-none-eabi/4.5.2/../../../../arm-none-eabi/lib/thumb2\libstdc++.a(class_type_info.o)
                0x0001659c                __cxxabiv1::__class_type_info::__do_find_public_src(int, void const*, __cxxabiv1::__class_type_info const*, void const*) const
 .text._ZNK10__cxxabiv117__class_type_info11__do_upcastEPKS0_PKvRNS0_15__upcast_resultE
                0x000165a8       0x1c c:/progra~2/codesourcery/source~1/bin/../lib/gcc/arm-none-eabi/4.5.2/../../../../arm-none-eabi/lib/thumb2\libstdc++.a(class_type_info.o)
                0x000165a8                __cxxabiv1::__class_type_info::__do_upcast(__cxxabiv1::__class_type_info const*, void const*, __cxxabiv1::__class_type_info::__upcast_result&) const
 .text._ZNK10__cxxabiv117__class_type_info12__do_dyncastEiNS0_10__sub_kindEPKS0_PKvS3_S5_RNS0_16__dyncast_resultE
                0x000165c4       0x3c c:/progra~2/codesourcery/source~1/bin/../lib/gcc/arm-none-eabi/4.5.2/../../../../arm-none-eabi/lib/thumb2\libstdc++.a(class_type_info.o)
                0x000165c4                __cxxabiv1::__class_type_info::__do_dyncast(int, __cxxabiv1::__class_type_info::__sub_kind, __cxxabiv1::__class_type_info const*, void const*, __cxxabiv1::__class_type_info const*, void const*, __cxxabiv1::__class_type_info::__dyncast_result&) const
 .text._ZNK10__cxxabiv117__class_type_info10__do_catchEPKSt9type_infoPPvj
                0x00016600       0x28 c:/progra~2/codesourcery/source~1/bin/../lib/gcc/arm-none-eabi/4.5.2/../../../../arm-none-eabi/lib/thumb2\libstdc++.a(class_type_info.o)
                0x00016600                __cxxabiv1::__class_type_info::__do_catch(std::type_info const*, void**, unsigned int) const
 .text._ZN10__cxxabiv117__class_type_infoD2Ev
                0x00016628       0x14 c:/progra~2/codesourcery/source~1/bin/../lib/gcc/arm-none-eabi/4.5.2/../../../../arm-none-eabi/lib/thumb2\libstdc++.a(class_type_info.o)
                0x00016628                __cxxabiv1::__class_type_info::~__class_type_info()
                0x00016628                __cxxabiv1::__class_type_info::~__class_type_info()
 .text._ZN10__cxxabiv117__class_type_infoD0Ev
                0x0001663c       0x1c c:/progra~2/codesourcery/source~1/bin/../lib/gcc/arm-none-eabi/4.5.2/../../../../arm-none-eabi/lib/thumb2\libstdc++.a(class_type_info.o)
                0x0001663c                __cxxabiv1::__class_type_info::~__class_type_info()
 .text          0x00016658        0x0 c:/progra~2/codesourcery/source~1/bin/../lib/gcc/arm-none-eabi/4.5.2/../../../../arm-none-eabi/lib/thumb2\libstdc++.a(tinfo.o)
 .text._ZNSt9type_infoD2Ev
                0x00016658        0xc c:/progra~2/codesourcery/source~1/bin/../lib/gcc/arm-none-eabi/4.5.2/../../../../arm-none-eabi/lib/thumb2\libstdc++.a(tinfo.o)
                0x00016658                std::type_info::~type_info()
                0x00016658                std::type_info::~type_info()
 .text._ZNKSt9type_info14__is_pointer_pEv
                0x00016664        0x4 c:/progra~2/codesourcery/source~1/bin/../lib/gcc/arm-none-eabi/4.5.2/../../../../arm-none-eabi/lib/thumb2\libstdc++.a(tinfo.o)
                0x00016664                std::type_info::__is_pointer_p() const
 .text._ZNKSt9type_info15__is_function_pEv
                0x00016668        0x4 c:/progra~2/codesourcery/source~1/bin/../lib/gcc/arm-none-eabi/4.5.2/../../../../arm-none-eabi/lib/thumb2\libstdc++.a(tinfo.o)
                0x00016668                std::type_info::__is_function_p() const
 .text._ZNKSt9type_info11__do_upcastEPKN10__cxxabiv117__class_type_infoEPPv
                0x0001666c        0x4 c:/progra~2/codesourcery/source~1/bin/../lib/gcc/arm-none-eabi/4.5.2/../../../../arm-none-eabi/lib/thumb2\libstdc++.a(tinfo.o)
                0x0001666c                std::type_info::__do_upcast(__cxxabiv1::__class_type_info const*, void**) const
 .text._ZNSt9type_infoD0Ev
                0x00016670       0x14 c:/progra~2/codesourcery/source~1/bin/../lib/gcc/arm-none-eabi/4.5.2/../../../../arm-none-eabi/lib/thumb2\libstdc++.a(tinfo.o)
                0x00016670                std::type_info::~type_info()
 .text._ZNKSt9type_infoeqERKS_
                0x00016684       0x3c c:/progra~2/codesourcery/source~1/bin/../lib/gcc/arm-none-eabi/4.5.2/../../../../arm-none-eabi/lib/thumb2\libstdc++.a(tinfo.o)
                0x00016684                std::type_info::operator==(std::type_info const&) const
 .text._ZNKSt9type_info10__do_catchEPKS_PPvj
                0x000166c0        0x4 c:/progra~2/codesourcery/source~1/bin/../lib/gcc/arm-none-eabi/4.5.2/../../../../arm-none-eabi/lib/thumb2\libstdc++.a(tinfo.o)
                0x000166c0                std::type_info::__do_catch(std::type_info const*, void**, unsigned int) const
 .text          0x000166c4        0x0 c:/progra~2/codesourcery/source~1/bin/../lib/gcc/arm-none-eabi/4.5.2/../../../../arm-none-eabi/lib/thumb2\libstdc++.a(eh_terminate.o)
 .text._ZN10__cxxabiv111__terminateEPFvvE
                0x000166c4       0x28 c:/progra~2/codesourcery/source~1/bin/../lib/gcc/arm-none-eabi/4.5.2/../../../../arm-none-eabi/lib/thumb2\libstdc++.a(eh_terminate.o)
                0x000166c4                __cxxabiv1::__terminate(void (*)())
 .text._ZSt9terminatev
                0x000166ec       0x10 c:/progra~2/codesourcery/source~1/bin/../lib/gcc/arm-none-eabi/4.5.2/../../../../arm-none-eabi/lib/thumb2\libstdc++.a(eh_terminate.o)
                0x000166ec                std::terminate()
 .text._ZN10__cxxabiv112__unexpectedEPFvvE
                0x000166fc        0x8 c:/progra~2/codesourcery/source~1/bin/../lib/gcc/arm-none-eabi/4.5.2/../../../../arm-none-eabi/lib/thumb2\libstdc++.a(eh_terminate.o)
                0x000166fc                __cxxabiv1::__unexpected(void (*)())
 .text._ZSt10unexpectedv
                0x00016704       0x14 c:/progra~2/codesourcery/source~1/bin/../lib/gcc/arm-none-eabi/4.5.2/../../../../arm-none-eabi/lib/thumb2\libstdc++.a(eh_terminate.o)
                0x00016704                std::unexpected()
 .text._ZSt13set_terminatePFvvE
                0x00016718       0x10 c:/progra~2/codesourcery/source~1/bin/../lib/gcc/arm-none-eabi/4.5.2/../../../../arm-none-eabi/lib/thumb2\libstdc++.a(eh_terminate.o)
                0x00016718                std::set_terminate(void (*)())
 .text._ZSt14set_unexpectedPFvvE
                0x00016728       0x10 c:/progra~2/codesourcery/source~1/bin/../lib/gcc/arm-none-eabi/4.5.2/../../../../arm-none-eabi/lib/thumb2\libstdc++.a(eh_terminate.o)
                0x00016728                std::set_unexpected(void (*)())
 .text          0x00016738        0x0 c:/progra~2/codesourcery/source~1/bin/../lib/gcc/arm-none-eabi/4.5.2/../../../../arm-none-eabi/lib/thumb2\libstdc++.a(eh_call.o)
 .text.__cxa_call_terminate
                0x00016738       0x50 c:/progra~2/codesourcery/source~1/bin/../lib/gcc/arm-none-eabi/4.5.2/../../../../arm-none-eabi/lib/thumb2\libstdc++.a(eh_call.o)
                0x00016738                __cxa_call_terminate
 .text.__cxa_call_unexpected
                0x00016788      0x130 c:/progra~2/codesourcery/source~1/bin/../lib/gcc/arm-none-eabi/4.5.2/../../../../arm-none-eabi/lib/thumb2\libstdc++.a(eh_call.o)
                0x00016788                __cxa_call_unexpected
 .text          0x000168b8        0x0 c:/progra~2/codesourcery/source~1/bin/../lib/gcc/arm-none-eabi/4.5.2/../../../../arm-none-eabi/lib/thumb2\libstdc++.a(eh_term_handler.o)
 .text          0x000168b8        0x0 c:/progra~2/codesourcery/source~1/bin/../lib/gcc/arm-none-eabi/4.5.2/../../../../arm-none-eabi/lib/thumb2\libstdc++.a(eh_personality.o)
 .text._ZL12read_sleb128PKhPl
                0x000168b8       0x3c c:/progra~2/codesourcery/source~1/bin/../lib/gcc/arm-none-eabi/4.5.2/../../../../arm-none-eabi/lib/thumb2\libstdc++.a(eh_personality.o)
 .text._ZL28read_encoded_value_with_basehjPKhPj
                0x000168f4       0xac c:/progra~2/codesourcery/source~1/bin/../lib/gcc/arm-none-eabi/4.5.2/../../../../arm-none-eabi/lib/thumb2\libstdc++.a(eh_personality.o)
 .text._ZL21base_of_encoded_valuehP15_Unwind_Context
                0x000169a0       0x4c c:/progra~2/codesourcery/source~1/bin/../lib/gcc/arm-none-eabi/4.5.2/../../../../arm-none-eabi/lib/thumb2\libstdc++.a(eh_personality.o)
 .text._ZL17parse_lsda_headerP15_Unwind_ContextPKhP16lsda_header_info
                0x000169ec       0x8c c:/progra~2/codesourcery/source~1/bin/../lib/gcc/arm-none-eabi/4.5.2/../../../../arm-none-eabi/lib/thumb2\libstdc++.a(eh_personality.o)
 .text.__gxx_personality_v0
                0x00016a78      0x3ec c:/progra~2/codesourcery/source~1/bin/../lib/gcc/arm-none-eabi/4.5.2/../../../../arm-none-eabi/lib/thumb2\libstdc++.a(eh_personality.o)
                0x00016a78                __gxx_personality_v0
 .text          0x00016e64        0x0 c:/progra~2/codesourcery/source~1/bin/../lib/gcc/arm-none-eabi/4.5.2/../../../../arm-none-eabi/lib/thumb2\libstdc++.a(eh_throw.o)
 .text._ZL23__gxx_exception_cleanup19_Unwind_Reason_CodeP21_Unwind_Control_Block
                0x00016e64       0x4c c:/progra~2/codesourcery/source~1/bin/../lib/gcc/arm-none-eabi/4.5.2/../../../../arm-none-eabi/lib/thumb2\libstdc++.a(eh_throw.o)
 .text.__cxa_throw
                0x00016eb0       0x80 c:/progra~2/codesourcery/source~1/bin/../lib/gcc/arm-none-eabi/4.5.2/../../../../arm-none-eabi/lib/thumb2\libstdc++.a(eh_throw.o)
                0x00016eb0                __cxa_throw
 .text.__cxa_rethrow
                0x00016f30       0x78 c:/progra~2/codesourcery/source~1/bin/../lib/gcc/arm-none-eabi/4.5.2/../../../../arm-none-eabi/lib/thumb2\libstdc++.a(eh_throw.o)
                0x00016f30                __cxa_rethrow
 .text          0x00016fa8        0x0 c:/progra~2/codesourcery/source~1/bin/../lib/gcc/arm-none-eabi/4.5.2/../../../../arm-none-eabi/lib/thumb2\libstdc++.a(eh_unex_handler.o)
 .text          0x00016fa8        0x0 c:/progra~2/codesourcery/source~1/bin/../lib/gcc/arm-none-eabi/4.5.2/../../../../arm-none-eabi/lib/thumb2\libstdc++.a(eh_globals.o)
 .text.__cxa_get_globals_fast
                0x00016fa8        0xc c:/progra~2/codesourcery/source~1/bin/../lib/gcc/arm-none-eabi/4.5.2/../../../../arm-none-eabi/lib/thumb2\libstdc++.a(eh_globals.o)
                0x00016fa8                __cxa_get_globals_fast
 .text.__cxa_get_globals
                0x00016fb4        0xc c:/progra~2/codesourcery/source~1/bin/../lib/gcc/arm-none-eabi/4.5.2/../../../../arm-none-eabi/lib/thumb2\libstdc++.a(eh_globals.o)
                0x00016fb4                __cxa_get_globals
 .text          0x00016fc0        0x0 c:/progra~2/codesourcery/source~1/bin/../lib/gcc/arm-none-eabi/4.5.2/../../../../arm-none-eabi/lib/thumb2\libstdc++.a(eh_catch.o)
 .text.__cxa_get_exception_ptr
                0x00016fc0        0x4 c:/progra~2/codesourcery/source~1/bin/../lib/gcc/arm-none-eabi/4.5.2/../../../../arm-none-eabi/lib/thumb2\libstdc++.a(eh_catch.o)
                0x00016fc0                __cxa_get_exception_ptr
 .text.__cxa_begin_catch
                0x00016fc4       0x9c c:/progra~2/codesourcery/source~1/bin/../lib/gcc/arm-none-eabi/4.5.2/../../../../arm-none-eabi/lib/thumb2\libstdc++.a(eh_catch.o)
                0x00016fc4                __cxa_begin_catch
 .text.__cxa_end_catch
                0x00017060       0x98 c:/progra~2/codesourcery/source~1/bin/../lib/gcc/arm-none-eabi/4.5.2/../../../../arm-none-eabi/lib/thumb2\libstdc++.a(eh_catch.o)
                0x00017060                __cxa_end_catch
 .text._ZSt18uncaught_exceptionv
                0x000170f8       0x10 c:/progra~2/codesourcery/source~1/bin/../lib/gcc/arm-none-eabi/4.5.2/../../../../arm-none-eabi/lib/thumb2\libstdc++.a(eh_catch.o)
                0x000170f8                std::uncaught_exception()
 .text          0x00017108        0x0 c:/progra~2/codesourcery/source~1/bin/../lib/gcc/arm-none-eabi/4.5.2/../../../../arm-none-eabi/lib/thumb2\libstdc++.a(vterminate.o)
 .text._ZN9__gnu_cxx27__verbose_terminate_handlerEv
                0x00017108      0x148 c:/progra~2/codesourcery/source~1/bin/../lib/gcc/arm-none-eabi/4.5.2/../../../../arm-none-eabi/lib/thumb2\libstdc++.a(vterminate.o)
                0x00017108                __gnu_cxx::__verbose_terminate_handler()
 .text          0x00017250        0x0 c:/progra~2/codesourcery/source~1/bin/../lib/gcc/arm-none-eabi/4.5.2/../../../../arm-none-eabi/lib/thumb2\libstdc++.a(eh_exception.o)
 .text._ZNSt9exceptionD2Ev
                0x00017250        0xc c:/progra~2/codesourcery/source~1/bin/../lib/gcc/arm-none-eabi/4.5.2/../../../../arm-none-eabi/lib/thumb2\libstdc++.a(eh_exception.o)
                0x00017250                std::exception::~exception()
                0x00017250                std::exception::~exception()
 .text._ZNSt13bad_exceptionD2Ev
                0x0001725c        0xc c:/progra~2/codesourcery/source~1/bin/../lib/gcc/arm-none-eabi/4.5.2/../../../../arm-none-eabi/lib/thumb2\libstdc++.a(eh_exception.o)
                0x0001725c                std::bad_exception::~bad_exception()
                0x0001725c                std::bad_exception::~bad_exception()
 .text._ZN10__cxxabiv115__forced_unwindD2Ev
                0x00017268        0xc c:/progra~2/codesourcery/source~1/bin/../lib/gcc/arm-none-eabi/4.5.2/../../../../arm-none-eabi/lib/thumb2\libstdc++.a(eh_exception.o)
                0x00017268                __cxxabiv1::__forced_unwind::~__forced_unwind()
                0x00017268                __cxxabiv1::__forced_unwind::~__forced_unwind()
 .text._ZN10__cxxabiv119__foreign_exceptionD2Ev
                0x00017274        0xc c:/progra~2/codesourcery/source~1/bin/../lib/gcc/arm-none-eabi/4.5.2/../../../../arm-none-eabi/lib/thumb2\libstdc++.a(eh_exception.o)
                0x00017274                __cxxabiv1::__foreign_exception::~__foreign_exception()
                0x00017274                __cxxabiv1::__foreign_exception::~__foreign_exception()
 .text._ZNKSt9exception4whatEv
                0x00017280        0xc c:/progra~2/codesourcery/source~1/bin/../lib/gcc/arm-none-eabi/4.5.2/../../../../arm-none-eabi/lib/thumb2\libstdc++.a(eh_exception.o)
                0x00017280                std::exception::what() const
 .text._ZNKSt13bad_exception4whatEv
                0x0001728c        0xc c:/progra~2/codesourcery/source~1/bin/../lib/gcc/arm-none-eabi/4.5.2/../../../../arm-none-eabi/lib/thumb2\libstdc++.a(eh_exception.o)
                0x0001728c                std::bad_exception::what() const
 .text._ZN10__cxxabiv119__foreign_exceptionD0Ev
                0x00017298       0x14 c:/progra~2/codesourcery/source~1/bin/../lib/gcc/arm-none-eabi/4.5.2/../../../../arm-none-eabi/lib/thumb2\libstdc++.a(eh_exception.o)
                0x00017298                __cxxabiv1::__foreign_exception::~__foreign_exception()
 .text._ZN10__cxxabiv115__forced_unwindD0Ev
                0x000172ac       0x14 c:/progra~2/codesourcery/source~1/bin/../lib/gcc/arm-none-eabi/4.5.2/../../../../arm-none-eabi/lib/thumb2\libstdc++.a(eh_exception.o)
                0x000172ac                __cxxabiv1::__forced_unwind::~__forced_unwind()
 .text._ZNSt13bad_exceptionD0Ev
                0x000172c0       0x14 c:/progra~2/codesourcery/source~1/bin/../lib/gcc/arm-none-eabi/4.5.2/../../../../arm-none-eabi/lib/thumb2\libstdc++.a(eh_exception.o)
                0x000172c0                std::bad_exception::~bad_exception()
 .text._ZNSt9exceptionD0Ev
                0x000172d4       0x14 c:/progra~2/codesourcery/source~1/bin/../lib/gcc/arm-none-eabi/4.5.2/../../../../arm-none-eabi/lib/thumb2\libstdc++.a(eh_exception.o)
                0x000172d4                std::exception::~exception()
 .text          0x000172e8        0x0 c:/progra~2/codesourcery/source~1/bin/../lib/gcc/arm-none-eabi/4.5.2/../../../../arm-none-eabi/lib/thumb2\libstdc++.a(eh_type.o)
 .text.__cxa_current_exception_type
                0x000172e8       0x1c c:/progra~2/codesourcery/source~1/bin/../lib/gcc/arm-none-eabi/4.5.2/../../../../arm-none-eabi/lib/thumb2\libstdc++.a(eh_type.o)
                0x000172e8                __cxa_current_exception_type
 .text          0x00017304        0xc c:/progra~2/codesourcery/source~1/bin/../lib/gcc/arm-none-eabi/4.5.2/../../../../arm-none-eabi/lib/thumb2\libstdc++.a(eh_arm.o)
                0x00017304                __cxa_end_cleanup
 .text.__cxa_type_match
                0x00017310       0xd0 c:/progra~2/codesourcery/source~1/bin/../lib/gcc/arm-none-eabi/4.5.2/../../../../arm-none-eabi/lib/thumb2\libstdc++.a(eh_arm.o)
                0x00017310                __cxa_type_match
 .text.__cxa_begin_cleanup
                0x000173e0       0x70 c:/progra~2/codesourcery/source~1/bin/../lib/gcc/arm-none-eabi/4.5.2/../../../../arm-none-eabi/lib/thumb2\libstdc++.a(eh_arm.o)
                0x000173e0                __cxa_begin_cleanup
 .text.__gnu_end_cleanup
                0x00017450       0x7c c:/progra~2/codesourcery/source~1/bin/../lib/gcc/arm-none-eabi/4.5.2/../../../../arm-none-eabi/lib/thumb2\libstdc++.a(eh_arm.o)
                0x00017450                __gnu_end_cleanup
 .text          0x000174cc        0x0 c:/progra~2/codesourcery/source~1/bin/../lib/gcc/arm-none-eabi/4.5.2/../../../../arm-none-eabi/lib/thumb2\libstdc++.a(eh_alloc.o)
 .text.__cxa_allocate_exception
                0x000174cc       0x7c c:/progra~2/codesourcery/source~1/bin/../lib/gcc/arm-none-eabi/4.5.2/../../../../arm-none-eabi/lib/thumb2\libstdc++.a(eh_alloc.o)
                0x000174cc                __cxa_allocate_exception
 .text.__cxa_free_exception
                0x00017548       0x3c c:/progra~2/codesourcery/source~1/bin/../lib/gcc/arm-none-eabi/4.5.2/../../../../arm-none-eabi/lib/thumb2\libstdc++.a(eh_alloc.o)
                0x00017548                __cxa_free_exception
 .text.__cxa_allocate_dependent_exception
                0x00017584       0x78 c:/progra~2/codesourcery/source~1/bin/../lib/gcc/arm-none-eabi/4.5.2/../../../../arm-none-eabi/lib/thumb2\libstdc++.a(eh_alloc.o)
                0x00017584                __cxa_allocate_dependent_exception
 .text.__cxa_free_dependent_exception
                0x000175fc       0x4c c:/progra~2/codesourcery/source~1/bin/../lib/gcc/arm-none-eabi/4.5.2/../../../../arm-none-eabi/lib/thumb2\libstdc++.a(eh_alloc.o)
                0x000175fc                __cxa_free_dependent_exception
 .text._GLOBAL__I___cxa_allocate_exception
                0x00017648        0x4 c:/progra~2/codesourcery/source~1/bin/../lib/gcc/arm-none-eabi/4.5.2/../../../../arm-none-eabi/lib/thumb2\libstdc++.a(eh_alloc.o)
 .text          0x0001764c     0x912c c:/progra~2/codesourcery/source~1/bin/../lib/gcc/arm-none-eabi/4.5.2/../../../../arm-none-eabi/lib/thumb2\libstdc++.a(cp-demangle.o)
                0x00020670                __cxa_demangle
                0x0002074c                __gcclibcxx_demangle_callback
 .text          0x00020778      0x21c c:/progra~2/codesourcery/source~1/bin/../lib/gcc/arm-none-eabi/4.5.2/thumb2\libgcc.a(_arm_addsubsf3.o)
                0x00020778                __aeabi_frsub
                0x00020780                __subsf3
                0x00020780                __aeabi_fsub
                0x00020784                __aeabi_fadd
                0x00020784                __addsf3
                0x000208e4                __aeabi_ui2f
                0x000208e4                __floatunsisf
                0x000208ec                __aeabi_i2f
                0x000208ec                __floatsisf
                0x00020908                __aeabi_ul2f
                0x00020908                __floatundisf
                0x00020918                __aeabi_l2f
                0x00020918                __floatdisf
 .text          0x00020994      0x2a0 c:/progra~2/codesourcery/source~1/bin/../lib/gcc/arm-none-eabi/4.5.2/thumb2\libgcc.a(_arm_muldivsf3.o)
                0x00020994                __mulsf3
                0x00020994                __aeabi_fmul
                0x00020afc                __aeabi_fdiv
                0x00020afc                __divsf3
 .text          0x00020c34       0xec c:/progra~2/codesourcery/source~1/bin/../lib/gcc/arm-none-eabi/4.5.2/thumb2\libgcc.a(_arm_cmpsf2.o)
                0x00020c34                __gesf2
                0x00020c34                __gtsf2
                0x00020c3c                __lesf2
                0x00020c3c                __ltsf2
                0x00020c44                __nesf2
                0x00020c44                __eqsf2
                0x00020c44                __cmpsf2
                0x00020ca4                __aeabi_cfrcmple
                0x00020cac                __aeabi_cfcmpeq
                0x00020cac                __aeabi_cfcmple
                0x00020cbc                __aeabi_fcmpeq
                0x00020cd0                __aeabi_fcmplt
                0x00020ce4                __aeabi_fcmple
                0x00020cf8                __aeabi_fcmpge
                0x00020d0c                __aeabi_fcmpgt
 .text          0x00020d20       0x4c c:/progra~2/codesourcery/source~1/bin/../lib/gcc/arm-none-eabi/4.5.2/thumb2\libgcc.a(_arm_fixsfsi.o)
                0x00020d20                __aeabi_f2iz
                0x00020d20                __fixsfsi
 .text          0x00020d6c       0x2c c:/progra~2/codesourcery/source~1/bin/../lib/gcc/arm-none-eabi/4.5.2/thumb2\libgcc.a(_aeabi_uldivmod.o)
                0x00020d6c                __aeabi_uldivmod
 .text          0x00020d98       0x60 c:/progra~2/codesourcery/source~1/bin/../lib/gcc/arm-none-eabi/4.5.2/thumb2\libgcc.a(bpabi.o)
                0x00020d98                __gnu_ldivmod_helper
                0x00020dc8                __gnu_uldivmod_helper
 .text          0x00020df8      0xc38 c:/progra~2/codesourcery/source~1/bin/../lib/gcc/arm-none-eabi/4.5.2/thumb2\libgcc.a(unwind-arm.o)
                0x000210d4                _Unwind_VRS_Get
                0x00021120                _Unwind_VRS_Set
                0x000214bc                __aeabi_unwind_cpp_pr2
                0x000214c0                __aeabi_unwind_cpp_pr1
                0x000214c4                __aeabi_unwind_cpp_pr0
                0x000214c8                _Unwind_VRS_Pop
                0x000218b0                _Unwind_GetCFA
                0x000218b4                __gnu_Unwind_RaiseException
                0x00021924                __gnu_Unwind_ForcedUnwind
                0x00021938                __gnu_Unwind_Resume
                0x00021974                __gnu_Unwind_Resume_or_Rethrow
                0x0002198c                _Unwind_Complete
                0x00021990                _Unwind_DeleteException
                0x000219a0                __gnu_Unwind_Backtrace
 .text          0x00021a30      0x1ac c:/progra~2/codesourcery/source~1/bin/../lib/gcc/arm-none-eabi/4.5.2/thumb2\libgcc.a(libunwind.o)
                0x00021a30                __restore_core_regs
                0x00021a30                restore_core_regs
                0x00021a48                __gnu_Unwind_Restore_VFP
                0x00021a50                __gnu_Unwind_Save_VFP
                0x00021a58                __gnu_Unwind_Restore_VFP_D
                0x00021a60                __gnu_Unwind_Save_VFP_D
                0x00021a68                __gnu_Unwind_Restore_VFP_D_16_to_31
                0x00021a70                __gnu_Unwind_Save_VFP_D_16_to_31
                0x00021a78                __gnu_Unwind_Restore_WMMXD
                0x00021abc                __gnu_Unwind_Save_WMMXD
                0x00021b00                __gnu_Unwind_Restore_WMMXC
                0x00021b14                __gnu_Unwind_Save_WMMXC
                0x00021b28                ___Unwind_RaiseException
                0x00021b28                _Unwind_RaiseException
                0x00021b4c                _Unwind_Resume
                0x00021b4c                ___Unwind_Resume
                0x00021b70                _Unwind_Resume_or_Rethrow
                0x00021b70                ___Unwind_Resume_or_Rethrow
                0x00021b94                _Unwind_ForcedUnwind
                0x00021b94                ___Unwind_ForcedUnwind
                0x00021bb8                ___Unwind_Backtrace
                0x00021bb8                _Unwind_Backtrace
 .text          0x00021bdc      0x3c0 c:/progra~2/codesourcery/source~1/bin/../lib/gcc/arm-none-eabi/4.5.2/thumb2\libgcc.a(pr-support.o)
                0x00021c30                __gnu_unwind_execute
                0x00021f40                __gnu_unwind_frame
                0x00021f6c                _Unwind_GetRegionStart
                0x00021f78                _Unwind_GetLanguageSpecificData
                0x00021f8c                _Unwind_GetDataRelBase
                0x00021f94                _Unwind_GetTextRelBase
 .text          0x00021f9c        0x4 c:/progra~2/codesourcery/source~1/bin/../lib/gcc/arm-none-eabi/4.5.2/thumb2\libgcc.a(_dvmd_tls.o)
                0x00021f9c                __aeabi_idiv0
                0x00021f9c                __aeabi_ldiv0
 .text          0x00021fa0      0x360 c:/progra~2/codesourcery/source~1/bin/../lib/gcc/arm-none-eabi/4.5.2/thumb2\libgcc.a(_divdi3.o)
                0x00021fa0                __divdi3
 .text          0x00022300      0x308 c:/progra~2/codesourcery/source~1/bin/../lib/gcc/arm-none-eabi/4.5.2/thumb2\libgcc.a(_udivdi3.o)
                0x00022300                __udivdi3
 .text          0x00022608      0x278 c:/progra~2/codesourcery/source~1/bin/../lib/gcc/arm-none-eabi/4.5.2/thumb2\libgcc.a(_udivsi3.o)
                0x00022608                __aeabi_uidiv
                0x00022608                __udivsi3
                0x00022864                __aeabi_uidivmod
 .text          0x00022880       0x10 c:/progra~2/codesourcery/source~1/bin/../lib/gcc/arm-none-eabi/4.5.2/../../../../arm-none-eabi/lib/thumb2\libc.a(lib_a-abort.o)
                0x00022880                abort
 .text          0x00022890       0xac c:/progra~2/codesourcery/source~1/bin/../lib/gcc/arm-none-eabi/4.5.2/../../../../arm-none-eabi/lib/thumb2\libc.a(lib_a-fputc.o)
                0x00022890                _fputc_r
                0x000228e4                fputc
 .text          0x0002293c       0x90 c:/progra~2/codesourcery/source~1/bin/../lib/gcc/arm-none-eabi/4.5.2/../../../../arm-none-eabi/lib/thumb2\libc.a(lib_a-fputs.o)
                0x0002293c                _fputs_r
                0x000229bc                fputs
 .text          0x000229cc      0x338 c:/progra~2/codesourcery/source~1/bin/../lib/gcc/arm-none-eabi/4.5.2/../../../../arm-none-eabi/lib/thumb2\libc.a(lib_a-fvwrite.o)
                0x000229cc                __sfvwrite_r
 .text          0x00022d04       0xc0 c:/progra~2/codesourcery/source~1/bin/../lib/gcc/arm-none-eabi/4.5.2/../../../../arm-none-eabi/lib/thumb2\libc.a(lib_a-fwrite.o)
                0x00022d04                _fwrite_r
                0x00022da0                fwrite
 .text          0x00022dc4        0x0 c:/progra~2/codesourcery/source~1/bin/../lib/gcc/arm-none-eabi/4.5.2/../../../../arm-none-eabi/lib/thumb2\libc.a(lib_a-impure.o)
 .text          0x00022dc4       0x20 c:/progra~2/codesourcery/source~1/bin/../lib/gcc/arm-none-eabi/4.5.2/../../../../arm-none-eabi/lib/thumb2\libc.a(lib_a-malloc.o)
                0x00022dc4                malloc
                0x00022dd4                free
 .text          0x00022de4      0x57c c:/progra~2/codesourcery/source~1/bin/../lib/gcc/arm-none-eabi/4.5.2/../../../../arm-none-eabi/lib/thumb2\libc.a(lib_a-mallocr.o)
                0x00022de4                _malloc_r
 .text          0x00023360       0x8c c:/progra~2/codesourcery/source~1/bin/../lib/gcc/arm-none-eabi/4.5.2/../../../../arm-none-eabi/lib/thumb2\libc.a(lib_a-memchr.o)
                0x00023360                memchr
 .text          0x000233ec       0x64 c:/progra~2/codesourcery/source~1/bin/../lib/gcc/arm-none-eabi/4.5.2/../../../../arm-none-eabi/lib/thumb2\libc.a(lib_a-memcmp.o)
                0x000233ec                memcmp
 .text          0x00023450      0x150 c:/progra~2/codesourcery/source~1/bin/../lib/gcc/arm-none-eabi/4.5.2/../../../../arm-none-eabi/lib/thumb2\libc.a(lib_a-memcpy.o)
                0x00023450                memcpy
 .text          0x000235a0       0xb4 c:/progra~2/codesourcery/source~1/bin/../lib/gcc/arm-none-eabi/4.5.2/../../../../arm-none-eabi/lib/thumb2\libc.a(lib_a-memmove.o)
                0x000235a0                memmove
 .text          0x00023654       0xb4 c:/progra~2/codesourcery/source~1/bin/../lib/gcc/arm-none-eabi/4.5.2/../../../../arm-none-eabi/lib/thumb2\libc.a(lib_a-memset.o)
                0x00023654                memset
 .text          0x00023708        0x8 c:/progra~2/codesourcery/source~1/bin/../lib/gcc/arm-none-eabi/4.5.2/../../../../arm-none-eabi/lib/thumb2\libc.a(lib_a-mlock.o)
                0x00023708                __malloc_lock
                0x0002370c                __malloc_unlock
 .text          0x00023710      0x138 c:/progra~2/codesourcery/source~1/bin/../lib/gcc/arm-none-eabi/4.5.2/../../../../arm-none-eabi/lib/thumb2\libc.a(lib_a-putc.o)
                0x00023710                _putc_r
                0x000237a0                putc
 .text          0x00023848      0x100 c:/progra~2/codesourcery/source~1/bin/../lib/gcc/arm-none-eabi/4.5.2/../../../../arm-none-eabi/lib/thumb2\libc.a(lib_a-rand.o)
                0x00023848                srand
                0x000238a4                rand
 .text          0x00023948       0x14 c:/progra~2/codesourcery/source~1/bin/../lib/gcc/arm-none-eabi/4.5.2/../../../../arm-none-eabi/lib/thumb2\libc.a(lib_a-realloc.o)
                0x00023948                realloc
 .text          0x0002395c      0x41c c:/progra~2/codesourcery/source~1/bin/../lib/gcc/arm-none-eabi/4.5.2/../../../../arm-none-eabi/lib/thumb2\libc.a(lib_a-reallocr.o)
                0x0002395c                _realloc_r
 .text          0x00023d78      0x154 c:/progra~2/codesourcery/source~1/bin/../lib/gcc/arm-none-eabi/4.5.2/../../../../arm-none-eabi/lib/thumb2\libc.a(lib_a-signal.o)
                0x00023d78                _init_signal_r
                0x00023da8                _signal_r
                0x00023de4                _raise_r
                0x00023e3c                __sigtramp_r
                0x00023e90                raise
                0x00023ea0                signal
                0x00023eb0                _init_signal
                0x00023ebc                __sigtramp
 .text          0x00023ecc       0x30 c:/progra~2/codesourcery/source~1/bin/../lib/gcc/arm-none-eabi/4.5.2/../../../../arm-none-eabi/lib/thumb2\libc.a(lib_a-signalr.o)
                0x00023ecc                _kill_r
                0x00023ef8                _getpid_r
 .text          0x00023efc       0x94 c:/progra~2/codesourcery/source~1/bin/../lib/gcc/arm-none-eabi/4.5.2/../../../../arm-none-eabi/lib/thumb2\libc.a(lib_a-sprintf.o)
                0x00023efc                _sprintf_r
                0x00023f40                sprintf
 .text          0x00023f90      0x10c c:/progra~2/codesourcery/source~1/bin/../lib/gcc/arm-none-eabi/4.5.2/../../../../arm-none-eabi/lib/thumb2\libc.a(lib_a-strchr.o)
                0x00023f90                strchr
 .text          0x0002409c      0x1dc c:/progra~2/codesourcery/source~1/bin/../lib/gcc/arm-none-eabi/4.5.2/../../../../arm-none-eabi/lib/thumb2\libc.a(lib_a-strcmp.o)
                0x0002409c                strcmp
 .text          0x00024278       0xbc c:/progra~2/codesourcery/source~1/bin/../lib/gcc/arm-none-eabi/4.5.2/../../../../arm-none-eabi/lib/thumb2\libc.a(lib_a-strcpy.o)
                0x00024278                strcpy
 .text          0x00024334       0x60 c:/progra~2/codesourcery/source~1/bin/../lib/gcc/arm-none-eabi/4.5.2/../../../../arm-none-eabi/lib/thumb2\libc.a(lib_a-strlen.o)
                0x00024334                strlen
 .text          0x00024394       0xac c:/progra~2/codesourcery/source~1/bin/../lib/gcc/arm-none-eabi/4.5.2/../../../../arm-none-eabi/lib/thumb2\libc.a(lib_a-strncmp.o)
                0x00024394                strncmp
 .text          0x00024440       0x78 c:/progra~2/codesourcery/source~1/bin/../lib/gcc/arm-none-eabi/4.5.2/../../../../arm-none-eabi/lib/thumb2\libc.a(lib_a-strncpy.o)
                0x00024440                strncpy
 .text          0x000244b8       0x28 c:/progra~2/codesourcery/source~1/bin/../lib/gcc/arm-none-eabi/4.5.2/../../../../arm-none-eabi/lib/thumb2\libc.a(lib_a-strrchr.o)
                0x000244b8                strrchr
 .text          0x000244e0     0x1640 c:/progra~2/codesourcery/source~1/bin/../lib/gcc/arm-none-eabi/4.5.2/../../../../arm-none-eabi/lib/thumb2\libc.a(lib_a-svfprintf.o)
                0x000244e0                _svfprintf_r
 .text          0x00025b20       0x1c c:/progra~2/codesourcery/source~1/bin/../lib/gcc/arm-none-eabi/4.5.2/../../../../arm-none-eabi/lib/thumb2\libc.a(lib_a-syswrite.o)
                0x00025b20                write
 .text          0x00025b3c       0xfc c:/progra~2/codesourcery/source~1/bin/../lib/gcc/arm-none-eabi/4.5.2/../../../../arm-none-eabi/lib/thumb2\libc.a(lib_a-wbuf.o)
                0x00025b3c                __swbuf_r
                0x00025c28                __swbuf
 .text          0x00025c38      0x104 c:/progra~2/codesourcery/source~1/bin/../lib/gcc/arm-none-eabi/4.5.2/../../../../arm-none-eabi/lib/thumb2\libc.a(lib_a-wsetup.o)
                0x00025c38                __swsetup_r
 *fill*         0x00025d3c        0x4 00
 .text          0x00025d40      0xfe8 c:/progra~2/codesourcery/source~1/bin/../lib/gcc/arm-none-eabi/4.5.2/../../../../arm-none-eabi/lib/thumb2\libc.a(lib_a-dtoa.o)
                0x00025e6c                _dtoa_r
 .text          0x00026d28      0x1ec c:/progra~2/codesourcery/source~1/bin/../lib/gcc/arm-none-eabi/4.5.2/../../../../arm-none-eabi/lib/thumb2\libc.a(lib_a-fflush.o)
                0x00026d28                _fflush_r
                0x00026eec                fflush
 .text          0x00026f14      0x220 c:/progra~2/codesourcery/source~1/bin/../lib/gcc/arm-none-eabi/4.5.2/../../../../arm-none-eabi/lib/thumb2\libc.a(lib_a-findfp.o)
                0x00026f1c                _cleanup_r
                0x00026f28                __sfmoreglue
                0x00026f58                _cleanup
                0x00026f64                __sinit
                0x0002706c                __sfp
                0x000270f4                __sfp_lock_acquire
                0x000270f8                __sfp_lock_release
                0x000270fc                __sinit_lock_acquire
                0x00027100                __sinit_lock_release
                0x00027104                __fp_lock_all
                0x0002711c                __fp_unlock_all
 .text          0x00027134      0x240 c:/progra~2/codesourcery/source~1/bin/../lib/gcc/arm-none-eabi/4.5.2/../../../../arm-none-eabi/lib/thumb2\libc.a(lib_a-freer.o)
                0x00027134                _malloc_trim_r
                0x000271dc                _free_r
 .text          0x00027374       0xac c:/progra~2/codesourcery/source~1/bin/../lib/gcc/arm-none-eabi/4.5.2/../../../../arm-none-eabi/lib/thumb2\libc.a(lib_a-fwalk.o)
                0x00027374                _fwalk
                0x000273c8                _fwalk_reent
 .text          0x00027420       0xa0 c:/progra~2/codesourcery/source~1/bin/../lib/gcc/arm-none-eabi/4.5.2/../../../../arm-none-eabi/lib/thumb2\libc.a(lib_a-locale.o)
                0x00027420                _setlocale_r
                0x0002747c                __locale_charset
                0x00027488                __locale_mb_cur_max
                0x00027494                __locale_msgcharset
                0x0002749c                __locale_cjk_lang
                0x000274a0                _localeconv_r
                0x000274a8                setlocale
                0x000274b8                localeconv
 .text          0x000274c0       0xec c:/progra~2/codesourcery/source~1/bin/../lib/gcc/arm-none-eabi/4.5.2/../../../../arm-none-eabi/lib/thumb2\libc.a(lib_a-makebuf.o)
                0x000274c0                __smakebuf_r
 .text          0x000275ac      0x91c c:/progra~2/codesourcery/source~1/bin/../lib/gcc/arm-none-eabi/4.5.2/../../../../arm-none-eabi/lib/thumb2\libc.a(lib_a-mprec.o)
                0x000275ac                _Balloc
                0x00027614                _Bfree
                0x0002764c                __multadd
                0x000276d0                __s2b
                0x00027768                __hi0bits
                0x000277a8                __lo0bits
                0x0002780c                __i2b
                0x00027820                __multiply
                0x00027948                __pow5mult
                0x000279ec                __lshift
                0x00027a98                __mcmp
                0x00027ad4                __mdiff
                0x00027bcc                __ulp
                0x00027c14                __b2d
                0x00027cc0                __d2b
                0x00027d88                __ratio
                0x00027df0                _mprec_log10
                0x00027e24                __copybits
                0x00027e6c                __any_on
 .text          0x00027ec8      0x118 c:/progra~2/codesourcery/source~1/bin/../lib/gcc/arm-none-eabi/4.5.2/../../../../arm-none-eabi/lib/thumb2\libc.a(lib_a-reent.o)
                0x00027ec8                cleanup_glue
                0x00027ee4                _reclaim_reent
                0x00027fa4                _wrapup_reent
 .text          0x00027fe0       0x90 c:/progra~2/codesourcery/source~1/bin/../lib/gcc/arm-none-eabi/4.5.2/../../../../arm-none-eabi/lib/thumb2\libc.a(lib_a-s_fpclassify.o)
                0x00027fe0                __fpclassifyd
 .text          0x00028070       0x94 c:/progra~2/codesourcery/source~1/bin/../lib/gcc/arm-none-eabi/4.5.2/../../../../arm-none-eabi/lib/thumb2\libc.a(lib_a-stdio.o)
                0x00028070                __sread
                0x00028094                __seofread
                0x00028098                __swrite
                0x000280d4                __sseek
                0x000280fc                __sclose
 .text          0x00028104      0xbe8 c:/progra~2/codesourcery/source~1/bin/../lib/gcc/arm-none-eabi/4.5.2/../../../../arm-none-eabi/lib/thumb2\libc.a(lib_a-svfiprintf.o)
                0x00028104                __ssprint_r
                0x0002820c                _svfiprintf_r
 .text          0x00028cec       0x5c c:/progra~2/codesourcery/source~1/bin/../lib/gcc/arm-none-eabi/4.5.2/../../../../arm-none-eabi/lib/thumb2\libc.a(lib_a-callocr.o)
                0x00028cec                _calloc_r
 .text          0x00028d48       0xc4 c:/progra~2/codesourcery/source~1/bin/../lib/gcc/arm-none-eabi/4.5.2/../../../../arm-none-eabi/lib/thumb2\libc.a(lib_a-fclose.o)
                0x00028d48                _fclose_r
                0x00028dfc                fclose
 .text          0x00028e0c       0x2c c:/progra~2/codesourcery/source~1/bin/../lib/gcc/arm-none-eabi/4.5.2/../../../../arm-none-eabi/lib/thumb2\libc.a(lib_a-fstatr.o)
                0x00028e0c                _fstat_r
 .text          0x00028e38       0x28 c:/progra~2/codesourcery/source~1/bin/../lib/gcc/arm-none-eabi/4.5.2/../../../../arm-none-eabi/lib/thumb2\libc.a(lib_a-isattyr.o)
                0x00028e38                _isatty_r
 .text          0x00028e60       0x2c c:/progra~2/codesourcery/source~1/bin/../lib/gcc/arm-none-eabi/4.5.2/../../../../arm-none-eabi/lib/thumb2\libc.a(lib_a-lseekr.o)
                0x00028e60                _lseek_r
 .text          0x00028e8c      0x370 c:/progra~2/codesourcery/source~1/bin/../lib/gcc/arm-none-eabi/4.5.2/thumb2\libgcc.a(_arm_addsubdf3.o)
                0x00028e8c                __aeabi_drsub
                0x00028e94                __aeabi_dsub
                0x00028e94                __subdf3
                0x00028e98                __aeabi_dadd
                0x00028e98                __adddf3
                0x00029110                __floatunsidf
                0x00029110                __aeabi_ui2d
                0x00029130                __floatsidf
                0x00029130                __aeabi_i2d
                0x00029154                __aeabi_f2d
                0x00029154                __extendsfdf2
                0x00029190                __floatundidf
                0x00029190                __aeabi_ul2d
                0x000291a0                __floatdidf
                0x000291a0                __aeabi_l2d
 .text          0x000291fc      0x424 c:/progra~2/codesourcery/source~1/bin/../lib/gcc/arm-none-eabi/4.5.2/thumb2\libgcc.a(_arm_muldivdf3.o)
                0x000291fc                __aeabi_dmul
                0x000291fc                __muldf3
                0x00029450                __divdf3
                0x00029450                __aeabi_ddiv
 .text          0x00029620      0x110 c:/progra~2/codesourcery/source~1/bin/../lib/gcc/arm-none-eabi/4.5.2/thumb2\libgcc.a(_arm_cmpdf2.o)
                0x00029620                __gtdf2
                0x00029620                __gedf2
                0x00029628                __ltdf2
                0x00029628                __ledf2
                0x00029630                __nedf2
                0x00029630                __eqdf2
                0x00029630                __cmpdf2
                0x000296ac                __aeabi_cdrcmple
                0x000296bc                __aeabi_cdcmpeq
                0x000296bc                __aeabi_cdcmple
                0x000296cc                __aeabi_dcmpeq
                0x000296e0                __aeabi_dcmplt
                0x000296f4                __aeabi_dcmple
                0x00029708                __aeabi_dcmpge
                0x0002971c                __aeabi_dcmpgt
 .text          0x00029730       0x50 c:/progra~2/codesourcery/source~1/bin/../lib/gcc/arm-none-eabi/4.5.2/thumb2\libgcc.a(_arm_fixdfsi.o)
                0x00029730                __aeabi_d2iz
                0x00029730                __fixdfsi
 *(.plt)
 *(.gnu.warning)
 *(.glue_7t)
 .glue_7t       0x00000000        0x0 linker stubs
 *(.glue_7)
 .glue_7        0x00000000        0x0 linker stubs
 *(.vfp11_veneer)
 .vfp11_veneer  0x00000000        0x0 linker stubs
 *(.rodata .rodata.* .gnu.linkonce.r.*)
 .rodata        0x00029780       0x10 build\lib_sd\fat.o
 .rodata        0x00029790        0x8 build\lib\source\debug_frmwrk.o
 .rodata        0x00029798       0x20 build\lib\source\lpc17xx_adc.o
 .rodata        0x000297b8       0x20 build\lib\source\lpc17xx_dac.o
 .rodata        0x000297d8       0xb4 build\lib\source\lpc17xx_gpdma.o
                0x000297d8                GPDMA_LUTPerAddr
                0x00029838                GPDMA_LUTPerBurst
                0x00029850                GPDMA_LUTPerWid
 .rodata        0x0002988c       0x20 build\lib\source\lpc17xx_i2c.o
 .rodata        0x000298ac       0x20 build\lib\source\lpc17xx_i2s.o
 .rodata        0x000298cc       0x20 build\lib\source\lpc17xx_pwm.o
 .rodata        0x000298ec       0x20 build\lib\source\lpc17xx_qei.o
 .rodata        0x0002990c       0x20 build\lib\source\lpc17xx_rit.o
 .rodata        0x0002992c       0x20 build\lib\source\lpc17xx_spi.o
 .rodata        0x0002994c       0x24 build\lib\source\lpc17xx_systick.o
 .rodata        0x00029970       0x24 build\lib\source\lpc17xx_timer.o
 .rodata        0x00029994       0x20 build\lib\source\lpc17xx_uart.o
 .rodata        0x000299b4       0x20 build\lib\source\lpc17xx_wdt.o
 .rodata        0x000299d4       0x1c build\system\system_LPC17xx.o
                0x000299dc                devoptab_tty0
 .rodata        0x000299f0       0xc0 build\USBCDC\usbdesc.o
                0x000299f0                USB_DeviceDescriptor
                0x00029a04                USB_ConfigDescriptor
                0x00029a48                USB_StringDescriptor
 .rodata        0x00029ab0       0x40 build\USBCDC\usbuser.o
                0x00029ab0                USB_P_EP
 .rodata        0x00029af0        0x8 build\Command.o
 .rodata        0x00029af8       0x1c build\EepromMap.o
 .rodata        0x00029b14       0x34 build\Host.o
 .rodata._ZTV6Screen
                0x00029b48       0x18 build\InterfaceBoard.o
                0x00029b48                vtable for Screen
 .rodata._ZTS6Screen
                0x00029b60        0x8 build\InterfaceBoard.o
                0x00029b60                typeinfo name for Screen
 .rodata._ZTI6Screen
                0x00029b68        0x8 build\InterfaceBoard.o
                0x00029b68                typeinfo for Screen
 .rodata        0x00029b70        0x8 build\InterfaceBoard.o
 .rodata._ZTV13LiquidCrystal
                0x00029b78       0x10 build\LiquidCrystal.o
                0x00029b78                vtable for LiquidCrystal
 .rodata._ZTS13LiquidCrystal
                0x00029b88       0x10 build\LiquidCrystal.o
                0x00029b88                typeinfo name for LiquidCrystal
 .rodata._ZTI13LiquidCrystal
                0x00029b98        0x8 build\LiquidCrystal.o
                0x00029b98                typeinfo for LiquidCrystal
 .rodata        0x00029ba0       0x10 build\LiquidCrystal.o
 .rodata        0x00029bb0       0x10 build\Main.o
 .rodata        0x00029bc0      0x310 build\Menu.o
                0x00029bc8                vtable for MainMenu
                0x00029bf0                vtable for MonitorMode
                0x00029c08                vtable for CancelBuildMenu
                0x00029c30                vtable for SDMenu
                0x00029c58                vtable for SnakeMode
                0x00029c70                vtable for JogMode
                0x00029c88                vtable for SplashScreen
                0x00029ca0                vtable for Menu
                0x00029cc8                typeinfo for MainMenu
                0x00029cd4                typeinfo name for MainMenu
                0x00029ce0                typeinfo for MonitorMode
                0x00029cec                typeinfo name for MonitorMode
                0x00029cfc                typeinfo for CancelBuildMenu
                0x00029d08                typeinfo name for CancelBuildMenu
                0x00029d1c                typeinfo for SDMenu
                0x00029d28                typeinfo name for SDMenu
                0x00029d30                typeinfo for SnakeMode
                0x00029d3c                typeinfo name for SnakeMode
                0x00029d48                typeinfo for JogMode
                0x00029d54                typeinfo name for JogMode
                0x00029d60                typeinfo for SplashScreen
                0x00029d6c                typeinfo name for SplashScreen
                0x00029d7c                typeinfo for Menu
                0x00029d88                typeinfo name for Menu
 .rodata        0x00029ed0        0x4 build\SDCard.o
 .rodata        0x00029ed4        0x8 build\StepperInterface.o
 *fill*         0x00029edc        0x4 00
 .rodata._ZTVN10__cxxabiv120__si_class_type_infoE
                0x00029ee0       0x30 c:/progra~2/codesourcery/source~1/bin/../lib/gcc/arm-none-eabi/4.5.2/../../../../arm-none-eabi/lib/thumb2\libstdc++.a(si_class_type_info.o)
                0x00029ee0                vtable for __cxxabiv1::__si_class_type_info
 .rodata._ZTIN10__cxxabiv120__si_class_type_infoE
                0x00029f10        0xc c:/progra~2/codesourcery/source~1/bin/../lib/gcc/arm-none-eabi/4.5.2/../../../../arm-none-eabi/lib/thumb2\libstdc++.a(si_class_type_info.o)
                0x00029f10                typeinfo for __cxxabiv1::__si_class_type_info
 .rodata._ZTSN10__cxxabiv120__si_class_type_infoE
                0x00029f1c       0x28 c:/progra~2/codesourcery/source~1/bin/../lib/gcc/arm-none-eabi/4.5.2/../../../../arm-none-eabi/lib/thumb2\libstdc++.a(si_class_type_info.o)
                0x00029f1c                typeinfo name for __cxxabiv1::__si_class_type_info
 .rodata.str1.4
                0x00029f44       0x1c c:/progra~2/codesourcery/source~1/bin/../lib/gcc/arm-none-eabi/4.5.2/../../../../arm-none-eabi/lib/thumb2\libstdc++.a(pure.o)
 .rodata._ZTVN10__cxxabiv117__class_type_infoE
                0x00029f60       0x30 c:/progra~2/codesourcery/source~1/bin/../lib/gcc/arm-none-eabi/4.5.2/../../../../arm-none-eabi/lib/thumb2\libstdc++.a(class_type_info.o)
                0x00029f60                vtable for __cxxabiv1::__class_type_info
 .rodata._ZTIN10__cxxabiv117__class_type_infoE
                0x00029f90        0xc c:/progra~2/codesourcery/source~1/bin/../lib/gcc/arm-none-eabi/4.5.2/../../../../arm-none-eabi/lib/thumb2\libstdc++.a(class_type_info.o)
                0x00029f90                typeinfo for __cxxabiv1::__class_type_info
 .rodata._ZTSN10__cxxabiv117__class_type_infoE
                0x00029f9c       0x24 c:/progra~2/codesourcery/source~1/bin/../lib/gcc/arm-none-eabi/4.5.2/../../../../arm-none-eabi/lib/thumb2\libstdc++.a(class_type_info.o)
                0x00029f9c                typeinfo name for __cxxabiv1::__class_type_info
 .rodata._ZTISt9type_info
                0x00029fc0        0x8 c:/progra~2/codesourcery/source~1/bin/../lib/gcc/arm-none-eabi/4.5.2/../../../../arm-none-eabi/lib/thumb2\libstdc++.a(tinfo.o)
                0x00029fc0                typeinfo for std::type_info
 .rodata._ZTSSt9type_info
                0x00029fc8       0x10 c:/progra~2/codesourcery/source~1/bin/../lib/gcc/arm-none-eabi/4.5.2/../../../../arm-none-eabi/lib/thumb2\libstdc++.a(tinfo.o)
                0x00029fc8                typeinfo name for std::type_info
 .rodata._ZTVSt9type_info
                0x00029fd8       0x20 c:/progra~2/codesourcery/source~1/bin/../lib/gcc/arm-none-eabi/4.5.2/../../../../arm-none-eabi/lib/thumb2\libstdc++.a(tinfo.o)
                0x00029fd8                vtable for std::type_info
 .rodata.str1.4
                0x00029ff8       0x94 c:/progra~2/codesourcery/source~1/bin/../lib/gcc/arm-none-eabi/4.5.2/../../../../arm-none-eabi/lib/thumb2\libstdc++.a(vterminate.o)
 *fill*         0x0002a08c        0x4 00
 .rodata._ZTVN10__cxxabiv115__forced_unwindE
                0x0002a090       0x18 c:/progra~2/codesourcery/source~1/bin/../lib/gcc/arm-none-eabi/4.5.2/../../../../arm-none-eabi/lib/thumb2\libstdc++.a(eh_exception.o)
                0x0002a090                vtable for __cxxabiv1::__forced_unwind
 .rodata._ZTISt9exception
                0x0002a0a8        0x8 c:/progra~2/codesourcery/source~1/bin/../lib/gcc/arm-none-eabi/4.5.2/../../../../arm-none-eabi/lib/thumb2\libstdc++.a(eh_exception.o)
                0x0002a0a8                typeinfo for std::exception
 .rodata._ZTVSt9exception
                0x0002a0b0       0x18 c:/progra~2/codesourcery/source~1/bin/../lib/gcc/arm-none-eabi/4.5.2/../../../../arm-none-eabi/lib/thumb2\libstdc++.a(eh_exception.o)
                0x0002a0b0                vtable for std::exception
 .rodata._ZTIN10__cxxabiv115__forced_unwindE
                0x0002a0c8        0x8 c:/progra~2/codesourcery/source~1/bin/../lib/gcc/arm-none-eabi/4.5.2/../../../../arm-none-eabi/lib/thumb2\libstdc++.a(eh_exception.o)
                0x0002a0c8                typeinfo for __cxxabiv1::__forced_unwind
 .rodata._ZTSSt13bad_exception
                0x0002a0d0       0x14 c:/progra~2/codesourcery/source~1/bin/../lib/gcc/arm-none-eabi/4.5.2/../../../../arm-none-eabi/lib/thumb2\libstdc++.a(eh_exception.o)
                0x0002a0d0                typeinfo name for std::bad_exception
 .rodata._ZTSN10__cxxabiv119__foreign_exceptionE
                0x0002a0e4       0x24 c:/progra~2/codesourcery/source~1/bin/../lib/gcc/arm-none-eabi/4.5.2/../../../../arm-none-eabi/lib/thumb2\libstdc++.a(eh_exception.o)
                0x0002a0e4                typeinfo name for __cxxabiv1::__foreign_exception
 .rodata.str1.4
                0x0002a108       0x23 c:/progra~2/codesourcery/source~1/bin/../lib/gcc/arm-none-eabi/4.5.2/../../../../arm-none-eabi/lib/thumb2\libstdc++.a(eh_exception.o)
                                 0x24 (size before relaxing)
 *fill*         0x0002a12b        0x1 00
 .rodata._ZTIN10__cxxabiv119__foreign_exceptionE
                0x0002a12c        0x8 c:/progra~2/codesourcery/source~1/bin/../lib/gcc/arm-none-eabi/4.5.2/../../../../arm-none-eabi/lib/thumb2\libstdc++.a(eh_exception.o)
                0x0002a12c                typeinfo for __cxxabiv1::__foreign_exception
 *fill*         0x0002a134        0x4 00
 .rodata._ZTVSt13bad_exception
                0x0002a138       0x18 c:/progra~2/codesourcery/source~1/bin/../lib/gcc/arm-none-eabi/4.5.2/../../../../arm-none-eabi/lib/thumb2\libstdc++.a(eh_exception.o)
                0x0002a138                vtable for std::bad_exception
 .rodata._ZTSSt9exception
                0x0002a150       0x10 c:/progra~2/codesourcery/source~1/bin/../lib/gcc/arm-none-eabi/4.5.2/../../../../arm-none-eabi/lib/thumb2\libstdc++.a(eh_exception.o)
                0x0002a150                typeinfo name for std::exception
 .rodata._ZTVN10__cxxabiv119__foreign_exceptionE
                0x0002a160       0x18 c:/progra~2/codesourcery/source~1/bin/../lib/gcc/arm-none-eabi/4.5.2/../../../../arm-none-eabi/lib/thumb2\libstdc++.a(eh_exception.o)
                0x0002a160                vtable for __cxxabiv1::__foreign_exception
 .rodata._ZTSN10__cxxabiv115__forced_unwindE
                0x0002a178       0x20 c:/progra~2/codesourcery/source~1/bin/../lib/gcc/arm-none-eabi/4.5.2/../../../../arm-none-eabi/lib/thumb2\libstdc++.a(eh_exception.o)
                0x0002a178                typeinfo name for __cxxabiv1::__forced_unwind
 .rodata._ZTISt13bad_exception
                0x0002a198        0xc c:/progra~2/codesourcery/source~1/bin/../lib/gcc/arm-none-eabi/4.5.2/../../../../arm-none-eabi/lib/thumb2\libstdc++.a(eh_exception.o)
                0x0002a198                typeinfo for std::bad_exception
 .rodata        0x0002a1a4      0x694 c:/progra~2/codesourcery/source~1/bin/../lib/gcc/arm-none-eabi/4.5.2/../../../../arm-none-eabi/lib/thumb2\libstdc++.a(cp-demangle.o)
 .rodata.str1.4
                0x0002a838      0x5a7 c:/progra~2/codesourcery/source~1/bin/../lib/gcc/arm-none-eabi/4.5.2/../../../../arm-none-eabi/lib/thumb2\libstdc++.a(cp-demangle.o)
                                0x5b8 (size before relaxing)
 *fill*         0x0002addf        0x1 00
 .rodata        0x0002ade0        0x4 c:/progra~2/codesourcery/source~1/bin/../lib/gcc/arm-none-eabi/4.5.2/../../../../arm-none-eabi/lib/thumb2\libc.a(lib_a-impure.o)
                0x0002ade0                _global_impure_ptr
 .rodata.str1.4
                0x0002ade4        0x2 c:/progra~2/codesourcery/source~1/bin/../lib/gcc/arm-none-eabi/4.5.2/../../../../arm-none-eabi/lib/thumb2\libc.a(lib_a-impure.o)
                                  0x4 (size before relaxing)
 *fill*         0x0002ade6        0x2 00
 .rodata        0x0002ade8       0x20 c:/progra~2/codesourcery/source~1/bin/../lib/gcc/arm-none-eabi/4.5.2/../../../../arm-none-eabi/lib/thumb2\libc.a(lib_a-svfprintf.o)
 .rodata.str1.4
                0x0002ae08       0x42 c:/progra~2/codesourcery/source~1/bin/../lib/gcc/arm-none-eabi/4.5.2/../../../../arm-none-eabi/lib/thumb2\libc.a(lib_a-svfprintf.o)
                                 0x44 (size before relaxing)
 *fill*         0x0002ae4a        0x2 00
 .rodata.str1.4
                0x0002ae4c       0x10 c:/progra~2/codesourcery/source~1/bin/../lib/gcc/arm-none-eabi/4.5.2/../../../../arm-none-eabi/lib/thumb2\libc.a(lib_a-dtoa.o)
                                 0x14 (size before relaxing)
 .rodata        0x0002ae5c       0x60 c:/progra~2/codesourcery/source~1/bin/../lib/gcc/arm-none-eabi/4.5.2/../../../../arm-none-eabi/lib/thumb2\libc.a(lib_a-findfp.o)
                0x0002ae5c                __sf_fake_stdin
                0x0002ae7c                __sf_fake_stdout
                0x0002ae9c                __sf_fake_stderr
 .rodata.str1.4
                0x0002aebc        0x8 c:/progra~2/codesourcery/source~1/bin/../lib/gcc/arm-none-eabi/4.5.2/../../../../arm-none-eabi/lib/thumb2\libc.a(lib_a-locale.o)
                                 0x14 (size before relaxing)
 *fill*         0x0002aec4        0x4 00
 .rodata        0x0002aec8      0x128 c:/progra~2/codesourcery/source~1/bin/../lib/gcc/arm-none-eabi/4.5.2/../../../../arm-none-eabi/lib/thumb2\libc.a(lib_a-mprec.o)
                0x0002aed8                __mprec_tens
                0x0002afa0                __mprec_bigtens
                0x0002afc8                __mprec_tinytens
 .rodata        0x0002aff0       0x20 c:/progra~2/codesourcery/source~1/bin/../lib/gcc/arm-none-eabi/4.5.2/../../../../arm-none-eabi/lib/thumb2\libc.a(lib_a-svfiprintf.o)
 .rodata.str1.4
                0x00000000       0x30 c:/progra~2/codesourcery/source~1/bin/../lib/gcc/arm-none-eabi/4.5.2/../../../../arm-none-eabi/lib/thumb2\libc.a(lib_a-svfiprintf.o)
 *(.ARM.extab* .gnu.linkonce.armextab.*)
 .ARM.extab.cs3.reset
                0x0002b010        0x0 build\system\startup_LPC17xx.o
 .ARM.extab     0x0002b010        0x0 src\shared\PID.o
 .ARM.extab.text._ZN6Packet5errorEh
                0x0002b010        0x0 src\shared\Packet.o
 .ARM.extab     0x0002b010        0x0 src\shared\Packet.o
 .ARM.extab.text._ZN6PacketC2Ev
                0x0002b010        0x0 src\shared\Packet.o
 .ARM.extab.text._ZN5PointC2Elllll
                0x0002b010        0x0 build\Command.o
 .ARM.extab.text._ZN5PointC2Elll
                0x0002b010        0x0 build\Command.o
 .ARM.extab.text._ZNK5PointixEj
                0x0002b010        0x0 build\Command.o
 .ARM.extab.text._ZNK6Packet8hasErrorEv
                0x0002b010        0x0 build\Command.o
 .ARM.extab     0x0002b010       0x30 build\Command.o
 .ARM.extab.text._ZN19CircularBufferTemplIhEC2EtPh
                0x0002b040        0x0 build\Command.o
 .ARM.extab.text._ZNK19CircularBufferTemplIhE20getRemainingCapacityEv
                0x0002b040        0x0 build\Command.o
 .ARM.extab.text._ZNK19CircularBufferTemplIhE7isEmptyEv
                0x0002b040        0x0 build\Command.o
 .ARM.extab.text._ZN19CircularBufferTemplIhE4pushEh
                0x0002b040        0x0 build\Command.o
 .ARM.extab.text._ZN19CircularBufferTemplIhE3popEv
                0x0002b040        0x0 build\Command.o
 .ARM.extab.text._ZN19CircularBufferTemplIhE5resetEv
                0x0002b040        0x0 build\Command.o
 .ARM.extab.text._ZNK19CircularBufferTemplIhE9getLengthEv
                0x0002b040        0x0 build\Command.o
 .ARM.extab.text._ZN19CircularBufferTemplIhEixEt
                0x0002b040        0x0 build\Command.o
 .ARM.extab.text._ZNK6Packet9getLengthEv
                0x0002b040        0x0 build\DebugPacketProcessor.o
 .ARM.extab.text._ZN11Motherboard8getBoardEv
                0x0002b040        0x0 build\DebugPacketProcessor.o
 .ARM.extab     0x0002b040        0xc build\DebugPacketProcessor.o
 .ARM.extab     0x0002b04c        0x0 build\EepromMap.o
 .ARM.extab.text._ZNK6Packet12getErrorCodeEv
                0x0002b04c        0x0 build\Host.o
 .ARM.extab.text._ZNK6Packet7getDataEv
                0x0002b04c        0x0 build\Host.o
 .ARM.extab.text._ZNK8InPacket10isFinishedEv
                0x0002b04c        0x0 build\Host.o
 .ARM.extab.text._ZNK8InPacket9isStartedEv
                0x0002b04c        0x0 build\Host.o
 .ARM.extab.text._ZN8InPacket7timeoutEv
                0x0002b04c        0xc build\Host.o
 .ARM.extab.text._ZNK9OutPacket9isSendingEv
                0x0002b058        0x0 build\Host.o
 .ARM.extab.text._ZN4UART11getHostUARTEv
                0x0002b058        0x0 build\Host.o
 .ARM.extab.text._ZNK7Timeout8isActiveEv
                0x0002b058        0x0 build\Host.o
 .ARM.extab.text._ZN11Motherboard11getHostUARTEv
                0x0002b058        0x0 build\Host.o
 .ARM.extab.text._ZN11Motherboard19getStepperInterfaceEi
                0x0002b058        0x0 build\Host.o
 .ARM.extab     0x0002b058       0x48 build\Host.o
 .ARM.extab.text._ZN4host13handleVersionERK8InPacketR9OutPacket
                0x0002b0a0        0xc build\Host.o
 .ARM.extab.text._ZN4host18handleGetBuildNameERK8InPacketR9OutPacket
                0x0002b0ac        0xc build\Host.o
 .ARM.extab.text._ZN4host19handleGetBufferSizeERK8InPacketR9OutPacket
                0x0002b0b8        0xc build\Host.o
 .ARM.extab.text._ZN4host17handleGetPositionERK8InPacketR9OutPacket
                0x0002b0c4        0xc build\Host.o
 .ARM.extab.text._ZN4host20handleGetPositionExtERK8InPacketR9OutPacket
                0x0002b0d0        0xc build\Host.o
 .ARM.extab.text._ZN4host19handleCaptureToFileERK8InPacketR9OutPacket
                0x0002b0dc        0xc build\Host.o
 .ARM.extab.text._ZN4host16handleEndCaptureERK8InPacketR9OutPacket
                0x0002b0e8        0xc build\Host.o
 .ARM.extab.text._ZN4host14handlePlaybackERK8InPacketR9OutPacket
                0x0002b0f4        0xc build\Host.o
 .ARM.extab.text._ZN4host18handleNextFilenameERK8InPacketR9OutPacket
                0x0002b100        0xc build\Host.o
 .ARM.extab.text._ZN4host15handleToolQueryERK8InPacketR9OutPacket
                0x0002b10c        0xc build\Host.o
 .ARM.extab.text._ZN4host11handlePauseERK8InPacketR9OutPacket
                0x0002b118        0xc build\Host.o
 .ARM.extab.text._ZN4host16handleIsFinishedERK8InPacketR9OutPacket
                0x0002b124        0xc build\Host.o
 .ARM.extab.text._ZN4host16handleReadEepromERK8InPacketR9OutPacket
                0x0002b130        0xc build\Host.o
 .ARM.extab.text._ZN4host17handleWriteEepromERK8InPacketR9OutPacket
                0x0002b13c        0xc build\Host.o
 .ARM.extab.text._ZN4host18handleExtendedStopERK8InPacketR9OutPacket
                0x0002b148        0xc build\Host.o
 .ARM.extab.text._ZN4Port15setPinDirectionEhb
                0x0002b154        0xc build\Interface.o
 .ARM.extab.text._ZN4Port6getPinEh
                0x0002b160        0xc build\Interface.o
 .ARM.extab.text._ZN4Port6setPinEhb
                0x0002b16c        0xc build\Interface.o
 .ARM.extab.text._ZN3PinC2ER4Porth
                0x0002b178        0x0 build\Interface.o
 .ARM.extab.text._ZN3Pin12setDirectionEb
                0x0002b178        0xc build\Interface.o
 .ARM.extab.text._ZN3Pin8getValueEv
                0x0002b184        0xc build\Interface.o
 .ARM.extab.text._ZN3Pin8setValueEb
                0x0002b190        0xc build\Interface.o
 .ARM.extab     0x0002b19c       0x18 build\Interface.o
 .ARM.extab     0x0002b1b4       0x3c build\InterfaceBoard.o
 .ARM.extab.text._ZN6ScreenC2Ev
                0x0002b1f0        0x0 build\InterfaceBoard.o
 .ARM.extab.text._ZN12SplashScreenC2Ev
                0x0002b1f0        0x0 build\InterfaceBoard.o
 .ARM.extab.text._ZN11MonitorModeC2Ev
                0x0002b1f0        0xc build\InterfaceBoard.o
 .ARM.extab.text._ZN4PortC2Eh
                0x0002b1fc        0x0 build\LPCPort.o
 .ARM.extab     0x0002b1fc        0x0 build\LPCPort.o
 .ARM.extab.text._ZN4PortC2Ev
                0x0002b1fc        0x0 build\LiquidCrystal.o
 .ARM.extab.text._ZN4Port6isNullEv
                0x0002b1fc        0x0 build\LiquidCrystal.o
 .ARM.extab.text._ZN3PinC2Ev
                0x0002b1fc        0x0 build\LiquidCrystal.o
 .ARM.extab.text._ZN3Pin6isNullEv
                0x0002b1fc        0x0 build\LiquidCrystal.o
 .ARM.extab     0x0002b1fc      0x15c build\LiquidCrystal.o
 .ARM.extab.text._ZN13LiquidCrystal7commandEh
                0x0002b358        0xc build\LiquidCrystal.o
 .ARM.extab.text._ZN13LiquidCrystal5writeEh
                0x0002b364        0xc build\LiquidCrystal.o
 .ARM.extab     0x0002b370       0x18 build\Main.o
 .ARM.extab.text._ZN5PointixEj
                0x0002b388        0x0 build\Menu.o
 .ARM.extab.text._ZN4Menu13getUpdateRateEv
                0x0002b388        0x0 build\Menu.o
 .ARM.extab.text._ZN12SplashScreen13getUpdateRateEv
                0x0002b388        0x0 build\Menu.o
 .ARM.extab.text._ZN7JogMode13getUpdateRateEv
                0x0002b388        0x0 build\Menu.o
 .ARM.extab.text._ZN9SnakeMode13getUpdateRateEv
                0x0002b388        0x0 build\Menu.o
 .ARM.extab.text._ZN11MonitorMode13getUpdateRateEv
                0x0002b388        0x0 build\Menu.o
 .ARM.extab     0x0002b388      0x12c build\Menu.o
 .ARM.extab.text._ZN7JogModeC2Ev
                0x0002b4b4        0x0 build\Menu.o
 .ARM.extab.text._ZN9SnakeModeC2Ev
                0x0002b4b4        0x0 build\Menu.o
 .ARM.extab.text._ZN4MenuC2Ev
                0x0002b4b4        0x0 build\Menu.o
 .ARM.extab.text._ZN4UART12getSlaveUARTEv
                0x0002b4b4        0x0 build\Motherboard.o
 .ARM.extab.text._ZN16StepperInterfaceC2Ev
                0x0002b4b4        0x0 build\Motherboard.o
 .ARM.extab.text._ZN16StepperInterfaceC2ERK3PinS2_S2_S2_S2_
                0x0002b4b4        0x0 build\Motherboard.o
 .ARM.extab.text._ZN11Motherboard12getSlaveUARTEv
                0x0002b4b4        0x0 build\Motherboard.o
 .ARM.extab.text._ZN11Motherboard6getPSUEv
                0x0002b4b4        0x0 build\Motherboard.o
 .ARM.extab     0x0002b4b4       0x48 build\Motherboard.o
 .ARM.extab     0x0002b4fc        0x0 build\PID.o
 .ARM.extab     0x0002b4fc        0x0 build\PSU.o
 .ARM.extab     0x0002b4fc        0x0 build\Packet.o
 .ARM.extab     0x0002b4fc       0x9c build\SDCard.o
 .ARM.extab     0x0002b598       0x48 build\StepperInterface.o
 .ARM.extab.text._ZN8steppers4AxisC2Ev
                0x0002b5e0        0x0 build\Steppers.o
 .ARM.extab.text._ZN8steppers4AxisC2ER16StepperInterface
                0x0002b5e0        0x0 build\Steppers.o
 .ARM.extab.text._ZN8steppers4Axis9setTargetElb
                0x0002b5e0        0xc build\Steppers.o
 .ARM.extab.text._ZN8steppers4Axis9setHomingEb
                0x0002b5ec        0xc build\Steppers.o
 .ARM.extab.text._ZN8steppers4Axis14definePositionEl
                0x0002b5f8        0x0 build\Steppers.o
 .ARM.extab.text._ZN8steppers4Axis13enableStepperEb
                0x0002b5f8        0xc build\Steppers.o
 .ARM.extab.text._ZN8steppers4Axis5resetEv
                0x0002b604        0x0 build\Steppers.o
 .ARM.extab.text._ZN8steppers4Axis11doInterruptEl
                0x0002b604        0xc build\Steppers.o
 .ARM.extab.text._ZN8steppers4Axis8doHomingEl
                0x0002b610        0xc build\Steppers.o
 .ARM.extab     0x0002b61c       0x3c build\Steppers.o
 .ARM.extab     0x0002b658       0x18 build\Timeout.o
 .ARM.extab     0x0002b670       0x18 build\Tool.o
 .ARM.extab     0x0002b688       0x3c build\UART.o
 .ARM.extab.text._Z6listenv
                0x0002b6c4        0xc build\UART.o
 .ARM.extab.text._Z5speakv
                0x0002b6d0        0xc build\UART.o
 .ARM.extab.text._ZNK10__cxxabiv120__si_class_type_info11__do_upcastEPKNS_17__class_type_infoEPKvRNS1_15__upcast_resultE
                0x0002b6dc        0x0 c:/progra~2/codesourcery/source~1/bin/../lib/gcc/arm-none-eabi/4.5.2/../../../../arm-none-eabi/lib/thumb2\libstdc++.a(si_class_type_info.o)
 .ARM.extab.text._ZNK10__cxxabiv120__si_class_type_info12__do_dyncastEiNS_17__class_type_info10__sub_kindEPKS1_PKvS4_S6_RNS1_16__dyncast_resultE
                0x0002b6dc        0x0 c:/progra~2/codesourcery/source~1/bin/../lib/gcc/arm-none-eabi/4.5.2/../../../../arm-none-eabi/lib/thumb2\libstdc++.a(si_class_type_info.o)
 .ARM.extab.text._ZNK10__cxxabiv120__si_class_type_info20__do_find_public_srcEiPKvPKNS_17__class_type_infoES2_
                0x0002b6dc        0x0 c:/progra~2/codesourcery/source~1/bin/../lib/gcc/arm-none-eabi/4.5.2/../../../../arm-none-eabi/lib/thumb2\libstdc++.a(si_class_type_info.o)
 .ARM.extab.text._ZN10__cxxabiv120__si_class_type_infoD2Ev
                0x0002b6dc        0x0 c:/progra~2/codesourcery/source~1/bin/../lib/gcc/arm-none-eabi/4.5.2/../../../../arm-none-eabi/lib/thumb2\libstdc++.a(si_class_type_info.o)
 .ARM.extab.text._ZN10__cxxabiv120__si_class_type_infoD0Ev
                0x0002b6dc        0x0 c:/progra~2/codesourcery/source~1/bin/../lib/gcc/arm-none-eabi/4.5.2/../../../../arm-none-eabi/lib/thumb2\libstdc++.a(si_class_type_info.o)
 .ARM.extab.text._ZdlPv
                0x0002b6dc        0x0 c:/progra~2/codesourcery/source~1/bin/../lib/gcc/arm-none-eabi/4.5.2/../../../../arm-none-eabi/lib/thumb2\libstdc++.a(del_op.o)
 .ARM.extab.text.__cxa_pure_virtual
                0x0002b6dc        0xc c:/progra~2/codesourcery/source~1/bin/../lib/gcc/arm-none-eabi/4.5.2/../../../../arm-none-eabi/lib/thumb2\libstdc++.a(pure.o)
 .ARM.extab.text._ZNK10__cxxabiv117__class_type_info11__do_upcastEPKS0_PPv
                0x0002b6e8        0x0 c:/progra~2/codesourcery/source~1/bin/../lib/gcc/arm-none-eabi/4.5.2/../../../../arm-none-eabi/lib/thumb2\libstdc++.a(class_type_info.o)
 .ARM.extab.text._ZNK10__cxxabiv117__class_type_info20__do_find_public_srcEiPKvPKS0_S2_
                0x0002b6e8        0x0 c:/progra~2/codesourcery/source~1/bin/../lib/gcc/arm-none-eabi/4.5.2/../../../../arm-none-eabi/lib/thumb2\libstdc++.a(class_type_info.o)
 .ARM.extab.text._ZNK10__cxxabiv117__class_type_info11__do_upcastEPKS0_PKvRNS0_15__upcast_resultE
                0x0002b6e8        0x0 c:/progra~2/codesourcery/source~1/bin/../lib/gcc/arm-none-eabi/4.5.2/../../../../arm-none-eabi/lib/thumb2\libstdc++.a(class_type_info.o)
 .ARM.extab.text._ZNK10__cxxabiv117__class_type_info12__do_dyncastEiNS0_10__sub_kindEPKS0_PKvS3_S5_RNS0_16__dyncast_resultE
                0x0002b6e8        0x0 c:/progra~2/codesourcery/source~1/bin/../lib/gcc/arm-none-eabi/4.5.2/../../../../arm-none-eabi/lib/thumb2\libstdc++.a(class_type_info.o)
 .ARM.extab.text._ZNK10__cxxabiv117__class_type_info10__do_catchEPKSt9type_infoPPvj
                0x0002b6e8        0x0 c:/progra~2/codesourcery/source~1/bin/../lib/gcc/arm-none-eabi/4.5.2/../../../../arm-none-eabi/lib/thumb2\libstdc++.a(class_type_info.o)
 .ARM.extab.text._ZN10__cxxabiv117__class_type_infoD2Ev
                0x0002b6e8        0x0 c:/progra~2/codesourcery/source~1/bin/../lib/gcc/arm-none-eabi/4.5.2/../../../../arm-none-eabi/lib/thumb2\libstdc++.a(class_type_info.o)
 .ARM.extab.text._ZN10__cxxabiv117__class_type_infoD0Ev
                0x0002b6e8        0x0 c:/progra~2/codesourcery/source~1/bin/../lib/gcc/arm-none-eabi/4.5.2/../../../../arm-none-eabi/lib/thumb2\libstdc++.a(class_type_info.o)
 .ARM.extab.text._ZNSt9type_infoD2Ev
                0x0002b6e8        0x0 c:/progra~2/codesourcery/source~1/bin/../lib/gcc/arm-none-eabi/4.5.2/../../../../arm-none-eabi/lib/thumb2\libstdc++.a(tinfo.o)
 .ARM.extab.text._ZNKSt9type_info14__is_pointer_pEv
                0x0002b6e8        0x0 c:/progra~2/codesourcery/source~1/bin/../lib/gcc/arm-none-eabi/4.5.2/../../../../arm-none-eabi/lib/thumb2\libstdc++.a(tinfo.o)
 .ARM.extab.text._ZNKSt9type_info15__is_function_pEv
                0x0002b6e8        0x0 c:/progra~2/codesourcery/source~1/bin/../lib/gcc/arm-none-eabi/4.5.2/../../../../arm-none-eabi/lib/thumb2\libstdc++.a(tinfo.o)
 .ARM.extab.text._ZNKSt9type_info11__do_upcastEPKN10__cxxabiv117__class_type_infoEPPv
                0x0002b6e8        0x0 c:/progra~2/codesourcery/source~1/bin/../lib/gcc/arm-none-eabi/4.5.2/../../../../arm-none-eabi/lib/thumb2\libstdc++.a(tinfo.o)
 .ARM.extab.text._ZNSt9type_infoD0Ev
                0x0002b6e8        0x0 c:/progra~2/codesourcery/source~1/bin/../lib/gcc/arm-none-eabi/4.5.2/../../../../arm-none-eabi/lib/thumb2\libstdc++.a(tinfo.o)
 .ARM.extab.text._ZNKSt9type_infoeqERKS_
                0x0002b6e8        0x0 c:/progra~2/codesourcery/source~1/bin/../lib/gcc/arm-none-eabi/4.5.2/../../../../arm-none-eabi/lib/thumb2\libstdc++.a(tinfo.o)
 .ARM.extab.text._ZNKSt9type_info10__do_catchEPKS_PPvj
                0x0002b6e8        0x0 c:/progra~2/codesourcery/source~1/bin/../lib/gcc/arm-none-eabi/4.5.2/../../../../arm-none-eabi/lib/thumb2\libstdc++.a(tinfo.o)
 .ARM.extab.text._ZN10__cxxabiv111__terminateEPFvvE
                0x0002b6e8       0x2c c:/progra~2/codesourcery/source~1/bin/../lib/gcc/arm-none-eabi/4.5.2/../../../../arm-none-eabi/lib/thumb2\libstdc++.a(eh_terminate.o)
 .ARM.extab.text._ZSt9terminatev
                0x0002b714        0x0 c:/progra~2/codesourcery/source~1/bin/../lib/gcc/arm-none-eabi/4.5.2/../../../../arm-none-eabi/lib/thumb2\libstdc++.a(eh_terminate.o)
 .ARM.extab.text._ZN10__cxxabiv112__unexpectedEPFvvE
                0x0002b714        0xc c:/progra~2/codesourcery/source~1/bin/../lib/gcc/arm-none-eabi/4.5.2/../../../../arm-none-eabi/lib/thumb2\libstdc++.a(eh_terminate.o)
 .ARM.extab.text._ZSt10unexpectedv
                0x0002b720        0xc c:/progra~2/codesourcery/source~1/bin/../lib/gcc/arm-none-eabi/4.5.2/../../../../arm-none-eabi/lib/thumb2\libstdc++.a(eh_terminate.o)
 .ARM.extab.text._ZSt13set_terminatePFvvE
                0x0002b72c        0x0 c:/progra~2/codesourcery/source~1/bin/../lib/gcc/arm-none-eabi/4.5.2/../../../../arm-none-eabi/lib/thumb2\libstdc++.a(eh_terminate.o)
 .ARM.extab.text._ZSt14set_unexpectedPFvvE
                0x0002b72c        0x0 c:/progra~2/codesourcery/source~1/bin/../lib/gcc/arm-none-eabi/4.5.2/../../../../arm-none-eabi/lib/thumb2\libstdc++.a(eh_terminate.o)
 .ARM.extab.text.__cxa_call_terminate
                0x0002b72c        0x0 c:/progra~2/codesourcery/source~1/bin/../lib/gcc/arm-none-eabi/4.5.2/../../../../arm-none-eabi/lib/thumb2\libstdc++.a(eh_call.o)
 .ARM.extab.text.__cxa_call_unexpected
                0x0002b72c       0x28 c:/progra~2/codesourcery/source~1/bin/../lib/gcc/arm-none-eabi/4.5.2/../../../../arm-none-eabi/lib/thumb2\libstdc++.a(eh_call.o)
 .ARM.extab.text._ZL12read_sleb128PKhPl
                0x0002b754        0x0 c:/progra~2/codesourcery/source~1/bin/../lib/gcc/arm-none-eabi/4.5.2/../../../../arm-none-eabi/lib/thumb2\libstdc++.a(eh_personality.o)
 .ARM.extab.text._ZL28read_encoded_value_with_basehjPKhPj
                0x0002b754        0x0 c:/progra~2/codesourcery/source~1/bin/../lib/gcc/arm-none-eabi/4.5.2/../../../../arm-none-eabi/lib/thumb2\libstdc++.a(eh_personality.o)
 .ARM.extab.text._ZL21base_of_encoded_valuehP15_Unwind_Context
                0x0002b754        0x0 c:/progra~2/codesourcery/source~1/bin/../lib/gcc/arm-none-eabi/4.5.2/../../../../arm-none-eabi/lib/thumb2\libstdc++.a(eh_personality.o)
 .ARM.extab.text._ZL17parse_lsda_headerP15_Unwind_ContextPKhP16lsda_header_info
                0x0002b754        0x0 c:/progra~2/codesourcery/source~1/bin/../lib/gcc/arm-none-eabi/4.5.2/../../../../arm-none-eabi/lib/thumb2\libstdc++.a(eh_personality.o)
 .ARM.extab.text.__gxx_personality_v0
                0x0002b754       0x24 c:/progra~2/codesourcery/source~1/bin/../lib/gcc/arm-none-eabi/4.5.2/../../../../arm-none-eabi/lib/thumb2\libstdc++.a(eh_personality.o)
 .ARM.extab.text._ZL23__gxx_exception_cleanup19_Unwind_Reason_CodeP21_Unwind_Control_Block
                0x0002b778        0x0 c:/progra~2/codesourcery/source~1/bin/../lib/gcc/arm-none-eabi/4.5.2/../../../../arm-none-eabi/lib/thumb2\libstdc++.a(eh_throw.o)
 .ARM.extab.text.__cxa_throw
                0x0002b778        0x0 c:/progra~2/codesourcery/source~1/bin/../lib/gcc/arm-none-eabi/4.5.2/../../../../arm-none-eabi/lib/thumb2\libstdc++.a(eh_throw.o)
 .ARM.extab.text.__cxa_rethrow
                0x0002b778        0x0 c:/progra~2/codesourcery/source~1/bin/../lib/gcc/arm-none-eabi/4.5.2/../../../../arm-none-eabi/lib/thumb2\libstdc++.a(eh_throw.o)
 .ARM.extab.text.__cxa_get_globals_fast
                0x0002b778        0x0 c:/progra~2/codesourcery/source~1/bin/../lib/gcc/arm-none-eabi/4.5.2/../../../../arm-none-eabi/lib/thumb2\libstdc++.a(eh_globals.o)
 .ARM.extab.text.__cxa_get_globals
                0x0002b778        0x0 c:/progra~2/codesourcery/source~1/bin/../lib/gcc/arm-none-eabi/4.5.2/../../../../arm-none-eabi/lib/thumb2\libstdc++.a(eh_globals.o)
 .ARM.extab.text.__cxa_get_exception_ptr
                0x0002b778        0x0 c:/progra~2/codesourcery/source~1/bin/../lib/gcc/arm-none-eabi/4.5.2/../../../../arm-none-eabi/lib/thumb2\libstdc++.a(eh_catch.o)
 .ARM.extab.text.__cxa_begin_catch
                0x0002b778       0x20 c:/progra~2/codesourcery/source~1/bin/../lib/gcc/arm-none-eabi/4.5.2/../../../../arm-none-eabi/lib/thumb2\libstdc++.a(eh_catch.o)
 .ARM.extab.text.__cxa_end_catch
                0x0002b798        0x0 c:/progra~2/codesourcery/source~1/bin/../lib/gcc/arm-none-eabi/4.5.2/../../../../arm-none-eabi/lib/thumb2\libstdc++.a(eh_catch.o)
 .ARM.extab.text._ZSt18uncaught_exceptionv
                0x0002b798        0x0 c:/progra~2/codesourcery/source~1/bin/../lib/gcc/arm-none-eabi/4.5.2/../../../../arm-none-eabi/lib/thumb2\libstdc++.a(eh_catch.o)
 .ARM.extab.text._ZN9__gnu_cxx27__verbose_terminate_handlerEv
                0x0002b798       0x40 c:/progra~2/codesourcery/source~1/bin/../lib/gcc/arm-none-eabi/4.5.2/../../../../arm-none-eabi/lib/thumb2\libstdc++.a(vterminate.o)
 .ARM.extab.text._ZNSt9exceptionD2Ev
                0x0002b7d8        0x0 c:/progra~2/codesourcery/source~1/bin/../lib/gcc/arm-none-eabi/4.5.2/../../../../arm-none-eabi/lib/thumb2\libstdc++.a(eh_exception.o)
 .ARM.extab.text._ZNSt13bad_exceptionD2Ev
                0x0002b7d8        0x0 c:/progra~2/codesourcery/source~1/bin/../lib/gcc/arm-none-eabi/4.5.2/../../../../arm-none-eabi/lib/thumb2\libstdc++.a(eh_exception.o)
 .ARM.extab.text._ZN10__cxxabiv115__forced_unwindD2Ev
                0x0002b7d8        0x0 c:/progra~2/codesourcery/source~1/bin/../lib/gcc/arm-none-eabi/4.5.2/../../../../arm-none-eabi/lib/thumb2\libstdc++.a(eh_exception.o)
 .ARM.extab.text._ZN10__cxxabiv119__foreign_exceptionD2Ev
                0x0002b7d8        0x0 c:/progra~2/codesourcery/source~1/bin/../lib/gcc/arm-none-eabi/4.5.2/../../../../arm-none-eabi/lib/thumb2\libstdc++.a(eh_exception.o)
 .ARM.extab.text._ZNKSt9exception4whatEv
                0x0002b7d8        0x0 c:/progra~2/codesourcery/source~1/bin/../lib/gcc/arm-none-eabi/4.5.2/../../../../arm-none-eabi/lib/thumb2\libstdc++.a(eh_exception.o)
 .ARM.extab.text._ZNKSt13bad_exception4whatEv
                0x0002b7d8        0x0 c:/progra~2/codesourcery/source~1/bin/../lib/gcc/arm-none-eabi/4.5.2/../../../../arm-none-eabi/lib/thumb2\libstdc++.a(eh_exception.o)
 .ARM.extab.text._ZN10__cxxabiv119__foreign_exceptionD0Ev
                0x0002b7d8        0x0 c:/progra~2/codesourcery/source~1/bin/../lib/gcc/arm-none-eabi/4.5.2/../../../../arm-none-eabi/lib/thumb2\libstdc++.a(eh_exception.o)
 .ARM.extab.text._ZN10__cxxabiv115__forced_unwindD0Ev
                0x0002b7d8        0x0 c:/progra~2/codesourcery/source~1/bin/../lib/gcc/arm-none-eabi/4.5.2/../../../../arm-none-eabi/lib/thumb2\libstdc++.a(eh_exception.o)
 .ARM.extab.text._ZNSt13bad_exceptionD0Ev
                0x0002b7d8        0x0 c:/progra~2/codesourcery/source~1/bin/../lib/gcc/arm-none-eabi/4.5.2/../../../../arm-none-eabi/lib/thumb2\libstdc++.a(eh_exception.o)
 .ARM.extab.text._ZNSt9exceptionD0Ev
                0x0002b7d8        0x0 c:/progra~2/codesourcery/source~1/bin/../lib/gcc/arm-none-eabi/4.5.2/../../../../arm-none-eabi/lib/thumb2\libstdc++.a(eh_exception.o)
 .ARM.extab.text.__cxa_current_exception_type
                0x0002b7d8        0x0 c:/progra~2/codesourcery/source~1/bin/../lib/gcc/arm-none-eabi/4.5.2/../../../../arm-none-eabi/lib/thumb2\libstdc++.a(eh_type.o)
 .ARM.extab.text.__cxa_type_match
                0x0002b7d8        0x0 c:/progra~2/codesourcery/source~1/bin/../lib/gcc/arm-none-eabi/4.5.2/../../../../arm-none-eabi/lib/thumb2\libstdc++.a(eh_arm.o)
 .ARM.extab.text.__cxa_begin_cleanup
                0x0002b7d8        0x0 c:/progra~2/codesourcery/source~1/bin/../lib/gcc/arm-none-eabi/4.5.2/../../../../arm-none-eabi/lib/thumb2\libstdc++.a(eh_arm.o)
 .ARM.extab.text.__gnu_end_cleanup
                0x0002b7d8        0x0 c:/progra~2/codesourcery/source~1/bin/../lib/gcc/arm-none-eabi/4.5.2/../../../../arm-none-eabi/lib/thumb2\libstdc++.a(eh_arm.o)
 .ARM.extab.text.__cxa_allocate_exception
                0x0002b7d8        0x0 c:/progra~2/codesourcery/source~1/bin/../lib/gcc/arm-none-eabi/4.5.2/../../../../arm-none-eabi/lib/thumb2\libstdc++.a(eh_alloc.o)
 .ARM.extab.text.__cxa_free_exception
                0x0002b7d8        0x0 c:/progra~2/codesourcery/source~1/bin/../lib/gcc/arm-none-eabi/4.5.2/../../../../arm-none-eabi/lib/thumb2\libstdc++.a(eh_alloc.o)
 .ARM.extab.text.__cxa_allocate_dependent_exception
                0x0002b7d8        0x0 c:/progra~2/codesourcery/source~1/bin/../lib/gcc/arm-none-eabi/4.5.2/../../../../arm-none-eabi/lib/thumb2\libstdc++.a(eh_alloc.o)
 .ARM.extab.text.__cxa_free_dependent_exception
                0x0002b7d8        0x0 c:/progra~2/codesourcery/source~1/bin/../lib/gcc/arm-none-eabi/4.5.2/../../../../arm-none-eabi/lib/thumb2\libstdc++.a(eh_alloc.o)
 .ARM.extab.text._GLOBAL__I___cxa_allocate_exception
                0x0002b7d8        0x0 c:/progra~2/codesourcery/source~1/bin/../lib/gcc/arm-none-eabi/4.5.2/../../../../arm-none-eabi/lib/thumb2\libstdc++.a(eh_alloc.o)
 .ARM.extab     0x0002b7d8       0x18 c:/progra~2/codesourcery/source~1/bin/../lib/gcc/arm-none-eabi/4.5.2/thumb2\libgcc.a(unwind-arm.o)
 .ARM.extab     0x0002b7f0       0x18 c:/progra~2/codesourcery/source~1/bin/../lib/gcc/arm-none-eabi/4.5.2/thumb2\libgcc.a(pr-support.o)
 .ARM.extab     0x0002b808        0x0 c:/progra~2/codesourcery/source~1/bin/../lib/gcc/arm-none-eabi/4.5.2/thumb2\libgcc.a(_divdi3.o)
 .ARM.extab     0x0002b808        0x0 c:/progra~2/codesourcery/source~1/bin/../lib/gcc/arm-none-eabi/4.5.2/thumb2\libgcc.a(_udivdi3.o)
 *(.gcc_except_table)
 *(.eh_frame_hdr)
 *(.eh_frame)
                0x0002b808                . = ALIGN (0x4)
 *(.init)
                0x0002b808                . = ALIGN (0x4)
                0x0002b808                __preinit_array_start = .
 *(.preinit_array)
                0x0002b808                __preinit_array_end = .
                0x0002b808                . = ALIGN (0x4)
                0x0002b808                __init_array_start = .
 *(SORT(.init_array.*))
 *(.init_array)
 .init_array    0x0002b808        0x4 build\Command.o
 .init_array    0x0002b80c        0x4 build\DebugPacketProcessor.o
 .init_array    0x0002b810        0x4 build\Host.o
 .init_array    0x0002b814        0x4 build\Interface.o
 .init_array    0x0002b818        0x4 build\LPCPort.o
 .init_array    0x0002b81c        0x4 build\Menu.o
 .init_array    0x0002b820        0x4 build\Motherboard.o
 .init_array    0x0002b824        0x4 build\Steppers.o
 .init_array    0x0002b828        0x4 build\Tool.o
 .init_array    0x0002b82c        0x4 build\UART.o
 .init_array    0x0002b830        0x4 c:/progra~2/codesourcery/source~1/bin/../lib/gcc/arm-none-eabi/4.5.2/../../../../arm-none-eabi/lib/thumb2\libstdc++.a(eh_alloc.o)
                0x0002b834                __init_array_end = .
                0x0002b834                . = ALIGN (0x4)
 *crtbegin.o(.ctors)
 *(EXCLUDE_FILE(*crtend.o) .ctors)
 *(SORT(.ctors.*))
 *crtend.o(.ctors)
                0x0002b834                . = ALIGN (0x4)
 *(.fini)
                0x0002b834                . = ALIGN (0x4)
                0x0002b834                __fini_array_start = .
 *(.fini_array)
 *(SORT(.fini_array.*))
                0x0002b834                __fini_array_end = .
 *crtbegin.o(.dtors)
 *(EXCLUDE_FILE(*crtend.o) .dtors)
 *(SORT(.dtors.*))
 *crtend.o(.dtors)
                0x0002b834                . = ALIGN (0x4)
                0x0002b834                __cs3_regions = .
                0x0002b834        0x4 LONG 0x0
                0x0002b838        0x4 LONG 0x2c008 __cs3_region_init_ram
                0x0002b83c        0x4 LONG 0x10000000 __cs3_region_start_ram
                0x0002b840        0x4 LONG 0x5e0 __cs3_region_init_size_ram
                0x0002b844        0x4 LONG 0x2580 __cs3_region_zero_size_ram
                0x0002b848                __exidx_start = .

.v4_bx          0x0002b848        0x0
 .v4_bx         0x00000000        0x0 linker stubs

.ARM.exidx      0x0002b848      0x7c0
 *(.ARM.exidx* .gnu.linkonce.armexidx.*)
 .ARM.exidx.cs3.reset
                0x0002b848        0x8 build\system\startup_LPC17xx.o
 .ARM.exidx     0x0002b850        0x0 src\shared\PID.o
                                 0x38 (size before relaxing)
 .ARM.exidx.text._ZN6Packet5errorEh
                0x0002b850        0x0 src\shared\Packet.o
                                  0x8 (size before relaxing)
 .ARM.exidx     0x0002b850        0x0 src\shared\Packet.o
                                 0x80 (size before relaxing)
 .ARM.exidx.text._ZN6PacketC2Ev
                0x0002b850        0x0 src\shared\Packet.o
                                  0x8 (size before relaxing)
 .ARM.exidx.text._ZN5PointC2Elllll
                0x0002b888        0x0 build\Command.o
                                  0x8 (size before relaxing)
 .ARM.exidx.text._ZN5PointC2Elll
                0x0002b888        0x0 build\Command.o
                                  0x8 (size before relaxing)
 .ARM.exidx.text._ZNK5PointixEj
                0x0002b888        0x0 build\Command.o
                                  0x8 (size before relaxing)
 .ARM.exidx.text._ZNK6Packet8hasErrorEv
                0x0002b888        0x0 build\Command.o
                                  0x8 (size before relaxing)
 .ARM.exidx     0x0002b850       0x38 build\Command.o
                                 0x60 (size before relaxing)
 .ARM.exidx.text._ZN19CircularBufferTemplIhEC2EtPh
                0x0002b888        0x0 build\Command.o
                                  0x8 (size before relaxing)
 .ARM.exidx.text._ZNK19CircularBufferTemplIhE20getRemainingCapacityEv
                0x0002b888        0x0 build\Command.o
                                  0x8 (size before relaxing)
 .ARM.exidx.text._ZNK19CircularBufferTemplIhE7isEmptyEv
                0x0002b888        0x0 build\Command.o
                                  0x8 (size before relaxing)
 .ARM.exidx.text._ZN19CircularBufferTemplIhE4pushEh
                0x0002b888        0x0 build\Command.o
                                  0x8 (size before relaxing)
 .ARM.exidx.text._ZN19CircularBufferTemplIhE3popEv
                0x0002b888        0x0 build\Command.o
                                  0x8 (size before relaxing)
 .ARM.exidx.text._ZN19CircularBufferTemplIhE5resetEv
                0x0002b888        0x0 build\Command.o
                                  0x8 (size before relaxing)
 .ARM.exidx.text._ZNK19CircularBufferTemplIhE9getLengthEv
                0x0002b888        0x0 build\Command.o
                                  0x8 (size before relaxing)
 .ARM.exidx.text._ZN19CircularBufferTemplIhEixEt
                0x0002b888        0x0 build\Command.o
                                  0x8 (size before relaxing)
 .ARM.exidx.text._ZNK6Packet9getLengthEv
                0x0002b898        0x0 build\DebugPacketProcessor.o
                                  0x8 (size before relaxing)
 .ARM.exidx.text._ZN11Motherboard8getBoardEv
                0x0002b898        0x0 build\DebugPacketProcessor.o
                                  0x8 (size before relaxing)
 .ARM.exidx     0x0002b888       0x10 build\DebugPacketProcessor.o
                                 0x18 (size before relaxing)
 .ARM.exidx     0x0002b898        0x0 build\EepromMap.o
                                 0x18 (size before relaxing)
 .ARM.exidx.text._ZNK6Packet12getErrorCodeEv
                0x0002b8d8        0x0 build\Host.o
                                  0x8 (size before relaxing)
 .ARM.exidx.text._ZNK6Packet7getDataEv
                0x0002b8d8        0x0 build\Host.o
                                  0x8 (size before relaxing)
 .ARM.exidx.text._ZNK8InPacket10isFinishedEv
                0x0002b8d8        0x0 build\Host.o
                                  0x8 (size before relaxing)
 .ARM.exidx.text._ZNK8InPacket9isStartedEv
                0x0002b8d8        0x0 build\Host.o
                                  0x8 (size before relaxing)
 .ARM.exidx.text._ZN8InPacket7timeoutEv
                0x0002b8d8        0x8 build\Host.o
 .ARM.exidx.text._ZNK9OutPacket9isSendingEv
                0x0002b8e0        0x8 build\Host.o
 .ARM.exidx.text._ZN4UART11getHostUARTEv
                0x0002b8e8        0x0 build\Host.o
                                  0x8 (size before relaxing)
 .ARM.exidx.text._ZNK7Timeout8isActiveEv
                0x0002b8e8        0x0 build\Host.o
                                  0x8 (size before relaxing)
 .ARM.exidx.text._ZN11Motherboard11getHostUARTEv
                0x0002b8e8        0x0 build\Host.o
                                  0x8 (size before relaxing)
 .ARM.exidx.text._ZN11Motherboard19getStepperInterfaceEi
                0x0002b8e8        0x0 build\Host.o
                                  0x8 (size before relaxing)
 .ARM.exidx     0x0002b898       0x40 build\Host.o
                                 0x58 (size before relaxing)
 .ARM.exidx.text._ZN4host13handleVersionERK8InPacketR9OutPacket
                0x0002b8e8        0x8 build\Host.o
 .ARM.exidx.text._ZN4host18handleGetBuildNameERK8InPacketR9OutPacket
                0x0002b8f0        0x8 build\Host.o
 .ARM.exidx.text._ZN4host19handleGetBufferSizeERK8InPacketR9OutPacket
                0x0002b8f8        0x8 build\Host.o
 .ARM.exidx.text._ZN4host17handleGetPositionERK8InPacketR9OutPacket
                0x0002b900        0x8 build\Host.o
 .ARM.exidx.text._ZN4host20handleGetPositionExtERK8InPacketR9OutPacket
                0x0002b908        0x8 build\Host.o
 .ARM.exidx.text._ZN4host19handleCaptureToFileERK8InPacketR9OutPacket
                0x0002b910        0x8 build\Host.o
 .ARM.exidx.text._ZN4host16handleEndCaptureERK8InPacketR9OutPacket
                0x0002b918        0x8 build\Host.o
 .ARM.exidx.text._ZN4host14handlePlaybackERK8InPacketR9OutPacket
                0x0002b920        0x8 build\Host.o
 .ARM.exidx.text._ZN4host18handleNextFilenameERK8InPacketR9OutPacket
                0x0002b928        0x8 build\Host.o
 .ARM.exidx.text._ZN4host15handleToolQueryERK8InPacketR9OutPacket
                0x0002b930        0x8 build\Host.o
 .ARM.exidx.text._ZN4host11handlePauseERK8InPacketR9OutPacket
                0x0002b938        0x8 build\Host.o
 .ARM.exidx.text._ZN4host16handleIsFinishedERK8InPacketR9OutPacket
                0x0002b940        0x8 build\Host.o
 .ARM.exidx.text._ZN4host16handleReadEepromERK8InPacketR9OutPacket
                0x0002b948        0x8 build\Host.o
 .ARM.exidx.text._ZN4host17handleWriteEepromERK8InPacketR9OutPacket
                0x0002b950        0x8 build\Host.o
 .ARM.exidx.text._ZN4host18handleExtendedStopERK8InPacketR9OutPacket
                0x0002b958        0x8 build\Host.o
 .ARM.exidx.text._ZN4Port15setPinDirectionEhb
                0x0002b988        0x8 build\Interface.o
 .ARM.exidx.text._ZN4Port6getPinEh
                0x0002b990        0x8 build\Interface.o
 .ARM.exidx.text._ZN4Port6setPinEhb
                0x0002b998        0x8 build\Interface.o
 .ARM.exidx.text._ZN3PinC2ER4Porth
                0x0002b9a0        0x8 build\Interface.o
 .ARM.exidx.text._ZN3Pin12setDirectionEb
                0x0002b9a8        0x8 build\Interface.o
 .ARM.exidx.text._ZN3Pin8getValueEv
                0x0002b9b0        0x8 build\Interface.o
 .ARM.exidx.text._ZN3Pin8setValueEb
                0x0002b9b8        0x8 build\Interface.o
 .ARM.exidx     0x0002b960       0x28 build\Interface.o
                                 0x48 (size before relaxing)
 .ARM.exidx     0x0002b9c0       0x38 build\InterfaceBoard.o
                                 0x50 (size before relaxing)
 .ARM.exidx.text._ZN6ScreenC2Ev
                0x0002b9f8        0x8 build\InterfaceBoard.o
 .ARM.exidx.text._ZN12SplashScreenC2Ev
                0x0002ba00        0x0 build\InterfaceBoard.o
                                  0x8 (size before relaxing)
 .ARM.exidx.text._ZN11MonitorModeC2Ev
                0x0002ba00        0x8 build\InterfaceBoard.o
 .ARM.exidx.text._ZN4PortC2Eh
                0x0002ba10        0x0 build\LPCPort.o
                                  0x8 (size before relaxing)
 .ARM.exidx     0x0002ba08        0x8 build\LPCPort.o
                                 0x10 (size before relaxing)
 .ARM.exidx.text._ZN4PortC2Ev
                0x0002baf8        0x8 build\LiquidCrystal.o
 .ARM.exidx.text._ZN4Port6isNullEv
                0x0002bb00        0x0 build\LiquidCrystal.o
                                  0x8 (size before relaxing)
 .ARM.exidx.text._ZN3PinC2Ev
                0x0002bb00        0x0 build\LiquidCrystal.o
                                  0x8 (size before relaxing)
 .ARM.exidx.text._ZN3Pin6isNullEv
                0x0002bb00        0x0 build\LiquidCrystal.o
                                  0x8 (size before relaxing)
 .ARM.exidx     0x0002ba10       0xe8 build\LiquidCrystal.o
                                 0xf8 (size before relaxing)
 .ARM.exidx.text._ZN13LiquidCrystal7commandEh
                0x0002bb00        0x8 build\LiquidCrystal.o
 .ARM.exidx.text._ZN13LiquidCrystal5writeEh
                0x0002bb08        0x8 build\LiquidCrystal.o
 .ARM.exidx     0x0002bb10       0x18 build\Main.o
                                 0x30 (size before relaxing)
 .ARM.exidx.text._ZN5PointixEj
                0x0002bc28        0x0 build\Menu.o
                                  0x8 (size before relaxing)
 .ARM.exidx.text._ZN4Menu13getUpdateRateEv
                0x0002bc28        0x0 build\Menu.o
                                  0x8 (size before relaxing)
 .ARM.exidx.text._ZN12SplashScreen13getUpdateRateEv
                0x0002bc28        0x0 build\Menu.o
                                  0x8 (size before relaxing)
 .ARM.exidx.text._ZN7JogMode13getUpdateRateEv
                0x0002bc28        0x0 build\Menu.o
                                  0x8 (size before relaxing)
 .ARM.exidx.text._ZN9SnakeMode13getUpdateRateEv
                0x0002bc28        0x0 build\Menu.o
                                  0x8 (size before relaxing)
 .ARM.exidx.text._ZN11MonitorMode13getUpdateRateEv
                0x0002bc28        0x0 build\Menu.o
                                  0x8 (size before relaxing)
 .ARM.exidx     0x0002bb28      0x100 build\Menu.o
                                0x128 (size before relaxing)
 .ARM.exidx.text._ZN7JogModeC2Ev
                0x0002bc28        0x0 build\Menu.o
                                  0x8 (size before relaxing)
 .ARM.exidx.text._ZN9SnakeModeC2Ev
                0x0002bc28        0x0 build\Menu.o
                                  0x8 (size before relaxing)
 .ARM.exidx.text._ZN4MenuC2Ev
                0x0002bc28        0x0 build\Menu.o
                                  0x8 (size before relaxing)
 .ARM.exidx.text._ZN4UART12getSlaveUARTEv
                0x0002bc78        0x0 build\Motherboard.o
                                  0x8 (size before relaxing)
 .ARM.exidx.text._ZN16StepperInterfaceC2Ev
                0x0002bc78        0x0 build\Motherboard.o
                                  0x8 (size before relaxing)
 .ARM.exidx.text._ZN16StepperInterfaceC2ERK3PinS2_S2_S2_S2_
                0x0002bc78        0x0 build\Motherboard.o
                                  0x8 (size before relaxing)
 .ARM.exidx.text._ZN11Motherboard12getSlaveUARTEv
                0x0002bc78        0x0 build\Motherboard.o
                                  0x8 (size before relaxing)
 .ARM.exidx.text._ZN11Motherboard6getPSUEv
                0x0002bc78        0x0 build\Motherboard.o
                                  0x8 (size before relaxing)
 .ARM.exidx     0x0002bc28       0x50 build\Motherboard.o
                                 0x58 (size before relaxing)
 .ARM.exidx     0x0002bc78        0x0 build\PID.o
                                 0x38 (size before relaxing)
 .ARM.exidx     0x0002bc78        0x0 build\PSU.o
                                 0x10 (size before relaxing)
 .ARM.exidx     0x0002bc78        0x0 build\Packet.o
                                 0x80 (size before relaxing)
 .ARM.exidx     0x0002bc78       0x98 build\SDCard.o
                                 0xb0 (size before relaxing)
 .ARM.exidx     0x0002bd10       0x30 build\StepperInterface.o
 .ARM.exidx.text._ZN8steppers4AxisC2Ev
                0x0002bd78        0x0 build\Steppers.o
                                  0x8 (size before relaxing)
 .ARM.exidx.text._ZN8steppers4AxisC2ER16StepperInterface
                0x0002bd78        0x0 build\Steppers.o
                                  0x8 (size before relaxing)
 .ARM.exidx.text._ZN8steppers4Axis9setTargetElb
                0x0002bd78        0x8 build\Steppers.o
 .ARM.exidx.text._ZN8steppers4Axis9setHomingEb
                0x0002bd80        0x8 build\Steppers.o
 .ARM.exidx.text._ZN8steppers4Axis14definePositionEl
                0x0002bd88        0x8 build\Steppers.o
 .ARM.exidx.text._ZN8steppers4Axis13enableStepperEb
                0x0002bd90        0x8 build\Steppers.o
 .ARM.exidx.text._ZN8steppers4Axis5resetEv
                0x0002bd98        0x8 build\Steppers.o
 .ARM.exidx.text._ZN8steppers4Axis11doInterruptEl
                0x0002bda0        0x8 build\Steppers.o
 .ARM.exidx.text._ZN8steppers4Axis8doHomingEl
                0x0002bda8        0x8 build\Steppers.o
 .ARM.exidx     0x0002bd40       0x38 build\Steppers.o
                                 0x68 (size before relaxing)
 .ARM.exidx     0x0002bdb0       0x20 build\Timeout.o
 .ARM.exidx     0x0002bdd0       0x30 build\Tool.o
                                 0x50 (size before relaxing)
 .ARM.exidx     0x0002be00       0x30 build\UART.o
                                 0x48 (size before relaxing)
 .ARM.exidx.text._Z6listenv
                0x0002be30        0x8 build\UART.o
 .ARM.exidx.text._Z5speakv
                0x0002be38        0x8 build\UART.o
 .ARM.exidx.text._ZNK10__cxxabiv120__si_class_type_info11__do_upcastEPKNS_17__class_type_infoEPKvRNS1_15__upcast_resultE
                0x0002be40        0x8 c:/progra~2/codesourcery/source~1/bin/../lib/gcc/arm-none-eabi/4.5.2/../../../../arm-none-eabi/lib/thumb2\libstdc++.a(si_class_type_info.o)
 .ARM.exidx.text._ZNK10__cxxabiv120__si_class_type_info12__do_dyncastEiNS_17__class_type_info10__sub_kindEPKS1_PKvS4_S6_RNS1_16__dyncast_resultE
                0x0002be48        0x8 c:/progra~2/codesourcery/source~1/bin/../lib/gcc/arm-none-eabi/4.5.2/../../../../arm-none-eabi/lib/thumb2\libstdc++.a(si_class_type_info.o)
 .ARM.exidx.text._ZNK10__cxxabiv120__si_class_type_info20__do_find_public_srcEiPKvPKNS_17__class_type_infoES2_
                0x0002be50        0x8 c:/progra~2/codesourcery/source~1/bin/../lib/gcc/arm-none-eabi/4.5.2/../../../../arm-none-eabi/lib/thumb2\libstdc++.a(si_class_type_info.o)
 .ARM.exidx.text._ZN10__cxxabiv120__si_class_type_infoD2Ev
                0x0002be58        0x8 c:/progra~2/codesourcery/source~1/bin/../lib/gcc/arm-none-eabi/4.5.2/../../../../arm-none-eabi/lib/thumb2\libstdc++.a(si_class_type_info.o)
 .ARM.exidx.text._ZN10__cxxabiv120__si_class_type_infoD0Ev
                0x0002be60        0x0 c:/progra~2/codesourcery/source~1/bin/../lib/gcc/arm-none-eabi/4.5.2/../../../../arm-none-eabi/lib/thumb2\libstdc++.a(si_class_type_info.o)
                                  0x8 (size before relaxing)
 .ARM.exidx.text._ZdlPv
                0x0002be60        0x8 c:/progra~2/codesourcery/source~1/bin/../lib/gcc/arm-none-eabi/4.5.2/../../../../arm-none-eabi/lib/thumb2\libstdc++.a(del_op.o)
 .ARM.exidx.text.__cxa_pure_virtual
                0x0002be68        0x8 c:/progra~2/codesourcery/source~1/bin/../lib/gcc/arm-none-eabi/4.5.2/../../../../arm-none-eabi/lib/thumb2\libstdc++.a(pure.o)
 .ARM.exidx.text._ZNK10__cxxabiv117__class_type_info11__do_upcastEPKS0_PPv
                0x0002be70        0x8 c:/progra~2/codesourcery/source~1/bin/../lib/gcc/arm-none-eabi/4.5.2/../../../../arm-none-eabi/lib/thumb2\libstdc++.a(class_type_info.o)
 .ARM.exidx.text._ZNK10__cxxabiv117__class_type_info20__do_find_public_srcEiPKvPKS0_S2_
                0x0002be78        0x8 c:/progra~2/codesourcery/source~1/bin/../lib/gcc/arm-none-eabi/4.5.2/../../../../arm-none-eabi/lib/thumb2\libstdc++.a(class_type_info.o)
 .ARM.exidx.text._ZNK10__cxxabiv117__class_type_info11__do_upcastEPKS0_PKvRNS0_15__upcast_resultE
                0x0002be80        0x8 c:/progra~2/codesourcery/source~1/bin/../lib/gcc/arm-none-eabi/4.5.2/../../../../arm-none-eabi/lib/thumb2\libstdc++.a(class_type_info.o)
 .ARM.exidx.text._ZNK10__cxxabiv117__class_type_info12__do_dyncastEiNS0_10__sub_kindEPKS0_PKvS3_S5_RNS0_16__dyncast_resultE
                0x0002be88        0x8 c:/progra~2/codesourcery/source~1/bin/../lib/gcc/arm-none-eabi/4.5.2/../../../../arm-none-eabi/lib/thumb2\libstdc++.a(class_type_info.o)
 .ARM.exidx.text._ZNK10__cxxabiv117__class_type_info10__do_catchEPKSt9type_infoPPvj
                0x0002be90        0x8 c:/progra~2/codesourcery/source~1/bin/../lib/gcc/arm-none-eabi/4.5.2/../../../../arm-none-eabi/lib/thumb2\libstdc++.a(class_type_info.o)
 .ARM.exidx.text._ZN10__cxxabiv117__class_type_infoD2Ev
                0x0002be98        0x8 c:/progra~2/codesourcery/source~1/bin/../lib/gcc/arm-none-eabi/4.5.2/../../../../arm-none-eabi/lib/thumb2\libstdc++.a(class_type_info.o)
 .ARM.exidx.text._ZN10__cxxabiv117__class_type_infoD0Ev
                0x0002bea0        0x0 c:/progra~2/codesourcery/source~1/bin/../lib/gcc/arm-none-eabi/4.5.2/../../../../arm-none-eabi/lib/thumb2\libstdc++.a(class_type_info.o)
                                  0x8 (size before relaxing)
 .ARM.exidx.text._ZNSt9type_infoD2Ev
                0x0002bea0        0x8 c:/progra~2/codesourcery/source~1/bin/../lib/gcc/arm-none-eabi/4.5.2/../../../../arm-none-eabi/lib/thumb2\libstdc++.a(tinfo.o)
 .ARM.exidx.text._ZNKSt9type_info14__is_pointer_pEv
                0x0002bea8        0x0 c:/progra~2/codesourcery/source~1/bin/../lib/gcc/arm-none-eabi/4.5.2/../../../../arm-none-eabi/lib/thumb2\libstdc++.a(tinfo.o)
                                  0x8 (size before relaxing)
 .ARM.exidx.text._ZNKSt9type_info15__is_function_pEv
                0x0002bea8        0x0 c:/progra~2/codesourcery/source~1/bin/../lib/gcc/arm-none-eabi/4.5.2/../../../../arm-none-eabi/lib/thumb2\libstdc++.a(tinfo.o)
                                  0x8 (size before relaxing)
 .ARM.exidx.text._ZNKSt9type_info11__do_upcastEPKN10__cxxabiv117__class_type_infoEPPv
                0x0002bea8        0x0 c:/progra~2/codesourcery/source~1/bin/../lib/gcc/arm-none-eabi/4.5.2/../../../../arm-none-eabi/lib/thumb2\libstdc++.a(tinfo.o)
                                  0x8 (size before relaxing)
 .ARM.exidx.text._ZNSt9type_infoD0Ev
                0x0002bea8        0x0 c:/progra~2/codesourcery/source~1/bin/../lib/gcc/arm-none-eabi/4.5.2/../../../../arm-none-eabi/lib/thumb2\libstdc++.a(tinfo.o)
                                  0x8 (size before relaxing)
 .ARM.exidx.text._ZNKSt9type_infoeqERKS_
                0x0002bea8        0x0 c:/progra~2/codesourcery/source~1/bin/../lib/gcc/arm-none-eabi/4.5.2/../../../../arm-none-eabi/lib/thumb2\libstdc++.a(tinfo.o)
                                  0x8 (size before relaxing)
 .ARM.exidx.text._ZNKSt9type_info10__do_catchEPKS_PPvj
                0x0002bea8        0x0 c:/progra~2/codesourcery/source~1/bin/../lib/gcc/arm-none-eabi/4.5.2/../../../../arm-none-eabi/lib/thumb2\libstdc++.a(tinfo.o)
                                  0x8 (size before relaxing)
 .ARM.exidx.text._ZN10__cxxabiv111__terminateEPFvvE
                0x0002bea8        0x8 c:/progra~2/codesourcery/source~1/bin/../lib/gcc/arm-none-eabi/4.5.2/../../../../arm-none-eabi/lib/thumb2\libstdc++.a(eh_terminate.o)
 .ARM.exidx.text._ZSt9terminatev
                0x0002beb0        0x8 c:/progra~2/codesourcery/source~1/bin/../lib/gcc/arm-none-eabi/4.5.2/../../../../arm-none-eabi/lib/thumb2\libstdc++.a(eh_terminate.o)
 .ARM.exidx.text._ZN10__cxxabiv112__unexpectedEPFvvE
                0x0002beb8        0x8 c:/progra~2/codesourcery/source~1/bin/../lib/gcc/arm-none-eabi/4.5.2/../../../../arm-none-eabi/lib/thumb2\libstdc++.a(eh_terminate.o)
 .ARM.exidx.text._ZSt10unexpectedv
                0x0002bec0        0x8 c:/progra~2/codesourcery/source~1/bin/../lib/gcc/arm-none-eabi/4.5.2/../../../../arm-none-eabi/lib/thumb2\libstdc++.a(eh_terminate.o)
 .ARM.exidx.text._ZSt13set_terminatePFvvE
                0x0002bec8        0x8 c:/progra~2/codesourcery/source~1/bin/../lib/gcc/arm-none-eabi/4.5.2/../../../../arm-none-eabi/lib/thumb2\libstdc++.a(eh_terminate.o)
 .ARM.exidx.text._ZSt14set_unexpectedPFvvE
                0x0002bed0        0x0 c:/progra~2/codesourcery/source~1/bin/../lib/gcc/arm-none-eabi/4.5.2/../../../../arm-none-eabi/lib/thumb2\libstdc++.a(eh_terminate.o)
                                  0x8 (size before relaxing)
 .ARM.exidx.text.__cxa_call_terminate
                0x0002bed0        0x0 c:/progra~2/codesourcery/source~1/bin/../lib/gcc/arm-none-eabi/4.5.2/../../../../arm-none-eabi/lib/thumb2\libstdc++.a(eh_call.o)
                                  0x8 (size before relaxing)
 .ARM.exidx.text.__cxa_call_unexpected
                0x0002bed0        0x8 c:/progra~2/codesourcery/source~1/bin/../lib/gcc/arm-none-eabi/4.5.2/../../../../arm-none-eabi/lib/thumb2\libstdc++.a(eh_call.o)
 .ARM.exidx.text._ZL12read_sleb128PKhPl
                0x0002bed8        0x8 c:/progra~2/codesourcery/source~1/bin/../lib/gcc/arm-none-eabi/4.5.2/../../../../arm-none-eabi/lib/thumb2\libstdc++.a(eh_personality.o)
 .ARM.exidx.text._ZL28read_encoded_value_with_basehjPKhPj
                0x0002bee0        0x8 c:/progra~2/codesourcery/source~1/bin/../lib/gcc/arm-none-eabi/4.5.2/../../../../arm-none-eabi/lib/thumb2\libstdc++.a(eh_personality.o)
 .ARM.exidx.text._ZL21base_of_encoded_valuehP15_Unwind_Context
                0x0002bee8        0x8 c:/progra~2/codesourcery/source~1/bin/../lib/gcc/arm-none-eabi/4.5.2/../../../../arm-none-eabi/lib/thumb2\libstdc++.a(eh_personality.o)
 .ARM.exidx.text._ZL17parse_lsda_headerP15_Unwind_ContextPKhP16lsda_header_info
                0x0002bef0        0x8 c:/progra~2/codesourcery/source~1/bin/../lib/gcc/arm-none-eabi/4.5.2/../../../../arm-none-eabi/lib/thumb2\libstdc++.a(eh_personality.o)
 .ARM.exidx.text.__gxx_personality_v0
                0x0002bef8        0x8 c:/progra~2/codesourcery/source~1/bin/../lib/gcc/arm-none-eabi/4.5.2/../../../../arm-none-eabi/lib/thumb2\libstdc++.a(eh_personality.o)
 .ARM.exidx.text._ZL23__gxx_exception_cleanup19_Unwind_Reason_CodeP21_Unwind_Control_Block
                0x0002bf00        0x8 c:/progra~2/codesourcery/source~1/bin/../lib/gcc/arm-none-eabi/4.5.2/../../../../arm-none-eabi/lib/thumb2\libstdc++.a(eh_throw.o)
 .ARM.exidx.text.__cxa_throw
                0x0002bf08        0x8 c:/progra~2/codesourcery/source~1/bin/../lib/gcc/arm-none-eabi/4.5.2/../../../../arm-none-eabi/lib/thumb2\libstdc++.a(eh_throw.o)
 .ARM.exidx.text.__cxa_rethrow
                0x0002bf10        0x8 c:/progra~2/codesourcery/source~1/bin/../lib/gcc/arm-none-eabi/4.5.2/../../../../arm-none-eabi/lib/thumb2\libstdc++.a(eh_throw.o)
 .ARM.exidx.text.__cxa_get_globals_fast
                0x0002bf18        0x8 c:/progra~2/codesourcery/source~1/bin/../lib/gcc/arm-none-eabi/4.5.2/../../../../arm-none-eabi/lib/thumb2\libstdc++.a(eh_globals.o)
 .ARM.exidx.text.__cxa_get_globals
                0x0002bf20        0x0 c:/progra~2/codesourcery/source~1/bin/../lib/gcc/arm-none-eabi/4.5.2/../../../../arm-none-eabi/lib/thumb2\libstdc++.a(eh_globals.o)
                                  0x8 (size before relaxing)
 .ARM.exidx.text.__cxa_get_exception_ptr
                0x0002bf20        0x0 c:/progra~2/codesourcery/source~1/bin/../lib/gcc/arm-none-eabi/4.5.2/../../../../arm-none-eabi/lib/thumb2\libstdc++.a(eh_catch.o)
                                  0x8 (size before relaxing)
 .ARM.exidx.text.__cxa_begin_catch
                0x0002bf20        0x8 c:/progra~2/codesourcery/source~1/bin/../lib/gcc/arm-none-eabi/4.5.2/../../../../arm-none-eabi/lib/thumb2\libstdc++.a(eh_catch.o)
 .ARM.exidx.text.__cxa_end_catch
                0x0002bf28        0x8 c:/progra~2/codesourcery/source~1/bin/../lib/gcc/arm-none-eabi/4.5.2/../../../../arm-none-eabi/lib/thumb2\libstdc++.a(eh_catch.o)
 .ARM.exidx.text._ZSt18uncaught_exceptionv
                0x0002bf30        0x0 c:/progra~2/codesourcery/source~1/bin/../lib/gcc/arm-none-eabi/4.5.2/../../../../arm-none-eabi/lib/thumb2\libstdc++.a(eh_catch.o)
                                  0x8 (size before relaxing)
 .ARM.exidx.text._ZN9__gnu_cxx27__verbose_terminate_handlerEv
                0x0002bf30        0x8 c:/progra~2/codesourcery/source~1/bin/../lib/gcc/arm-none-eabi/4.5.2/../../../../arm-none-eabi/lib/thumb2\libstdc++.a(vterminate.o)
 .ARM.exidx.text._ZNSt9exceptionD2Ev
                0x0002bf38        0x8 c:/progra~2/codesourcery/source~1/bin/../lib/gcc/arm-none-eabi/4.5.2/../../../../arm-none-eabi/lib/thumb2\libstdc++.a(eh_exception.o)
 .ARM.exidx.text._ZNSt13bad_exceptionD2Ev
                0x0002bf40        0x0 c:/progra~2/codesourcery/source~1/bin/../lib/gcc/arm-none-eabi/4.5.2/../../../../arm-none-eabi/lib/thumb2\libstdc++.a(eh_exception.o)
                                  0x8 (size before relaxing)
 .ARM.exidx.text._ZN10__cxxabiv115__forced_unwindD2Ev
                0x0002bf40        0x0 c:/progra~2/codesourcery/source~1/bin/../lib/gcc/arm-none-eabi/4.5.2/../../../../arm-none-eabi/lib/thumb2\libstdc++.a(eh_exception.o)
                                  0x8 (size before relaxing)
 .ARM.exidx.text._ZN10__cxxabiv119__foreign_exceptionD2Ev
                0x0002bf40        0x0 c:/progra~2/codesourcery/source~1/bin/../lib/gcc/arm-none-eabi/4.5.2/../../../../arm-none-eabi/lib/thumb2\libstdc++.a(eh_exception.o)
                                  0x8 (size before relaxing)
 .ARM.exidx.text._ZNKSt9exception4whatEv
                0x0002bf40        0x0 c:/progra~2/codesourcery/source~1/bin/../lib/gcc/arm-none-eabi/4.5.2/../../../../arm-none-eabi/lib/thumb2\libstdc++.a(eh_exception.o)
                                  0x8 (size before relaxing)
 .ARM.exidx.text._ZNKSt13bad_exception4whatEv
                0x0002bf40        0x0 c:/progra~2/codesourcery/source~1/bin/../lib/gcc/arm-none-eabi/4.5.2/../../../../arm-none-eabi/lib/thumb2\libstdc++.a(eh_exception.o)
                                  0x8 (size before relaxing)
 .ARM.exidx.text._ZN10__cxxabiv119__foreign_exceptionD0Ev
                0x0002bf40        0x0 c:/progra~2/codesourcery/source~1/bin/../lib/gcc/arm-none-eabi/4.5.2/../../../../arm-none-eabi/lib/thumb2\libstdc++.a(eh_exception.o)
                                  0x8 (size before relaxing)
 .ARM.exidx.text._ZN10__cxxabiv115__forced_unwindD0Ev
                0x0002bf40        0x0 c:/progra~2/codesourcery/source~1/bin/../lib/gcc/arm-none-eabi/4.5.2/../../../../arm-none-eabi/lib/thumb2\libstdc++.a(eh_exception.o)
                                  0x8 (size before relaxing)
 .ARM.exidx.text._ZNSt13bad_exceptionD0Ev
                0x0002bf40        0x0 c:/progra~2/codesourcery/source~1/bin/../lib/gcc/arm-none-eabi/4.5.2/../../../../arm-none-eabi/lib/thumb2\libstdc++.a(eh_exception.o)
                                  0x8 (size before relaxing)
 .ARM.exidx.text._ZNSt9exceptionD0Ev
                0x0002bf40        0x0 c:/progra~2/codesourcery/source~1/bin/../lib/gcc/arm-none-eabi/4.5.2/../../../../arm-none-eabi/lib/thumb2\libstdc++.a(eh_exception.o)
                                  0x8 (size before relaxing)
 .ARM.exidx.text.__cxa_current_exception_type
                0x0002bf40        0x0 c:/progra~2/codesourcery/source~1/bin/../lib/gcc/arm-none-eabi/4.5.2/../../../../arm-none-eabi/lib/thumb2\libstdc++.a(eh_type.o)
                                  0x8 (size before relaxing)
 .ARM.exidx.text.__cxa_type_match
                0x0002bf40        0x8 c:/progra~2/codesourcery/source~1/bin/../lib/gcc/arm-none-eabi/4.5.2/../../../../arm-none-eabi/lib/thumb2\libstdc++.a(eh_arm.o)
 .ARM.exidx.text.__cxa_begin_cleanup
                0x0002bf48        0x8 c:/progra~2/codesourcery/source~1/bin/../lib/gcc/arm-none-eabi/4.5.2/../../../../arm-none-eabi/lib/thumb2\libstdc++.a(eh_arm.o)
 .ARM.exidx.text.__gnu_end_cleanup
                0x0002bf50        0x0 c:/progra~2/codesourcery/source~1/bin/../lib/gcc/arm-none-eabi/4.5.2/../../../../arm-none-eabi/lib/thumb2\libstdc++.a(eh_arm.o)
                                  0x8 (size before relaxing)
 .ARM.exidx.text.__cxa_allocate_exception
                0x0002bf50        0x0 c:/progra~2/codesourcery/source~1/bin/../lib/gcc/arm-none-eabi/4.5.2/../../../../arm-none-eabi/lib/thumb2\libstdc++.a(eh_alloc.o)
                                  0x8 (size before relaxing)
 .ARM.exidx.text.__cxa_free_exception
                0x0002bf50        0x0 c:/progra~2/codesourcery/source~1/bin/../lib/gcc/arm-none-eabi/4.5.2/../../../../arm-none-eabi/lib/thumb2\libstdc++.a(eh_alloc.o)
                                  0x8 (size before relaxing)
 .ARM.exidx.text.__cxa_allocate_dependent_exception
                0x0002bf50        0x0 c:/progra~2/codesourcery/source~1/bin/../lib/gcc/arm-none-eabi/4.5.2/../../../../arm-none-eabi/lib/thumb2\libstdc++.a(eh_alloc.o)
                                  0x8 (size before relaxing)
 .ARM.exidx.text.__cxa_free_dependent_exception
                0x0002bf50        0x0 c:/progra~2/codesourcery/source~1/bin/../lib/gcc/arm-none-eabi/4.5.2/../../../../arm-none-eabi/lib/thumb2\libstdc++.a(eh_alloc.o)
                                  0x8 (size before relaxing)
 .ARM.exidx.text._GLOBAL__I___cxa_allocate_exception
                0x0002bf50        0x0 c:/progra~2/codesourcery/source~1/bin/../lib/gcc/arm-none-eabi/4.5.2/../../../../arm-none-eabi/lib/thumb2\libstdc++.a(eh_alloc.o)
                                  0x8 (size before relaxing)
 .ARM.exidx     0x0002bf50       0x80 c:/progra~2/codesourcery/source~1/bin/../lib/gcc/arm-none-eabi/4.5.2/thumb2\libgcc.a(unwind-arm.o)
                                 0xc0 (size before relaxing)
 .ARM.exidx     0x0002bfd0       0x38 c:/progra~2/codesourcery/source~1/bin/../lib/gcc/arm-none-eabi/4.5.2/thumb2\libgcc.a(pr-support.o)
                                 0x48 (size before relaxing)
 .ARM.exidx     0x0002c008        0x0 c:/progra~2/codesourcery/source~1/bin/../lib/gcc/arm-none-eabi/4.5.2/thumb2\libgcc.a(_divdi3.o)
                                  0x8 (size before relaxing)
 .ARM.exidx     0x0002c008        0x0 c:/progra~2/codesourcery/source~1/bin/../lib/gcc/arm-none-eabi/4.5.2/thumb2\libgcc.a(_udivdi3.o)
                                  0x8 (size before relaxing)
                0x0002c008                __exidx_end = .

.text.align     0x0002c008        0x0
                0x0002c008                . = ALIGN (0x8)
                0x0002c008                _etext = .
                0x00080000                __cs3_region_size_rom = 0x80000
                0x00000001                __cs3_region_num = 0x1

.data           0x10000000      0x5e0 load address 0x0002c008
                0x10000000                __cs3_region_start_ram = .
 *(.cs3.region-head.ram)
 *(.jcr)
 *(.got.plt)
 *(.got)
 *(.shdata)
 *(.data .data.* .gnu.linkonce.d.*)
 .data          0x10000000        0x0 build\lib_sd\byteordering.o
 .data          0x10000000        0x0 build\lib_sd\fat.o
 .data          0x10000000        0x0 build\lib_sd\partition.o
 .data          0x10000000        0x0 build\lib_sd\sd_raw.o
 .data          0x10000000        0x0 build\lib\source\debug_frmwrk.o
 .data          0x10000000        0x0 build\lib\source\lpc17xx_adc.o
 .data          0x10000000        0x0 build\lib\source\lpc17xx_clkpwr.o
 .data          0x10000000        0x0 build\lib\source\lpc17xx_dac.o
 .data          0x10000000        0x0 build\lib\source\lpc17xx_exti.o
 .data          0x10000000       0x20 build\lib\source\lpc17xx_gpdma.o
                0x10000000                pGPDMACh
 .data          0x10000020        0x0 build\lib\source\lpc17xx_gpio.o
 .data          0x10000020        0x0 build\lib\source\lpc17xx_i2c.o
 .data          0x10000020        0x0 build\lib\source\lpc17xx_i2s.o
 .data          0x10000020        0x0 build\lib\source\lpc17xx_libcfg_default.o
 .data          0x10000020        0x0 build\lib\source\lpc17xx_mcpwm.o
 .data          0x10000020        0x0 build\lib\source\lpc17xx_nvic.o
 .data          0x10000020        0x0 build\lib\source\lpc17xx_pinsel.o
 .data          0x10000020        0x0 build\lib\source\lpc17xx_pwm.o
 .data          0x10000020        0x0 build\lib\source\lpc17xx_qei.o
 .data          0x10000020        0x0 build\lib\source\lpc17xx_rit.o
 .data          0x10000020        0x0 build\lib\source\lpc17xx_spi.o
 .data          0x10000020        0x0 build\lib\source\lpc17xx_systick.o
 .data          0x10000020        0x0 build\lib\source\lpc17xx_timer.o
 .data          0x10000020        0x0 build\lib\source\lpc17xx_uart.o
 .data          0x10000020        0x0 build\lib\source\lpc17xx_wdt.o
 .data          0x10000020        0x0 build\system\core_cm3.o
 .data          0x10000020       0x14 build\system\system_LPC17xx.o
                0x10000020                devoptab_list
                0x10000030                SystemCoreClock
 .data          0x10000034        0x0 build\system\startup_LPC17xx.o
 .data          0x10000034        0xc build\USBCDC\cdcuser.o
                0x10000034                CDC_LineCoding
                0x1000003c                CDC_DepInEmpty
 .data          0x10000040        0x0 build\USBCDC\serial.o
 .data          0x10000040        0x0 build\USBCDC\usbcore.o
 .data          0x10000040        0x0 build\USBCDC\usbdesc.o
 .data          0x10000040        0x0 build\USBCDC\usbhw.o
 .data          0x10000040        0x0 build\USBCDC\usbuser.o
 .data          0x10000040        0x0 build\USBCDC\vcomdemo.o
 .data          0x10000040        0x0 src\shared\PID.o
 .data          0x10000040        0x0 src\shared\Packet.o
 .data          0x10000040        0x4 build\Command.o
                0x10000040                eeprom::EEPROM_SIZE
                0x10000042                eeprom::VERSION_HIGH
 .data          0x10000044        0x0 build\DebugPacketProcessor.o
 .data          0x10000044        0x4 build\EepromMap.o
 .data          0x10000048        0x6 build\Host.o
                0x1000004c                host::do_host_reset
 .data          0x1000004e        0x0 build\Interface.o
 .data          0x1000004e        0x0 build\InterfaceBoard.o
 .data          0x1000004e        0x0 build\LPCPort.o
 .data          0x1000004e        0x0 build\LiquidCrystal.o
 .data          0x1000004e        0x4 build\Main.o
 .data          0x10000052        0x0 build\Menu.o
 .data          0x10000052        0x0 build\Motherboard.o
 .data          0x10000052        0x0 build\PID.o
 .data          0x10000052        0x0 build\PSU.o
 .data          0x10000052        0x0 build\Packet.o
 .data          0x10000052        0x0 build\SDCard.o
 .data          0x10000052        0x4 build\StepperInterface.o
 .data          0x10000056        0x0 build\Steppers.o
 .data          0x10000056        0x0 build\Timeout.o
 .data          0x10000056        0x1 build\Tool.o
                0x10000056                tool::retries
 .data          0x10000057        0x0 build\UART.o
 .data          0x10000057        0x0 c:/progra~2/codesourcery/source~1/bin/../lib/gcc/arm-none-eabi/4.5.2/../../../../arm-none-eabi/lib/thumb2\libstdc++.a(si_class_type_info.o)
 .data          0x10000057        0x0 c:/progra~2/codesourcery/source~1/bin/../lib/gcc/arm-none-eabi/4.5.2/../../../../arm-none-eabi/lib/thumb2\libstdc++.a(del_op.o)
 .data          0x10000057        0x0 c:/progra~2/codesourcery/source~1/bin/../lib/gcc/arm-none-eabi/4.5.2/../../../../arm-none-eabi/lib/thumb2\libstdc++.a(pure.o)
 .data          0x10000057        0x0 c:/progra~2/codesourcery/source~1/bin/../lib/gcc/arm-none-eabi/4.5.2/../../../../arm-none-eabi/lib/thumb2\libstdc++.a(class_type_info.o)
 .data          0x10000057        0x0 c:/progra~2/codesourcery/source~1/bin/../lib/gcc/arm-none-eabi/4.5.2/../../../../arm-none-eabi/lib/thumb2\libstdc++.a(tinfo.o)
 .data          0x10000057        0x0 c:/progra~2/codesourcery/source~1/bin/../lib/gcc/arm-none-eabi/4.5.2/../../../../arm-none-eabi/lib/thumb2\libstdc++.a(eh_terminate.o)
 .data          0x10000057        0x0 c:/progra~2/codesourcery/source~1/bin/../lib/gcc/arm-none-eabi/4.5.2/../../../../arm-none-eabi/lib/thumb2\libstdc++.a(eh_call.o)
 .data          0x10000057        0x0 c:/progra~2/codesourcery/source~1/bin/../lib/gcc/arm-none-eabi/4.5.2/../../../../arm-none-eabi/lib/thumb2\libstdc++.a(eh_term_handler.o)
 *fill*         0x10000057        0x1 00
 .data._ZN10__cxxabiv119__terminate_handlerE
                0x10000058        0x4 c:/progra~2/codesourcery/source~1/bin/../lib/gcc/arm-none-eabi/4.5.2/../../../../arm-none-eabi/lib/thumb2\libstdc++.a(eh_term_handler.o)
                0x10000058                __cxxabiv1::__terminate_handler
 .data          0x1000005c        0x0 c:/progra~2/codesourcery/source~1/bin/../lib/gcc/arm-none-eabi/4.5.2/../../../../arm-none-eabi/lib/thumb2\libstdc++.a(eh_personality.o)
 .data          0x1000005c        0x0 c:/progra~2/codesourcery/source~1/bin/../lib/gcc/arm-none-eabi/4.5.2/../../../../arm-none-eabi/lib/thumb2\libstdc++.a(eh_throw.o)
 .data          0x1000005c        0x0 c:/progra~2/codesourcery/source~1/bin/../lib/gcc/arm-none-eabi/4.5.2/../../../../arm-none-eabi/lib/thumb2\libstdc++.a(eh_unex_handler.o)
 .data._ZN10__cxxabiv120__unexpected_handlerE
                0x1000005c        0x4 c:/progra~2/codesourcery/source~1/bin/../lib/gcc/arm-none-eabi/4.5.2/../../../../arm-none-eabi/lib/thumb2\libstdc++.a(eh_unex_handler.o)
                0x1000005c                __cxxabiv1::__unexpected_handler
 .data          0x10000060        0x0 c:/progra~2/codesourcery/source~1/bin/../lib/gcc/arm-none-eabi/4.5.2/../../../../arm-none-eabi/lib/thumb2\libstdc++.a(eh_globals.o)
 .data          0x10000060        0x0 c:/progra~2/codesourcery/source~1/bin/../lib/gcc/arm-none-eabi/4.5.2/../../../../arm-none-eabi/lib/thumb2\libstdc++.a(eh_catch.o)
 .data          0x10000060        0x0 c:/progra~2/codesourcery/source~1/bin/../lib/gcc/arm-none-eabi/4.5.2/../../../../arm-none-eabi/lib/thumb2\libstdc++.a(vterminate.o)
 .data          0x10000060        0x0 c:/progra~2/codesourcery/source~1/bin/../lib/gcc/arm-none-eabi/4.5.2/../../../../arm-none-eabi/lib/thumb2\libstdc++.a(eh_exception.o)
 .data          0x10000060        0x0 c:/progra~2/codesourcery/source~1/bin/../lib/gcc/arm-none-eabi/4.5.2/../../../../arm-none-eabi/lib/thumb2\libstdc++.a(eh_type.o)
 .data          0x10000060        0x0 c:/progra~2/codesourcery/source~1/bin/../lib/gcc/arm-none-eabi/4.5.2/../../../../arm-none-eabi/lib/thumb2\libstdc++.a(eh_arm.o)
 .data          0x10000060        0x0 c:/progra~2/codesourcery/source~1/bin/../lib/gcc/arm-none-eabi/4.5.2/../../../../arm-none-eabi/lib/thumb2\libstdc++.a(eh_alloc.o)
 .data          0x10000060        0x0 c:/progra~2/codesourcery/source~1/bin/../lib/gcc/arm-none-eabi/4.5.2/../../../../arm-none-eabi/lib/thumb2\libstdc++.a(cp-demangle.o)
 .data          0x10000060        0x0 c:/progra~2/codesourcery/source~1/bin/../lib/gcc/arm-none-eabi/4.5.2/thumb2\libgcc.a(_arm_addsubsf3.o)
 .data          0x10000060        0x0 c:/progra~2/codesourcery/source~1/bin/../lib/gcc/arm-none-eabi/4.5.2/thumb2\libgcc.a(_arm_muldivsf3.o)
 .data          0x10000060        0x0 c:/progra~2/codesourcery/source~1/bin/../lib/gcc/arm-none-eabi/4.5.2/thumb2\libgcc.a(_arm_cmpsf2.o)
 .data          0x10000060        0x0 c:/progra~2/codesourcery/source~1/bin/../lib/gcc/arm-none-eabi/4.5.2/thumb2\libgcc.a(_arm_fixsfsi.o)
 .data          0x10000060        0x0 c:/progra~2/codesourcery/source~1/bin/../lib/gcc/arm-none-eabi/4.5.2/thumb2\libgcc.a(_aeabi_uldivmod.o)
 .data          0x10000060        0x0 c:/progra~2/codesourcery/source~1/bin/../lib/gcc/arm-none-eabi/4.5.2/thumb2\libgcc.a(bpabi.o)
 .data          0x10000060        0x0 c:/progra~2/codesourcery/source~1/bin/../lib/gcc/arm-none-eabi/4.5.2/thumb2\libgcc.a(unwind-arm.o)
 .data          0x10000060        0x0 c:/progra~2/codesourcery/source~1/bin/../lib/gcc/arm-none-eabi/4.5.2/thumb2\libgcc.a(libunwind.o)
 .data          0x10000060        0x0 c:/progra~2/codesourcery/source~1/bin/../lib/gcc/arm-none-eabi/4.5.2/thumb2\libgcc.a(pr-support.o)
 .data          0x10000060        0x0 c:/progra~2/codesourcery/source~1/bin/../lib/gcc/arm-none-eabi/4.5.2/thumb2\libgcc.a(_dvmd_tls.o)
 .data          0x10000060        0x0 c:/progra~2/codesourcery/source~1/bin/../lib/gcc/arm-none-eabi/4.5.2/thumb2\libgcc.a(_divdi3.o)
 .data          0x10000060        0x0 c:/progra~2/codesourcery/source~1/bin/../lib/gcc/arm-none-eabi/4.5.2/thumb2\libgcc.a(_udivdi3.o)
 .data          0x10000060        0x0 c:/progra~2/codesourcery/source~1/bin/../lib/gcc/arm-none-eabi/4.5.2/thumb2\libgcc.a(_udivsi3.o)
 .data          0x10000060        0x0 c:/progra~2/codesourcery/source~1/bin/../lib/gcc/arm-none-eabi/4.5.2/../../../../arm-none-eabi/lib/thumb2\libc.a(lib_a-abort.o)
 .data          0x10000060        0x0 c:/progra~2/codesourcery/source~1/bin/../lib/gcc/arm-none-eabi/4.5.2/../../../../arm-none-eabi/lib/thumb2\libc.a(lib_a-fputc.o)
 .data          0x10000060        0x0 c:/progra~2/codesourcery/source~1/bin/../lib/gcc/arm-none-eabi/4.5.2/../../../../arm-none-eabi/lib/thumb2\libc.a(lib_a-fputs.o)
 .data          0x10000060        0x0 c:/progra~2/codesourcery/source~1/bin/../lib/gcc/arm-none-eabi/4.5.2/../../../../arm-none-eabi/lib/thumb2\libc.a(lib_a-fvwrite.o)
 .data          0x10000060        0x0 c:/progra~2/codesourcery/source~1/bin/../lib/gcc/arm-none-eabi/4.5.2/../../../../arm-none-eabi/lib/thumb2\libc.a(lib_a-fwrite.o)
 .data          0x10000060       0xf4 c:/progra~2/codesourcery/source~1/bin/../lib/gcc/arm-none-eabi/4.5.2/../../../../arm-none-eabi/lib/thumb2\libc.a(lib_a-impure.o)
                0x10000060                _impure_ptr
 .data          0x10000154        0x0 c:/progra~2/codesourcery/source~1/bin/../lib/gcc/arm-none-eabi/4.5.2/../../../../arm-none-eabi/lib/thumb2\libc.a(lib_a-malloc.o)
 .data          0x10000154      0x410 c:/progra~2/codesourcery/source~1/bin/../lib/gcc/arm-none-eabi/4.5.2/../../../../arm-none-eabi/lib/thumb2\libc.a(lib_a-mallocr.o)
                0x10000154                __malloc_av_
                0x1000055c                __malloc_sbrk_base
                0x10000560                __malloc_trim_threshold
 .data          0x10000564        0x0 c:/progra~2/codesourcery/source~1/bin/../lib/gcc/arm-none-eabi/4.5.2/../../../../arm-none-eabi/lib/thumb2\libc.a(lib_a-memchr.o)
 .data          0x10000564        0x0 c:/progra~2/codesourcery/source~1/bin/../lib/gcc/arm-none-eabi/4.5.2/../../../../arm-none-eabi/lib/thumb2\libc.a(lib_a-memcmp.o)
 .data          0x10000564        0x0 c:/progra~2/codesourcery/source~1/bin/../lib/gcc/arm-none-eabi/4.5.2/../../../../arm-none-eabi/lib/thumb2\libc.a(lib_a-memcpy.o)
 .data          0x10000564        0x0 c:/progra~2/codesourcery/source~1/bin/../lib/gcc/arm-none-eabi/4.5.2/../../../../arm-none-eabi/lib/thumb2\libc.a(lib_a-memmove.o)
 .data          0x10000564        0x0 c:/progra~2/codesourcery/source~1/bin/../lib/gcc/arm-none-eabi/4.5.2/../../../../arm-none-eabi/lib/thumb2\libc.a(lib_a-memset.o)
 .data          0x10000564        0x0 c:/progra~2/codesourcery/source~1/bin/../lib/gcc/arm-none-eabi/4.5.2/../../../../arm-none-eabi/lib/thumb2\libc.a(lib_a-mlock.o)
 .data          0x10000564        0x0 c:/progra~2/codesourcery/source~1/bin/../lib/gcc/arm-none-eabi/4.5.2/../../../../arm-none-eabi/lib/thumb2\libc.a(lib_a-putc.o)
 .data          0x10000564        0x0 c:/progra~2/codesourcery/source~1/bin/../lib/gcc/arm-none-eabi/4.5.2/../../../../arm-none-eabi/lib/thumb2\libc.a(lib_a-rand.o)
 .data          0x10000564        0x0 c:/progra~2/codesourcery/source~1/bin/../lib/gcc/arm-none-eabi/4.5.2/../../../../arm-none-eabi/lib/thumb2\libc.a(lib_a-realloc.o)
 .data          0x10000564        0x0 c:/progra~2/codesourcery/source~1/bin/../lib/gcc/arm-none-eabi/4.5.2/../../../../arm-none-eabi/lib/thumb2\libc.a(lib_a-reallocr.o)
 .data          0x10000564        0x0 c:/progra~2/codesourcery/source~1/bin/../lib/gcc/arm-none-eabi/4.5.2/../../../../arm-none-eabi/lib/thumb2\libc.a(lib_a-signal.o)
 .data          0x10000564        0x0 c:/progra~2/codesourcery/source~1/bin/../lib/gcc/arm-none-eabi/4.5.2/../../../../arm-none-eabi/lib/thumb2\libc.a(lib_a-signalr.o)
 .data          0x10000564        0x0 c:/progra~2/codesourcery/source~1/bin/../lib/gcc/arm-none-eabi/4.5.2/../../../../arm-none-eabi/lib/thumb2\libc.a(lib_a-sprintf.o)
 .data          0x10000564        0x0 c:/progra~2/codesourcery/source~1/bin/../lib/gcc/arm-none-eabi/4.5.2/../../../../arm-none-eabi/lib/thumb2\libc.a(lib_a-strchr.o)
 .data          0x10000564        0x0 c:/progra~2/codesourcery/source~1/bin/../lib/gcc/arm-none-eabi/4.5.2/../../../../arm-none-eabi/lib/thumb2\libc.a(lib_a-strcmp.o)
 .data          0x10000564        0x0 c:/progra~2/codesourcery/source~1/bin/../lib/gcc/arm-none-eabi/4.5.2/../../../../arm-none-eabi/lib/thumb2\libc.a(lib_a-strcpy.o)
 .data          0x10000564        0x0 c:/progra~2/codesourcery/source~1/bin/../lib/gcc/arm-none-eabi/4.5.2/../../../../arm-none-eabi/lib/thumb2\libc.a(lib_a-strlen.o)
 .data          0x10000564        0x0 c:/progra~2/codesourcery/source~1/bin/../lib/gcc/arm-none-eabi/4.5.2/../../../../arm-none-eabi/lib/thumb2\libc.a(lib_a-strncmp.o)
 .data          0x10000564        0x0 c:/progra~2/codesourcery/source~1/bin/../lib/gcc/arm-none-eabi/4.5.2/../../../../arm-none-eabi/lib/thumb2\libc.a(lib_a-strncpy.o)
 .data          0x10000564        0x0 c:/progra~2/codesourcery/source~1/bin/../lib/gcc/arm-none-eabi/4.5.2/../../../../arm-none-eabi/lib/thumb2\libc.a(lib_a-strrchr.o)
 .data          0x10000564        0x0 c:/progra~2/codesourcery/source~1/bin/../lib/gcc/arm-none-eabi/4.5.2/../../../../arm-none-eabi/lib/thumb2\libc.a(lib_a-svfprintf.o)
 .data          0x10000564        0x0 c:/progra~2/codesourcery/source~1/bin/../lib/gcc/arm-none-eabi/4.5.2/../../../../arm-none-eabi/lib/thumb2\libc.a(lib_a-syswrite.o)
 .data          0x10000564        0x0 c:/progra~2/codesourcery/source~1/bin/../lib/gcc/arm-none-eabi/4.5.2/../../../../arm-none-eabi/lib/thumb2\libc.a(lib_a-wbuf.o)
 .data          0x10000564        0x0 c:/progra~2/codesourcery/source~1/bin/../lib/gcc/arm-none-eabi/4.5.2/../../../../arm-none-eabi/lib/thumb2\libc.a(lib_a-wsetup.o)
 .data          0x10000564        0x0 c:/progra~2/codesourcery/source~1/bin/../lib/gcc/arm-none-eabi/4.5.2/../../../../arm-none-eabi/lib/thumb2\libc.a(lib_a-dtoa.o)
 .data          0x10000564        0x0 c:/progra~2/codesourcery/source~1/bin/../lib/gcc/arm-none-eabi/4.5.2/../../../../arm-none-eabi/lib/thumb2\libc.a(lib_a-fflush.o)
 .data          0x10000564        0x0 c:/progra~2/codesourcery/source~1/bin/../lib/gcc/arm-none-eabi/4.5.2/../../../../arm-none-eabi/lib/thumb2\libc.a(lib_a-findfp.o)
 .data          0x10000564        0x0 c:/progra~2/codesourcery/source~1/bin/../lib/gcc/arm-none-eabi/4.5.2/../../../../arm-none-eabi/lib/thumb2\libc.a(lib_a-freer.o)
 .data          0x10000564        0x0 c:/progra~2/codesourcery/source~1/bin/../lib/gcc/arm-none-eabi/4.5.2/../../../../arm-none-eabi/lib/thumb2\libc.a(lib_a-fwalk.o)
 .data          0x10000564       0x7c c:/progra~2/codesourcery/source~1/bin/../lib/gcc/arm-none-eabi/4.5.2/../../../../arm-none-eabi/lib/thumb2\libc.a(lib_a-locale.o)
                0x10000584                __mb_cur_max
 .data          0x100005e0        0x0 c:/progra~2/codesourcery/source~1/bin/../lib/gcc/arm-none-eabi/4.5.2/../../../../arm-none-eabi/lib/thumb2\libc.a(lib_a-makebuf.o)
 .data          0x100005e0        0x0 c:/progra~2/codesourcery/source~1/bin/../lib/gcc/arm-none-eabi/4.5.2/../../../../arm-none-eabi/lib/thumb2\libc.a(lib_a-mprec.o)
 .data          0x100005e0        0x0 c:/progra~2/codesourcery/source~1/bin/../lib/gcc/arm-none-eabi/4.5.2/../../../../arm-none-eabi/lib/thumb2\libc.a(lib_a-reent.o)
 .data          0x100005e0        0x0 c:/progra~2/codesourcery/source~1/bin/../lib/gcc/arm-none-eabi/4.5.2/../../../../arm-none-eabi/lib/thumb2\libc.a(lib_a-s_fpclassify.o)
 .data          0x100005e0        0x0 c:/progra~2/codesourcery/source~1/bin/../lib/gcc/arm-none-eabi/4.5.2/../../../../arm-none-eabi/lib/thumb2\libc.a(lib_a-stdio.o)
 .data          0x100005e0        0x0 c:/progra~2/codesourcery/source~1/bin/../lib/gcc/arm-none-eabi/4.5.2/../../../../arm-none-eabi/lib/thumb2\libc.a(lib_a-svfiprintf.o)
 .data          0x100005e0        0x0 c:/progra~2/codesourcery/source~1/bin/../lib/gcc/arm-none-eabi/4.5.2/../../../../arm-none-eabi/lib/thumb2\libc.a(lib_a-callocr.o)
 .data          0x100005e0        0x0 c:/progra~2/codesourcery/source~1/bin/../lib/gcc/arm-none-eabi/4.5.2/../../../../arm-none-eabi/lib/thumb2\libc.a(lib_a-fclose.o)
 .data          0x100005e0        0x0 c:/progra~2/codesourcery/source~1/bin/../lib/gcc/arm-none-eabi/4.5.2/../../../../arm-none-eabi/lib/thumb2\libc.a(lib_a-fstatr.o)
 .data          0x100005e0        0x0 c:/progra~2/codesourcery/source~1/bin/../lib/gcc/arm-none-eabi/4.5.2/../../../../arm-none-eabi/lib/thumb2\libc.a(lib_a-isattyr.o)
 .data          0x100005e0        0x0 c:/progra~2/codesourcery/source~1/bin/../lib/gcc/arm-none-eabi/4.5.2/../../../../arm-none-eabi/lib/thumb2\libc.a(lib_a-lseekr.o)
 .data          0x100005e0        0x0 c:/progra~2/codesourcery/source~1/bin/../lib/gcc/arm-none-eabi/4.5.2/thumb2\libgcc.a(_arm_addsubdf3.o)
 .data          0x100005e0        0x0 c:/progra~2/codesourcery/source~1/bin/../lib/gcc/arm-none-eabi/4.5.2/thumb2\libgcc.a(_arm_muldivdf3.o)
 .data          0x100005e0        0x0 c:/progra~2/codesourcery/source~1/bin/../lib/gcc/arm-none-eabi/4.5.2/thumb2\libgcc.a(_arm_cmpdf2.o)
 .data          0x100005e0        0x0 c:/progra~2/codesourcery/source~1/bin/../lib/gcc/arm-none-eabi/4.5.2/thumb2\libgcc.a(_arm_fixdfsi.o)
 *(.ram)
                0x100005e0                . = ALIGN (0x8)
                0x100005e0                _edata = .

.bss            0x100005e0     0x2580 load address 0x0002c5e8
 *(.shbss)
 *(.bss .bss.* .gnu.linkonce.b.*)
 .bss           0x100005e0        0x0 build\lib_sd\byteordering.o
 .bss           0x100005e0       0xc0 build\lib_sd\fat.o
 .bss           0x100006a0       0x1c build\lib_sd\partition.o
 .bss           0x100006bc      0x208 build\lib_sd\sd_raw.o
 .bss           0x100008c4       0x28 build\lib\source\debug_frmwrk.o
                0x100008c4                _db_msg
                0x100008c8                _db_msg_
                0x100008cc                _db_char
                0x100008d0                _db_dec
                0x100008d4                _db_dec_16
                0x100008d8                _db_dec_32
                0x100008dc                _db_hex
                0x100008e0                _db_hex_16
                0x100008e4                _db_hex_32
                0x100008e8                _db_get_char
 .bss           0x100008ec        0x0 build\lib\source\lpc17xx_adc.o
 .bss           0x100008ec        0x0 build\lib\source\lpc17xx_clkpwr.o
 .bss           0x100008ec        0x0 build\lib\source\lpc17xx_dac.o
 .bss           0x100008ec        0x0 build\lib\source\lpc17xx_exti.o
 .bss           0x100008ec        0x0 build\lib\source\lpc17xx_gpdma.o
 .bss           0x100008ec        0x0 build\lib\source\lpc17xx_gpio.o
 .bss           0x100008ec       0x34 build\lib\source\lpc17xx_i2c.o
 .bss           0x10000920        0x0 build\lib\source\lpc17xx_i2s.o
 .bss           0x10000920        0x0 build\lib\source\lpc17xx_libcfg_default.o
 .bss           0x10000920        0x0 build\lib\source\lpc17xx_mcpwm.o
 .bss           0x10000920        0x0 build\lib\source\lpc17xx_nvic.o
 .bss           0x10000920        0x0 build\lib\source\lpc17xx_pinsel.o
 .bss           0x10000920        0x0 build\lib\source\lpc17xx_pwm.o
 .bss           0x10000920        0x0 build\lib\source\lpc17xx_qei.o
 .bss           0x10000920        0x0 build\lib\source\lpc17xx_rit.o
 .bss           0x10000920        0x0 build\lib\source\lpc17xx_spi.o
 .bss           0x10000920        0x0 build\lib\source\lpc17xx_systick.o
 .bss           0x10000920        0x0 build\lib\source\lpc17xx_timer.o
 .bss           0x10000920        0x0 build\lib\source\lpc17xx_uart.o
 .bss           0x10000920        0x0 build\lib\source\lpc17xx_wdt.o
 .bss           0x10000920        0x0 build\system\core_cm3.o
 .bss           0x10000920     0x1004 build\system\system_LPC17xx.o
                0x10000920                _heap
 .bss           0x10001924        0x0 build\system\startup_LPC17xx.o
 .bss           0x10001924       0xd4 build\USBCDC\cdcuser.o
                0x10001924                BulkBufIn
                0x10001964                BulkBufOut
                0x100019a4                NotificationBuf
                0x100019ae                CDC_SerialState
                0x100019b0                CDC_OutBuf
 .bss           0x100019f8      0x118 build\USBCDC\serial.o
                0x100019f8                ser_txRestart
                0x100019fc                ser_lineState
                0x10001a00                ser_out
                0x10001a88                ser_in
 .bss           0x10001b10       0x30 build\USBCDC\usbcore.o
                0x10001b10                USB_DeviceStatus
                0x10001b12                USB_DeviceAddress
                0x10001b13                USB_Configuration
                0x10001b14                USB_EndPointMask
                0x10001b18                USB_EndPointHalt
                0x10001b1c                USB_EndPointStall
                0x10001b20                USB_NumInterfaces
                0x10001b24                USB_AltSetting
                0x10001b28                EP0Buf
                0x10001b30                EP0Data
                0x10001b38                SetupPacket
 .bss           0x10001b40        0x0 build\USBCDC\usbdesc.o
 .bss           0x10001b40        0x0 build\USBCDC\usbhw.o
 .bss           0x10001b40        0x2 build\USBCDC\usbuser.o
 *fill*         0x10001b42        0x2 00
 .bss           0x10001b44       0x64 build\USBCDC\vcomdemo.o
 .bss           0x10001ba8        0x0 src\shared\PID.o
 .bss           0x10001ba8        0x0 src\shared\Packet.o
 .bss           0x10001ba8      0x23c build\Command.o
                0x10001ba8                eeprom::VERSION_LOW
                0x10001bac                command::buffer_data
                0x10001dac                command::command_buffer
                0x10001dbc                command::outstanding_tool_command
                0x10001dbd                command::paused
                0x10001dbe                command::mode
                0x10001dc0                command::delay_timeout
                0x10001dcc                command::homing_timeout
                0x10001dd8                command::tool_wait_timeout
 .bss           0x10001de4       0x28 build\DebugPacketProcessor.o
                0x10001de4                debugSlaveOut
 .bss           0x10001e0c        0x2 build\EepromMap.o
 *fill*         0x10001e0e        0x2 00
 .bss           0x10001e10       0x58 build\Host.o
                0x10001e14                host::packet_in_timeout
                0x10001e20                host::machineName
                0x10001e40                host::buildName
                0x10001e60                host::buildSteps
                0x10001e64                host::currentState
 .bss           0x10001e68       0x54 build\Interface.o
                0x10001e68                interfaceboard::board
 .bss           0x10001ebc        0x1 build\InterfaceBoard.o
 *fill*         0x10001ebd        0x3 00
 .bss           0x10001ec0       0x10 build\LPCPort.o
                0x10001ec0                Port1
                0x10001ec4                Port2
                0x10001ec8                Port3
                0x10001ecc                Port4
 .bss           0x10001ed0        0x4 build\LiquidCrystal.o
                0x10001ed0                msTicks
 .bss           0x10001ed4        0x8 build\Main.o
 .bss           0x10001edc       0x5c build\Menu.o
                0x10001ee0                monitorMode
                0x10001eec                sdMenu
                0x10001ef4                jogger
                0x10001efc                snake
 .bss           0x10001f38       0x60 build\Motherboard.o
                0x10001f38                Motherboard::motherboard
                0x10001f8c                blink_count
                0x10001f8d                blink_state
                0x10001f90                blink_ovfs_remaining
                0x10001f94                blinked_so_far
 .bss           0x10001f98        0x0 build\PID.o
 .bss           0x10001f98        0x0 build\PSU.o
 .bss           0x10001f98        0x0 build\Packet.o
 .bss           0x10001f98       0x1c build\SDCard.o
                0x10001f98                sdcard::partition
                0x10001f9c                sdcard::fs
                0x10001fa0                sdcard::dd
                0x10001fa4                sdcard::file
                0x10001fa8                sdcard::capturing
                0x10001fa9                sdcard::playing
                0x10001fac                sdcard::capturedBytes
                0x10001fb0                sdcard::next_byte
                0x10001fb1                sdcard::has_more
 .bss           0x10001fb4        0x2 build\StepperInterface.o
 *fill*         0x10001fb6        0x2 00
 .bss           0x10001fb8       0xb0 build\Steppers.o
                0x10001fb8                steppers::is_running
                0x10001fbc                steppers::intervals
                0x10001fc0                steppers::intervals_remaining
                0x10001fc4                steppers::axes
                0x10002064                steppers::is_homing
                0x10002065                steppers::holdZ
 .bss           0x10002068        0x0 build\Timeout.o
 .bss           0x10002068       0x14 build\Tool.o
                0x10002068                tool::transaction_active
                0x10002069                tool::locked
                0x1000206c                tool::timeout
                0x10002078                tool::tool_index
 .bss           0x1000207c       0xa0 build\UART.o
                0x10002080                UART::uart
                0x10002118                loopback_bytes
                0x10002119                byte_in
 .bss           0x1000211c        0x0 c:/progra~2/codesourcery/source~1/bin/../lib/gcc/arm-none-eabi/4.5.2/../../../../arm-none-eabi/lib/thumb2\libstdc++.a(si_class_type_info.o)
 .bss           0x1000211c        0x0 c:/progra~2/codesourcery/source~1/bin/../lib/gcc/arm-none-eabi/4.5.2/../../../../arm-none-eabi/lib/thumb2\libstdc++.a(del_op.o)
 .bss           0x1000211c        0x0 c:/progra~2/codesourcery/source~1/bin/../lib/gcc/arm-none-eabi/4.5.2/../../../../arm-none-eabi/lib/thumb2\libstdc++.a(pure.o)
 .bss           0x1000211c        0x0 c:/progra~2/codesourcery/source~1/bin/../lib/gcc/arm-none-eabi/4.5.2/../../../../arm-none-eabi/lib/thumb2\libstdc++.a(class_type_info.o)
 .bss           0x1000211c        0x0 c:/progra~2/codesourcery/source~1/bin/../lib/gcc/arm-none-eabi/4.5.2/../../../../arm-none-eabi/lib/thumb2\libstdc++.a(tinfo.o)
 .bss           0x1000211c        0x0 c:/progra~2/codesourcery/source~1/bin/../lib/gcc/arm-none-eabi/4.5.2/../../../../arm-none-eabi/lib/thumb2\libstdc++.a(eh_terminate.o)
 .bss           0x1000211c        0x0 c:/progra~2/codesourcery/source~1/bin/../lib/gcc/arm-none-eabi/4.5.2/../../../../arm-none-eabi/lib/thumb2\libstdc++.a(eh_call.o)
 .bss           0x1000211c        0x0 c:/progra~2/codesourcery/source~1/bin/../lib/gcc/arm-none-eabi/4.5.2/../../../../arm-none-eabi/lib/thumb2\libstdc++.a(eh_term_handler.o)
 .bss           0x1000211c        0x0 c:/progra~2/codesourcery/source~1/bin/../lib/gcc/arm-none-eabi/4.5.2/../../../../arm-none-eabi/lib/thumb2\libstdc++.a(eh_personality.o)
 .bss           0x1000211c        0x0 c:/progra~2/codesourcery/source~1/bin/../lib/gcc/arm-none-eabi/4.5.2/../../../../arm-none-eabi/lib/thumb2\libstdc++.a(eh_throw.o)
 .bss           0x1000211c        0x0 c:/progra~2/codesourcery/source~1/bin/../lib/gcc/arm-none-eabi/4.5.2/../../../../arm-none-eabi/lib/thumb2\libstdc++.a(eh_unex_handler.o)
 .bss           0x1000211c        0x0 c:/progra~2/codesourcery/source~1/bin/../lib/gcc/arm-none-eabi/4.5.2/../../../../arm-none-eabi/lib/thumb2\libstdc++.a(eh_globals.o)
 .bss._ZL10eh_globals
                0x1000211c        0xc c:/progra~2/codesourcery/source~1/bin/../lib/gcc/arm-none-eabi/4.5.2/../../../../arm-none-eabi/lib/thumb2\libstdc++.a(eh_globals.o)
 .bss           0x10002128        0x0 c:/progra~2/codesourcery/source~1/bin/../lib/gcc/arm-none-eabi/4.5.2/../../../../arm-none-eabi/lib/thumb2\libstdc++.a(eh_catch.o)
 .bss           0x10002128        0x0 c:/progra~2/codesourcery/source~1/bin/../lib/gcc/arm-none-eabi/4.5.2/../../../../arm-none-eabi/lib/thumb2\libstdc++.a(vterminate.o)
 .bss._ZZN9__gnu_cxx27__verbose_terminate_handlerEvE11terminating
                0x10002128        0x1 c:/progra~2/codesourcery/source~1/bin/../lib/gcc/arm-none-eabi/4.5.2/../../../../arm-none-eabi/lib/thumb2\libstdc++.a(vterminate.o)
 .bss           0x10002129        0x0 c:/progra~2/codesourcery/source~1/bin/../lib/gcc/arm-none-eabi/4.5.2/../../../../arm-none-eabi/lib/thumb2\libstdc++.a(eh_exception.o)
 .bss           0x10002129        0x0 c:/progra~2/codesourcery/source~1/bin/../lib/gcc/arm-none-eabi/4.5.2/../../../../arm-none-eabi/lib/thumb2\libstdc++.a(eh_type.o)
 .bss           0x10002129        0x0 c:/progra~2/codesourcery/source~1/bin/../lib/gcc/arm-none-eabi/4.5.2/../../../../arm-none-eabi/lib/thumb2\libstdc++.a(eh_arm.o)
 .bss           0x10002129        0x0 c:/progra~2/codesourcery/source~1/bin/../lib/gcc/arm-none-eabi/4.5.2/../../../../arm-none-eabi/lib/thumb2\libstdc++.a(eh_alloc.o)
 *fill*         0x10002129        0x3 00
 .bss._ZL15dependents_used
                0x1000212c        0x4 c:/progra~2/codesourcery/source~1/bin/../lib/gcc/arm-none-eabi/4.5.2/../../../../arm-none-eabi/lib/thumb2\libstdc++.a(eh_alloc.o)
 .bss._ZL17dependents_buffer
                0x10002130      0x1e0 c:/progra~2/codesourcery/source~1/bin/../lib/gcc/arm-none-eabi/4.5.2/../../../../arm-none-eabi/lib/thumb2\libstdc++.a(eh_alloc.o)
 .bss._ZL14emergency_used
                0x10002310        0x4 c:/progra~2/codesourcery/source~1/bin/../lib/gcc/arm-none-eabi/4.5.2/../../../../arm-none-eabi/lib/thumb2\libstdc++.a(eh_alloc.o)
 *fill*         0x10002314        0x4 00
 .bss._ZL16emergency_buffer
                0x10002318      0x800 c:/progra~2/codesourcery/source~1/bin/../lib/gcc/arm-none-eabi/4.5.2/../../../../arm-none-eabi/lib/thumb2\libstdc++.a(eh_alloc.o)
 .bss           0x10002b18        0x0 c:/progra~2/codesourcery/source~1/bin/../lib/gcc/arm-none-eabi/4.5.2/../../../../arm-none-eabi/lib/thumb2\libstdc++.a(cp-demangle.o)
 .bss           0x10002b18        0x0 c:/progra~2/codesourcery/source~1/bin/../lib/gcc/arm-none-eabi/4.5.2/thumb2\libgcc.a(_arm_addsubsf3.o)
 .bss           0x10002b18        0x0 c:/progra~2/codesourcery/source~1/bin/../lib/gcc/arm-none-eabi/4.5.2/thumb2\libgcc.a(_arm_muldivsf3.o)
 .bss           0x10002b18        0x0 c:/progra~2/codesourcery/source~1/bin/../lib/gcc/arm-none-eabi/4.5.2/thumb2\libgcc.a(_arm_cmpsf2.o)
 .bss           0x10002b18        0x0 c:/progra~2/codesourcery/source~1/bin/../lib/gcc/arm-none-eabi/4.5.2/thumb2\libgcc.a(_arm_fixsfsi.o)
 .bss           0x10002b18        0x0 c:/progra~2/codesourcery/source~1/bin/../lib/gcc/arm-none-eabi/4.5.2/thumb2\libgcc.a(_aeabi_uldivmod.o)
 .bss           0x10002b18        0x0 c:/progra~2/codesourcery/source~1/bin/../lib/gcc/arm-none-eabi/4.5.2/thumb2\libgcc.a(bpabi.o)
 .bss           0x10002b18        0x0 c:/progra~2/codesourcery/source~1/bin/../lib/gcc/arm-none-eabi/4.5.2/thumb2\libgcc.a(unwind-arm.o)
 .bss           0x10002b18        0x0 c:/progra~2/codesourcery/source~1/bin/../lib/gcc/arm-none-eabi/4.5.2/thumb2\libgcc.a(libunwind.o)
 .bss           0x10002b18        0x0 c:/progra~2/codesourcery/source~1/bin/../lib/gcc/arm-none-eabi/4.5.2/thumb2\libgcc.a(pr-support.o)
 .bss           0x10002b18        0x0 c:/progra~2/codesourcery/source~1/bin/../lib/gcc/arm-none-eabi/4.5.2/thumb2\libgcc.a(_dvmd_tls.o)
 .bss           0x10002b18        0x0 c:/progra~2/codesourcery/source~1/bin/../lib/gcc/arm-none-eabi/4.5.2/thumb2\libgcc.a(_divdi3.o)
 .bss           0x10002b18        0x0 c:/progra~2/codesourcery/source~1/bin/../lib/gcc/arm-none-eabi/4.5.2/thumb2\libgcc.a(_udivdi3.o)
 .bss           0x10002b18        0x0 c:/progra~2/codesourcery/source~1/bin/../lib/gcc/arm-none-eabi/4.5.2/thumb2\libgcc.a(_udivsi3.o)
 .bss           0x10002b18        0x0 c:/progra~2/codesourcery/source~1/bin/../lib/gcc/arm-none-eabi/4.5.2/../../../../arm-none-eabi/lib/thumb2\libc.a(lib_a-abort.o)
 .bss           0x10002b18        0x0 c:/progra~2/codesourcery/source~1/bin/../lib/gcc/arm-none-eabi/4.5.2/../../../../arm-none-eabi/lib/thumb2\libc.a(lib_a-fputc.o)
 .bss           0x10002b18        0x0 c:/progra~2/codesourcery/source~1/bin/../lib/gcc/arm-none-eabi/4.5.2/../../../../arm-none-eabi/lib/thumb2\libc.a(lib_a-fputs.o)
 .bss           0x10002b18        0x0 c:/progra~2/codesourcery/source~1/bin/../lib/gcc/arm-none-eabi/4.5.2/../../../../arm-none-eabi/lib/thumb2\libc.a(lib_a-fvwrite.o)
 .bss           0x10002b18        0x0 c:/progra~2/codesourcery/source~1/bin/../lib/gcc/arm-none-eabi/4.5.2/../../../../arm-none-eabi/lib/thumb2\libc.a(lib_a-fwrite.o)
 .bss           0x10002b18        0x0 c:/progra~2/codesourcery/source~1/bin/../lib/gcc/arm-none-eabi/4.5.2/../../../../arm-none-eabi/lib/thumb2\libc.a(lib_a-impure.o)
 .bss           0x10002b18        0x0 c:/progra~2/codesourcery/source~1/bin/../lib/gcc/arm-none-eabi/4.5.2/../../../../arm-none-eabi/lib/thumb2\libc.a(lib_a-malloc.o)
 .bss           0x10002b18       0x34 c:/progra~2/codesourcery/source~1/bin/../lib/gcc/arm-none-eabi/4.5.2/../../../../arm-none-eabi/lib/thumb2\libc.a(lib_a-mallocr.o)
                0x10002b18                __malloc_top_pad
                0x10002b1c                __malloc_current_mallinfo
                0x10002b44                __malloc_max_sbrked_mem
                0x10002b48                __malloc_max_total_mem
 .bss           0x10002b4c        0x0 c:/progra~2/codesourcery/source~1/bin/../lib/gcc/arm-none-eabi/4.5.2/../../../../arm-none-eabi/lib/thumb2\libc.a(lib_a-memchr.o)
 .bss           0x10002b4c        0x0 c:/progra~2/codesourcery/source~1/bin/../lib/gcc/arm-none-eabi/4.5.2/../../../../arm-none-eabi/lib/thumb2\libc.a(lib_a-memcmp.o)
 .bss           0x10002b4c        0x0 c:/progra~2/codesourcery/source~1/bin/../lib/gcc/arm-none-eabi/4.5.2/../../../../arm-none-eabi/lib/thumb2\libc.a(lib_a-memcpy.o)
 .bss           0x10002b4c        0x0 c:/progra~2/codesourcery/source~1/bin/../lib/gcc/arm-none-eabi/4.5.2/../../../../arm-none-eabi/lib/thumb2\libc.a(lib_a-memmove.o)
 .bss           0x10002b4c        0x0 c:/progra~2/codesourcery/source~1/bin/../lib/gcc/arm-none-eabi/4.5.2/../../../../arm-none-eabi/lib/thumb2\libc.a(lib_a-memset.o)
 .bss           0x10002b4c        0x0 c:/progra~2/codesourcery/source~1/bin/../lib/gcc/arm-none-eabi/4.5.2/../../../../arm-none-eabi/lib/thumb2\libc.a(lib_a-mlock.o)
 .bss           0x10002b4c        0x0 c:/progra~2/codesourcery/source~1/bin/../lib/gcc/arm-none-eabi/4.5.2/../../../../arm-none-eabi/lib/thumb2\libc.a(lib_a-putc.o)
 .bss           0x10002b4c        0x0 c:/progra~2/codesourcery/source~1/bin/../lib/gcc/arm-none-eabi/4.5.2/../../../../arm-none-eabi/lib/thumb2\libc.a(lib_a-rand.o)
 .bss           0x10002b4c        0x0 c:/progra~2/codesourcery/source~1/bin/../lib/gcc/arm-none-eabi/4.5.2/../../../../arm-none-eabi/lib/thumb2\libc.a(lib_a-realloc.o)
 .bss           0x10002b4c        0x0 c:/progra~2/codesourcery/source~1/bin/../lib/gcc/arm-none-eabi/4.5.2/../../../../arm-none-eabi/lib/thumb2\libc.a(lib_a-reallocr.o)
 .bss           0x10002b4c        0x0 c:/progra~2/codesourcery/source~1/bin/../lib/gcc/arm-none-eabi/4.5.2/../../../../arm-none-eabi/lib/thumb2\libc.a(lib_a-signal.o)
 .bss           0x10002b4c        0x0 c:/progra~2/codesourcery/source~1/bin/../lib/gcc/arm-none-eabi/4.5.2/../../../../arm-none-eabi/lib/thumb2\libc.a(lib_a-signalr.o)
 .bss           0x10002b4c        0x0 c:/progra~2/codesourcery/source~1/bin/../lib/gcc/arm-none-eabi/4.5.2/../../../../arm-none-eabi/lib/thumb2\libc.a(lib_a-sprintf.o)
 .bss           0x10002b4c        0x0 c:/progra~2/codesourcery/source~1/bin/../lib/gcc/arm-none-eabi/4.5.2/../../../../arm-none-eabi/lib/thumb2\libc.a(lib_a-strchr.o)
 .bss           0x10002b4c        0x0 c:/progra~2/codesourcery/source~1/bin/../lib/gcc/arm-none-eabi/4.5.2/../../../../arm-none-eabi/lib/thumb2\libc.a(lib_a-strcmp.o)
 .bss           0x10002b4c        0x0 c:/progra~2/codesourcery/source~1/bin/../lib/gcc/arm-none-eabi/4.5.2/../../../../arm-none-eabi/lib/thumb2\libc.a(lib_a-strcpy.o)
 .bss           0x10002b4c        0x0 c:/progra~2/codesourcery/source~1/bin/../lib/gcc/arm-none-eabi/4.5.2/../../../../arm-none-eabi/lib/thumb2\libc.a(lib_a-strlen.o)
 .bss           0x10002b4c        0x0 c:/progra~2/codesourcery/source~1/bin/../lib/gcc/arm-none-eabi/4.5.2/../../../../arm-none-eabi/lib/thumb2\libc.a(lib_a-strncmp.o)
 .bss           0x10002b4c        0x0 c:/progra~2/codesourcery/source~1/bin/../lib/gcc/arm-none-eabi/4.5.2/../../../../arm-none-eabi/lib/thumb2\libc.a(lib_a-strncpy.o)
 .bss           0x10002b4c        0x0 c:/progra~2/codesourcery/source~1/bin/../lib/gcc/arm-none-eabi/4.5.2/../../../../arm-none-eabi/lib/thumb2\libc.a(lib_a-strrchr.o)
 .bss           0x10002b4c        0x0 c:/progra~2/codesourcery/source~1/bin/../lib/gcc/arm-none-eabi/4.5.2/../../../../arm-none-eabi/lib/thumb2\libc.a(lib_a-svfprintf.o)
 .bss           0x10002b4c        0x0 c:/progra~2/codesourcery/source~1/bin/../lib/gcc/arm-none-eabi/4.5.2/../../../../arm-none-eabi/lib/thumb2\libc.a(lib_a-syswrite.o)
 .bss           0x10002b4c        0x0 c:/progra~2/codesourcery/source~1/bin/../lib/gcc/arm-none-eabi/4.5.2/../../../../arm-none-eabi/lib/thumb2\libc.a(lib_a-wbuf.o)
 .bss           0x10002b4c        0x0 c:/progra~2/codesourcery/source~1/bin/../lib/gcc/arm-none-eabi/4.5.2/../../../../arm-none-eabi/lib/thumb2\libc.a(lib_a-wsetup.o)
 .bss           0x10002b4c        0x0 c:/progra~2/codesourcery/source~1/bin/../lib/gcc/arm-none-eabi/4.5.2/../../../../arm-none-eabi/lib/thumb2\libc.a(lib_a-dtoa.o)
 .bss           0x10002b4c        0x0 c:/progra~2/codesourcery/source~1/bin/../lib/gcc/arm-none-eabi/4.5.2/../../../../arm-none-eabi/lib/thumb2\libc.a(lib_a-fflush.o)
 .bss           0x10002b4c        0x0 c:/progra~2/codesourcery/source~1/bin/../lib/gcc/arm-none-eabi/4.5.2/../../../../arm-none-eabi/lib/thumb2\libc.a(lib_a-findfp.o)
 .bss           0x10002b4c        0x0 c:/progra~2/codesourcery/source~1/bin/../lib/gcc/arm-none-eabi/4.5.2/../../../../arm-none-eabi/lib/thumb2\libc.a(lib_a-freer.o)
 .bss           0x10002b4c        0x0 c:/progra~2/codesourcery/source~1/bin/../lib/gcc/arm-none-eabi/4.5.2/../../../../arm-none-eabi/lib/thumb2\libc.a(lib_a-fwalk.o)
 .bss           0x10002b4c        0xc c:/progra~2/codesourcery/source~1/bin/../lib/gcc/arm-none-eabi/4.5.2/../../../../arm-none-eabi/lib/thumb2\libc.a(lib_a-locale.o)
                0x10002b4c                __nlocale_changed
                0x10002b50                __mlocale_changed
                0x10002b54                _PathLocale
 .bss           0x10002b58        0x0 c:/progra~2/codesourcery/source~1/bin/../lib/gcc/arm-none-eabi/4.5.2/../../../../arm-none-eabi/lib/thumb2\libc.a(lib_a-makebuf.o)
 .bss           0x10002b58        0x0 c:/progra~2/codesourcery/source~1/bin/../lib/gcc/arm-none-eabi/4.5.2/../../../../arm-none-eabi/lib/thumb2\libc.a(lib_a-mprec.o)
 .bss           0x10002b58        0x0 c:/progra~2/codesourcery/source~1/bin/../lib/gcc/arm-none-eabi/4.5.2/../../../../arm-none-eabi/lib/thumb2\libc.a(lib_a-reent.o)
 .bss           0x10002b58        0x0 c:/progra~2/codesourcery/source~1/bin/../lib/gcc/arm-none-eabi/4.5.2/../../../../arm-none-eabi/lib/thumb2\libc.a(lib_a-s_fpclassify.o)
 .bss           0x10002b58        0x0 c:/progra~2/codesourcery/source~1/bin/../lib/gcc/arm-none-eabi/4.5.2/../../../../arm-none-eabi/lib/thumb2\libc.a(lib_a-stdio.o)
 .bss           0x10002b58        0x0 c:/progra~2/codesourcery/source~1/bin/../lib/gcc/arm-none-eabi/4.5.2/../../../../arm-none-eabi/lib/thumb2\libc.a(lib_a-svfiprintf.o)
 .bss           0x10002b58        0x0 c:/progra~2/codesourcery/source~1/bin/../lib/gcc/arm-none-eabi/4.5.2/../../../../arm-none-eabi/lib/thumb2\libc.a(lib_a-callocr.o)
 .bss           0x10002b58        0x0 c:/progra~2/codesourcery/source~1/bin/../lib/gcc/arm-none-eabi/4.5.2/../../../../arm-none-eabi/lib/thumb2\libc.a(lib_a-fclose.o)
 .bss           0x10002b58        0x0 c:/progra~2/codesourcery/source~1/bin/../lib/gcc/arm-none-eabi/4.5.2/../../../../arm-none-eabi/lib/thumb2\libc.a(lib_a-fstatr.o)
 .bss           0x10002b58        0x0 c:/progra~2/codesourcery/source~1/bin/../lib/gcc/arm-none-eabi/4.5.2/../../../../arm-none-eabi/lib/thumb2\libc.a(lib_a-isattyr.o)
 .bss           0x10002b58        0x0 c:/progra~2/codesourcery/source~1/bin/../lib/gcc/arm-none-eabi/4.5.2/../../../../arm-none-eabi/lib/thumb2\libc.a(lib_a-lseekr.o)
 .bss           0x10002b58        0x0 c:/progra~2/codesourcery/source~1/bin/../lib/gcc/arm-none-eabi/4.5.2/thumb2\libgcc.a(_arm_addsubdf3.o)
 .bss           0x10002b58        0x0 c:/progra~2/codesourcery/source~1/bin/../lib/gcc/arm-none-eabi/4.5.2/thumb2\libgcc.a(_arm_muldivdf3.o)
 .bss           0x10002b58        0x0 c:/progra~2/codesourcery/source~1/bin/../lib/gcc/arm-none-eabi/4.5.2/thumb2\libgcc.a(_arm_cmpdf2.o)
 .bss           0x10002b58        0x0 c:/progra~2/codesourcery/source~1/bin/../lib/gcc/arm-none-eabi/4.5.2/thumb2\libgcc.a(_arm_fixdfsi.o)
 *(COMMON)
 COMMON         0x10002b58        0x4 c:/progra~2/codesourcery/source~1/bin/../lib/gcc/arm-none-eabi/4.5.2/../../../../arm-none-eabi/lib/thumb2\libc.a(lib_a-reent.o)
                0x10002b58                errno
 *(.ram.b)
                0x10002b60                . = ALIGN (0x8)
 *fill*         0x10002b5c        0x4 00
                0x10002b60                _end = .
                0x10002b60                __end = .

.usb_ram
 *.o(USB_RAM)

.heap           0x10002b60     0x1000
 *(.heap)
 .heap          0x10002b60     0x1000 build\system\startup_LPC17xx.o
                0x10002b60                __cs3_heap_start
                0x10003b60                __cs3_heap_end

.stack          0x10007f00      0x100
 *(.stack)
 .stack         0x10007f00      0x100 build\system\startup_LPC17xx.o
                0x10007f00                __cs3_stack_mem
                0x10008000                _estack = .
                0x10008000                PROVIDE (estack, .)
                0x0002c008                __cs3_region_init_ram = LOADADDR (.data)
                0x000005e0                __cs3_region_init_size_ram = (_edata - __cs3_region_start_ram)
                0x00002580                __cs3_region_zero_size_ram = (_end - _edata)
                0x00008000                __cs3_region_size_ram = 0x8000
                0x00000001                __cs3_region_num = 0x1

.stab
 *(.stab)

.stabstr
 *(.stabstr)

.debug
 *(.debug)

.line
 *(.line)

.debug_srcinfo
 *(.debug_srcinfo)

.debug_sfnames
 *(.debug_sfnames)

.comment        0x00000000       0x2a
 .comment       0x00000000       0x2a build\lib_sd\byteordering.o
                                 0x2b (size before relaxing)
 .comment       0x00000000       0x2b build\lib_sd\fat.o
 .comment       0x00000000       0x2b build\lib_sd\partition.o
 .comment       0x00000000       0x2b build\lib_sd\sd_raw.o
 .comment       0x00000000       0x2b build\lib\source\debug_frmwrk.o
 .comment       0x00000000       0x2b build\lib\source\lpc17xx_adc.o
 .comment       0x00000000       0x2b build\lib\source\lpc17xx_clkpwr.o
 .comment       0x00000000       0x2b build\lib\source\lpc17xx_dac.o
 .comment       0x00000000       0x2b build\lib\source\lpc17xx_exti.o
 .comment       0x00000000       0x2b build\lib\source\lpc17xx_gpdma.o
 .comment       0x00000000       0x2b build\lib\source\lpc17xx_gpio.o
 .comment       0x00000000       0x2b build\lib\source\lpc17xx_i2c.o
 .comment       0x00000000       0x2b build\lib\source\lpc17xx_i2s.o
 .comment       0x00000000       0x2b build\lib\source\lpc17xx_libcfg_default.o
 .comment       0x00000000       0x2b build\lib\source\lpc17xx_mcpwm.o
 .comment       0x00000000       0x2b build\lib\source\lpc17xx_nvic.o
 .comment       0x00000000       0x2b build\lib\source\lpc17xx_pinsel.o
 .comment       0x00000000       0x2b build\lib\source\lpc17xx_pwm.o
 .comment       0x00000000       0x2b build\lib\source\lpc17xx_qei.o
 .comment       0x00000000       0x2b build\lib\source\lpc17xx_rit.o
 .comment       0x00000000       0x2b build\lib\source\lpc17xx_spi.o
 .comment       0x00000000       0x2b build\lib\source\lpc17xx_systick.o
 .comment       0x00000000       0x2b build\lib\source\lpc17xx_timer.o
 .comment       0x00000000       0x2b build\lib\source\lpc17xx_uart.o
 .comment       0x00000000       0x2b build\lib\source\lpc17xx_wdt.o
 .comment       0x00000000       0x2b build\system\core_cm3.o
 .comment       0x00000000       0x2b build\system\system_LPC17xx.o
 .comment       0x00000000       0x2b build\USBCDC\cdcuser.o
 .comment       0x00000000       0x2b build\USBCDC\serial.o
 .comment       0x00000000       0x2b build\USBCDC\usbcore.o
 .comment       0x00000000       0x2b build\USBCDC\usbdesc.o
 .comment       0x00000000       0x2b build\USBCDC\usbhw.o
 .comment       0x00000000       0x2b build\USBCDC\usbuser.o
 .comment       0x00000000       0x2b build\USBCDC\vcomdemo.o
 .comment       0x00000000       0x2b src\shared\PID.o
 .comment       0x00000000       0x2b src\shared\Packet.o
 .comment       0x00000000       0x2b build\Command.o
 .comment       0x00000000       0x2b build\DebugPacketProcessor.o
 .comment       0x00000000       0x2b build\EepromMap.o
 .comment       0x00000000       0x2b build\Host.o
 .comment       0x00000000       0x2b build\Interface.o
 .comment       0x00000000       0x2b build\InterfaceBoard.o
 .comment       0x00000000       0x2b build\LPCPort.o
 .comment       0x00000000       0x2b build\LiquidCrystal.o
 .comment       0x00000000       0x2b build\Main.o
 .comment       0x00000000       0x2b build\Menu.o
 .comment       0x00000000       0x2b build\Motherboard.o
 .comment       0x00000000       0x2b build\PID.o
 .comment       0x00000000       0x2b build\PSU.o
 .comment       0x00000000       0x2b build\Packet.o
 .comment       0x00000000       0x2b build\SDCard.o
 .comment       0x00000000       0x2b build\StepperInterface.o
 .comment       0x00000000       0x2b build\Steppers.o
 .comment       0x00000000       0x2b build\Timeout.o
 .comment       0x00000000       0x2b build\Tool.o
 .comment       0x00000000       0x2b build\UART.o

.debug_aranges  0x00000000      0xb10
 *(.debug_aranges)
 .debug_aranges
                0x00000000       0x20 build\lib_sd\fat.o
 .debug_aranges
                0x00000020       0x20 build\lib_sd\partition.o
 .debug_aranges
                0x00000040       0x20 build\lib_sd\sd_raw.o
 .debug_aranges
                0x00000060       0x20 build\lib\source\debug_frmwrk.o
 .debug_aranges
                0x00000080       0x20 build\lib\source\lpc17xx_adc.o
 .debug_aranges
                0x000000a0       0x20 build\lib\source\lpc17xx_clkpwr.o
 .debug_aranges
                0x000000c0       0x20 build\lib\source\lpc17xx_dac.o
 .debug_aranges
                0x000000e0       0x20 build\lib\source\lpc17xx_exti.o
 .debug_aranges
                0x00000100       0x20 build\lib\source\lpc17xx_gpdma.o
 .debug_aranges
                0x00000120       0x20 build\lib\source\lpc17xx_gpio.o
 .debug_aranges
                0x00000140       0x20 build\lib\source\lpc17xx_i2c.o
 .debug_aranges
                0x00000160       0x20 build\lib\source\lpc17xx_i2s.o
 .debug_aranges
                0x00000180       0x20 build\lib\source\lpc17xx_libcfg_default.o
 .debug_aranges
                0x000001a0       0x20 build\lib\source\lpc17xx_mcpwm.o
 .debug_aranges
                0x000001c0       0x20 build\lib\source\lpc17xx_nvic.o
 .debug_aranges
                0x000001e0       0x20 build\lib\source\lpc17xx_pinsel.o
 .debug_aranges
                0x00000200       0x20 build\lib\source\lpc17xx_pwm.o
 .debug_aranges
                0x00000220       0x20 build\lib\source\lpc17xx_qei.o
 .debug_aranges
                0x00000240       0x20 build\lib\source\lpc17xx_rit.o
 .debug_aranges
                0x00000260       0x20 build\lib\source\lpc17xx_spi.o
 .debug_aranges
                0x00000280       0x20 build\lib\source\lpc17xx_systick.o
 .debug_aranges
                0x000002a0       0x20 build\lib\source\lpc17xx_timer.o
 .debug_aranges
                0x000002c0       0x20 build\lib\source\lpc17xx_uart.o
 .debug_aranges
                0x000002e0       0x20 build\lib\source\lpc17xx_wdt.o
 .debug_aranges
                0x00000300       0x20 build\system\system_LPC17xx.o
 .debug_aranges
                0x00000320       0x20 build\USBCDC\cdcuser.o
 .debug_aranges
                0x00000340       0x20 build\USBCDC\serial.o
 .debug_aranges
                0x00000360       0x20 build\USBCDC\usbcore.o
 .debug_aranges
                0x00000380       0x20 build\USBCDC\usbhw.o
 .debug_aranges
                0x000003a0       0x20 build\USBCDC\usbuser.o
 .debug_aranges
                0x000003c0       0x20 build\USBCDC\vcomdemo.o
 .debug_aranges
                0x000003e0       0x20 src\shared\PID.o
 .debug_aranges
                0x00000400       0x30 src\shared\Packet.o
 .debug_aranges
                0x00000430       0x80 build\Command.o
 .debug_aranges
                0x000004b0       0x30 build\DebugPacketProcessor.o
 .debug_aranges
                0x000004e0       0x20 build\EepromMap.o
 .debug_aranges
                0x00000500      0x110 build\Host.o
 .debug_aranges
                0x00000610       0x58 build\Interface.o
 .debug_aranges
                0x00000668       0x60 build\InterfaceBoard.o
 .debug_aranges
                0x000006c8       0x28 build\LPCPort.o
 .debug_aranges
                0x000006f0       0x70 build\LiquidCrystal.o
 .debug_aranges
                0x00000760       0x28 build\Main.o
 .debug_aranges
                0x00000788       0x88 build\Menu.o
 .debug_aranges
                0x00000810       0x98 build\Motherboard.o
 .debug_aranges
                0x000008a8       0x20 build\PID.o
 .debug_aranges
                0x000008c8       0x20 build\PSU.o
 .debug_aranges
                0x000008e8       0x30 build\Packet.o
 .debug_aranges
                0x00000918       0x30 build\SDCard.o
 .debug_aranges
                0x00000948       0x60 build\StepperInterface.o
 .debug_aranges
                0x000009a8       0x80 build\Steppers.o
 .debug_aranges
                0x00000a28       0x28 build\Timeout.o
 .debug_aranges
                0x00000a50       0x60 build\Tool.o
 .debug_aranges
                0x00000ab0       0x60 build\UART.o

.debug_pubnames
                0x00000000     0x4b95
 *(.debug_pubnames)
 .debug_pubnames
                0x00000000      0x164 build\lib_sd\fat.o
 .debug_pubnames
                0x00000164       0x39 build\lib_sd\partition.o
 .debug_pubnames
                0x0000019d       0xc1 build\lib_sd\sd_raw.o
 .debug_pubnames
                0x0000025e      0x150 build\lib\source\debug_frmwrk.o
 .debug_pubnames
                0x000003ae      0x110 build\lib\source\lpc17xx_adc.o
 .debug_pubnames
                0x000004be       0xbb build\lib\source\lpc17xx_clkpwr.o
 .debug_pubnames
                0x00000579       0x7a build\lib\source\lpc17xx_dac.o
 .debug_pubnames
                0x000005f3       0x7d build\lib\source\lpc17xx_exti.o
 .debug_pubnames
                0x00000670       0xc3 build\lib\source\lpc17xx_gpdma.o
 .debug_pubnames
                0x00000733      0x211 build\lib\source\lpc17xx_gpio.o
 .debug_pubnames
                0x00000944      0x163 build\lib\source\lpc17xx_i2c.o
 .debug_pubnames
                0x00000aa7      0x153 build\lib\source\lpc17xx_i2s.o
 .debug_pubnames
                0x00000bfa       0x23 build\lib\source\lpc17xx_libcfg_default.o
 .debug_pubnames
                0x00000c1d      0x13b build\lib\source\lpc17xx_mcpwm.o
 .debug_pubnames
                0x00000d58       0x46 build\lib\source\lpc17xx_nvic.o
 .debug_pubnames
                0x00000d9e       0x59 build\lib\source\lpc17xx_pinsel.o
 .debug_pubnames
                0x00000df7      0x127 build\lib\source\lpc17xx_pwm.o
 .debug_pubnames
                0x00000f1e      0x1aa build\lib\source\lpc17xx_qei.o
 .debug_pubnames
                0x000010c8       0x79 build\lib\source\lpc17xx_rit.o
 .debug_pubnames
                0x00001141      0x105 build\lib\source\lpc17xx_spi.o
 .debug_pubnames
                0x00001246       0xa0 build\lib\source\lpc17xx_systick.o
 .debug_pubnames
                0x000012e6      0x12b build\lib\source\lpc17xx_timer.o
 .debug_pubnames
                0x00001411      0x271 build\lib\source\lpc17xx_uart.o
 .debug_pubnames
                0x00001682       0x97 build\lib\source\lpc17xx_wdt.o
 .debug_pubnames
                0x00001719      0x105 build\system\system_LPC17xx.o
 .debug_pubnames
                0x0000181e      0x201 build\USBCDC\cdcuser.o
 .debug_pubnames
                0x00001a1f       0xfd build\USBCDC\serial.o
 .debug_pubnames
                0x00001b1c      0x235 build\USBCDC\usbcore.o
 .debug_pubnames
                0x00001d51       0x5d build\USBCDC\usbdesc.o
 .debug_pubnames
                0x00001dae      0x1ae build\USBCDC\usbhw.o
 .debug_pubnames
                0x00001f5c      0x15f build\USBCDC\usbuser.o
 .debug_pubnames
                0x000020bb       0x6b build\USBCDC\vcomdemo.o
 .debug_pubnames
                0x00002126       0x9f src\shared\PID.o
 .debug_pubnames
                0x000021c5      0x1ab src\shared\Packet.o
 .debug_pubnames
                0x00002370      0x3ee build\Command.o
 .debug_pubnames
                0x0000275e       0x6b build\DebugPacketProcessor.o
 .debug_pubnames
                0x000027c9       0x9b build\EepromMap.o
 .debug_pubnames
                0x00002864      0x4c8 build\Host.o
 .debug_pubnames
                0x00002d2c      0x184 build\Interface.o
 .debug_pubnames
                0x00002eb0      0x1e7 build\InterfaceBoard.o
 .debug_pubnames
                0x00003097       0x49 build\LPCPort.o
 .debug_pubnames
                0x000030e0      0x453 build\LiquidCrystal.o
 .debug_pubnames
                0x00003533       0xa8 build\Main.o
 .debug_pubnames
                0x000035db      0x4e7 build\Menu.o
 .debug_pubnames
                0x00003ac2      0x2e3 build\Motherboard.o
 .debug_pubnames
                0x00003da5       0x9f build\PID.o
 .debug_pubnames
                0x00003e44       0x30 build\PSU.o
 .debug_pubnames
                0x00003e74      0x1ab build\Packet.o
 .debug_pubnames
                0x0000401f      0x30f build\SDCard.o
 .debug_pubnames
                0x0000432e      0x1b0 build\StepperInterface.o
 .debug_pubnames
                0x000044de      0x307 build\Steppers.o
 .debug_pubnames
                0x000047e5       0x7f build\Timeout.o
 .debug_pubnames
                0x00004864      0x1ea build\Tool.o
 .debug_pubnames
                0x00004a4e      0x147 build\UART.o

.debug_info     0x00000000    0x22f51
 *(.debug_info .gnu.linkonce.wi.*)
 .debug_info    0x00000000       0x6c build\lib_sd\byteordering.o
 .debug_info    0x0000006c     0x14bf build\lib_sd\fat.o
 .debug_info    0x0000152b      0x362 build\lib_sd\partition.o
 .debug_info    0x0000188d      0x884 build\lib_sd\sd_raw.o
 .debug_info    0x00002111      0x931 build\lib\source\debug_frmwrk.o
 .debug_info    0x00002a42      0x60f build\lib\source\lpc17xx_adc.o
 .debug_info    0x00003051      0x6c1 build\lib\source\lpc17xx_clkpwr.o
 .debug_info    0x00003712      0x288 build\lib\source\lpc17xx_dac.o
 .debug_info    0x0000399a      0x4d9 build\lib\source\lpc17xx_exti.o
 .debug_info    0x00003e73      0xd36 build\lib\source\lpc17xx_gpdma.o
 .debug_info    0x00004ba9      0xe53 build\lib\source\lpc17xx_gpio.o
 .debug_info    0x000059fc      0xda8 build\lib\source\lpc17xx_i2c.o
 .debug_info    0x000067a4      0x8bc build\lib\source\lpc17xx_i2s.o
 .debug_info    0x00007060       0xc5 build\lib\source\lpc17xx_libcfg_default.o
 .debug_info    0x00007125      0x80e build\lib\source\lpc17xx_mcpwm.o
 .debug_info    0x00007933      0x401 build\lib\source\lpc17xx_nvic.o
 .debug_info    0x00007d34      0x4b1 build\lib\source\lpc17xx_pinsel.o
 .debug_info    0x000081e5      0x825 build\lib\source\lpc17xx_pwm.o
 .debug_info    0x00008a0a      0x84f build\lib\source\lpc17xx_qei.o
 .debug_info    0x00009259      0x2be build\lib\source\lpc17xx_rit.o
 .debug_info    0x00009517      0x5c7 build\lib\source\lpc17xx_spi.o
 .debug_info    0x00009ade      0x258 build\lib\source\lpc17xx_systick.o
 .debug_info    0x00009d36      0x889 build\lib\source\lpc17xx_timer.o
 .debug_info    0x0000a5bf     0x1149 build\lib\source\lpc17xx_uart.o
 .debug_info    0x0000b708      0x372 build\lib\source\lpc17xx_wdt.o
 .debug_info    0x0000ba7a       0x6c build\system\core_cm3.o
 .debug_info    0x0000bae6     0x1193 build\system\system_LPC17xx.o
 .debug_info    0x0000cc79      0x566 build\USBCDC\cdcuser.o
 .debug_info    0x0000d1df      0xf97 build\USBCDC\serial.o
 .debug_info    0x0000e176      0x914 build\USBCDC\usbcore.o
 .debug_info    0x0000ea8a       0xf3 build\USBCDC\usbdesc.o
 .debug_info    0x0000eb7d     0x12e2 build\USBCDC\usbhw.o
 .debug_info    0x0000fe5f      0x39c build\USBCDC\usbuser.o
 .debug_info    0x000101fb      0x216 build\USBCDC\vcomdemo.o
 .debug_info    0x00010411      0x3fc src\shared\PID.o
 .debug_info    0x0001080d      0x8d3 src\shared\Packet.o
 .debug_info    0x000110e0     0x1537 build\Command.o
 .debug_info    0x00012617      0xed4 build\DebugPacketProcessor.o
 .debug_info    0x000134eb      0x2ca build\EepromMap.o
 .debug_info    0x000137b5     0x1ede build\Host.o
 .debug_info    0x00015693      0x832 build\Interface.o
 .debug_info    0x00015ec5      0xb74 build\InterfaceBoard.o
 .debug_info    0x00016a39      0x25e build\LPCPort.o
 .debug_info    0x00016c97     0x1360 build\LiquidCrystal.o
 .debug_info    0x00017ff7     0x1339 build\Main.o
 .debug_info    0x00019330     0x2116 build\Menu.o
 .debug_info    0x0001b446     0x14d4 build\Motherboard.o
 .debug_info    0x0001c91a      0x3fc build\PID.o
 .debug_info    0x0001cd16      0x138 build\PSU.o
 .debug_info    0x0001ce4e      0x8d3 build\Packet.o
 .debug_info    0x0001d721      0xc2d build\SDCard.o
 .debug_info    0x0001e34e      0x7d7 build\StepperInterface.o
 .debug_info    0x0001eb25     0x16ec build\Steppers.o
 .debug_info    0x00020211      0xd37 build\Timeout.o
 .debug_info    0x00020f48      0xfeb build\Tool.o
 .debug_info    0x00021f33     0x101e build\UART.o

.debug_abbrev   0x00000000     0x6a60
 *(.debug_abbrev)
 .debug_abbrev  0x00000000       0x2a build\lib_sd\byteordering.o
 .debug_abbrev  0x0000002a      0x195 build\lib_sd\fat.o
 .debug_abbrev  0x000001bf       0xee build\lib_sd\partition.o
 .debug_abbrev  0x000002ad      0x20e build\lib_sd\sd_raw.o
 .debug_abbrev  0x000004bb      0x1c6 build\lib\source\debug_frmwrk.o
 .debug_abbrev  0x00000681      0x13b build\lib\source\lpc17xx_adc.o
 .debug_abbrev  0x000007bc      0x193 build\lib\source\lpc17xx_clkpwr.o
 .debug_abbrev  0x0000094f       0xe8 build\lib\source\lpc17xx_dac.o
 .debug_abbrev  0x00000a37       0xfa build\lib\source\lpc17xx_exti.o
 .debug_abbrev  0x00000b31      0x1c1 build\lib\source\lpc17xx_gpdma.o
 .debug_abbrev  0x00000cf2      0x1c7 build\lib\source\lpc17xx_gpio.o
 .debug_abbrev  0x00000eb9      0x212 build\lib\source\lpc17xx_i2c.o
 .debug_abbrev  0x000010cb      0x172 build\lib\source\lpc17xx_i2s.o
 .debug_abbrev  0x0000123d       0x66 build\lib\source\lpc17xx_libcfg_default.o
 .debug_abbrev  0x000012a3      0x150 build\lib\source\lpc17xx_mcpwm.o
 .debug_abbrev  0x000013f3      0x109 build\lib\source\lpc17xx_nvic.o
 .debug_abbrev  0x000014fc      0x11b build\lib\source\lpc17xx_pinsel.o
 .debug_abbrev  0x00001617      0x185 build\lib\source\lpc17xx_pwm.o
 .debug_abbrev  0x0000179c      0x1b8 build\lib\source\lpc17xx_qei.o
 .debug_abbrev  0x00001954      0x100 build\lib\source\lpc17xx_rit.o
 .debug_abbrev  0x00001a54      0x178 build\lib\source\lpc17xx_spi.o
 .debug_abbrev  0x00001bcc      0x116 build\lib\source\lpc17xx_systick.o
 .debug_abbrev  0x00001ce2      0x1b2 build\lib\source\lpc17xx_timer.o
 .debug_abbrev  0x00001e94      0x1cc build\lib\source\lpc17xx_uart.o
 .debug_abbrev  0x00002060      0x157 build\lib\source\lpc17xx_wdt.o
 .debug_abbrev  0x000021b7       0x2a build\system\core_cm3.o
 .debug_abbrev  0x000021e1      0x1ea build\system\system_LPC17xx.o
 .debug_abbrev  0x000023cb      0x1a2 build\USBCDC\cdcuser.o
 .debug_abbrev  0x0000256d      0x219 build\USBCDC\serial.o
 .debug_abbrev  0x00002786      0x232 build\USBCDC\usbcore.o
 .debug_abbrev  0x000029b8       0x61 build\USBCDC\usbdesc.o
 .debug_abbrev  0x00002a19      0x246 build\USBCDC\usbhw.o
 .debug_abbrev  0x00002c5f       0xfb build\USBCDC\usbuser.o
 .debug_abbrev  0x00002d5a       0xda build\USBCDC\vcomdemo.o
 .debug_abbrev  0x00002e34      0x161 src\shared\PID.o
 .debug_abbrev  0x00002f95      0x280 src\shared\Packet.o
 .debug_abbrev  0x00003215      0x380 build\Command.o
 .debug_abbrev  0x00003595      0x2f7 build\DebugPacketProcessor.o
 .debug_abbrev  0x0000388c       0xf9 build\EepromMap.o
 .debug_abbrev  0x00003985      0x3e1 build\Host.o
 .debug_abbrev  0x00003d66      0x28d build\Interface.o
 .debug_abbrev  0x00003ff3      0x366 build\InterfaceBoard.o
 .debug_abbrev  0x00004359      0x15b build\LPCPort.o
 .debug_abbrev  0x000044b4      0x2e9 build\LiquidCrystal.o
 .debug_abbrev  0x0000479d      0x3f2 build\Main.o
 .debug_abbrev  0x00004b8f      0x49f build\Menu.o
 .debug_abbrev  0x0000502e      0x3d0 build\Motherboard.o
 .debug_abbrev  0x000053fe      0x161 build\PID.o
 .debug_abbrev  0x0000555f       0xd3 build\PSU.o
 .debug_abbrev  0x00005632      0x280 build\Packet.o
 .debug_abbrev  0x000058b2      0x2b2 build\SDCard.o
 .debug_abbrev  0x00005b64      0x223 build\StepperInterface.o
 .debug_abbrev  0x00005d87      0x39b build\Steppers.o
 .debug_abbrev  0x00006122      0x2b0 build\Timeout.o
 .debug_abbrev  0x000063d2      0x2e5 build\Tool.o
 .debug_abbrev  0x000066b7      0x3a9 build\UART.o

.debug_line     0x00000000     0x87c6
 *(.debug_line)
 .debug_line    0x00000000       0x1d build\lib_sd\byteordering.o
 .debug_line    0x0000001d      0x6a7 build\lib_sd\fat.o
 .debug_line    0x000006c4      0x14a build\lib_sd\partition.o
 .debug_line    0x0000080e      0x33e build\lib_sd\sd_raw.o
 .debug_line    0x00000b4c      0x214 build\lib\source\debug_frmwrk.o
 .debug_line    0x00000d60      0x266 build\lib\source\lpc17xx_adc.o
 .debug_line    0x00000fc6      0x1b7 build\lib\source\lpc17xx_clkpwr.o
 .debug_line    0x0000117d      0x159 build\lib\source\lpc17xx_dac.o
 .debug_line    0x000012d6      0x132 build\lib\source\lpc17xx_exti.o
 .debug_line    0x00001408      0x229 build\lib\source\lpc17xx_gpdma.o
 .debug_line    0x00001631      0x263 build\lib\source\lpc17xx_gpio.o
 .debug_line    0x00001894      0x4b3 build\lib\source\lpc17xx_i2c.o
 .debug_line    0x00001d47      0x3e1 build\lib\source\lpc17xx_i2s.o
 .debug_line    0x00002128       0xd1 build\lib\source\lpc17xx_libcfg_default.o
 .debug_line    0x000021f9      0x403 build\lib\source\lpc17xx_mcpwm.o
 .debug_line    0x000025fc      0x118 build\lib\source\lpc17xx_nvic.o
 .debug_line    0x00002714      0x15d build\lib\source\lpc17xx_pinsel.o
 .debug_line    0x00002871      0x3e4 build\lib\source\lpc17xx_pwm.o
 .debug_line    0x00002c55      0x3dc build\lib\source\lpc17xx_qei.o
 .debug_line    0x00003031      0x18e build\lib\source\lpc17xx_rit.o
 .debug_line    0x000031bf      0x24a build\lib\source\lpc17xx_spi.o
 .debug_line    0x00003409      0x160 build\lib\source\lpc17xx_systick.o
 .debug_line    0x00003569      0x3bb build\lib\source\lpc17xx_timer.o
 .debug_line    0x00003924      0x69c build\lib\source\lpc17xx_uart.o
 .debug_line    0x00003fc0      0x1c5 build\lib\source\lpc17xx_wdt.o
 .debug_line    0x00004185       0x1d build\system\core_cm3.o
 .debug_line    0x000041a2      0x297 build\system\system_LPC17xx.o
 .debug_line    0x00004439      0x1dd build\USBCDC\cdcuser.o
 .debug_line    0x00004616      0x1e7 build\USBCDC\serial.o
 .debug_line    0x000047fd      0x3e9 build\USBCDC\usbcore.o
 .debug_line    0x00004be6       0xaa build\USBCDC\usbdesc.o
 .debug_line    0x00004c90      0x2bb build\USBCDC\usbhw.o
 .debug_line    0x00004f4b      0x123 build\USBCDC\usbuser.o
 .debug_line    0x0000506e      0x155 build\USBCDC\vcomdemo.o
 .debug_line    0x000051c3      0x10c src\shared\PID.o
 .debug_line    0x000052cf      0x1a6 src\shared\Packet.o
 .debug_line    0x00005475      0x3d0 build\Command.o
 .debug_line    0x00005845      0x205 build\DebugPacketProcessor.o
 .debug_line    0x00005a4a      0x103 build\EepromMap.o
 .debug_line    0x00005b4d      0x6e3 build\Host.o
 .debug_line    0x00006230      0x208 build\Interface.o
 .debug_line    0x00006438      0x29e build\InterfaceBoard.o
 .debug_line    0x000066d6      0x104 build\LPCPort.o
 .debug_line    0x000067da      0x35e build\LiquidCrystal.o
 .debug_line    0x00006b38      0x249 build\Main.o
 .debug_line    0x00006d81      0x4a6 build\Menu.o
 .debug_line    0x00007227      0x3b8 build\Motherboard.o
 .debug_line    0x000075df      0x102 build\PID.o
 .debug_line    0x000076e1       0xde build\PSU.o
 .debug_line    0x000077bf      0x18c build\Packet.o
 .debug_line    0x0000794b      0x25d build\SDCard.o
 .debug_line    0x00007ba8      0x226 build\StepperInterface.o
 .debug_line    0x00007dce      0x3b3 build\Steppers.o
 .debug_line    0x00008181      0x174 build\Timeout.o
 .debug_line    0x000082f5      0x255 build\Tool.o
 .debug_line    0x0000854a      0x27c build\UART.o

.debug_frame    0x00000000     0x805c
 *(.debug_frame)
 .debug_frame   0x00000000      0x3d0 build\lib_sd\fat.o
 .debug_frame   0x000003d0       0x4c build\lib_sd\partition.o
 .debug_frame   0x0000041c      0x184 build\lib_sd\sd_raw.o
 .debug_frame   0x000005a0      0x170 build\lib\source\debug_frmwrk.o
 .debug_frame   0x00000710      0x1ac build\lib\source\lpc17xx_adc.o
 .debug_frame   0x000008bc       0xe4 build\lib\source\lpc17xx_clkpwr.o
 .debug_frame   0x000009a0       0xb0 build\lib\source\lpc17xx_dac.o
 .debug_frame   0x00000a50       0xb4 build\lib\source\lpc17xx_exti.o
 .debug_frame   0x00000b04       0xa4 build\lib\source\lpc17xx_gpdma.o
 .debug_frame   0x00000ba8      0x398 build\lib\source\lpc17xx_gpio.o
 .debug_frame   0x00000f40      0x2d0 build\lib\source\lpc17xx_i2c.o
 .debug_frame   0x00001210      0x2c8 build\lib\source\lpc17xx_i2s.o
 .debug_frame   0x000014d8       0x2c build\lib\source\lpc17xx_libcfg_default.o
 .debug_frame   0x00001504      0x1b8 build\lib\source\lpc17xx_mcpwm.o
 .debug_frame   0x000016bc       0x64 build\lib\source\lpc17xx_nvic.o
 .debug_frame   0x00001720       0xbc build\lib\source\lpc17xx_pinsel.o
 .debug_frame   0x000017dc      0x1d0 build\lib\source\lpc17xx_pwm.o
 .debug_frame   0x000019ac      0x2b0 build\lib\source\lpc17xx_qei.o
 .debug_frame   0x00001c5c       0xd0 build\lib\source\lpc17xx_rit.o
 .debug_frame   0x00001d2c      0x1ac build\lib\source\lpc17xx_spi.o
 .debug_frame   0x00001ed8       0xc0 build\lib\source\lpc17xx_systick.o
 .debug_frame   0x00001f98      0x208 build\lib\source\lpc17xx_timer.o
 .debug_frame   0x000021a0      0x3a0 build\lib\source\lpc17xx_uart.o
 .debug_frame   0x00002540       0xf0 build\lib\source\lpc17xx_wdt.o
 .debug_frame   0x00002630      0x14c build\system\system_LPC17xx.o
 .debug_frame   0x0000277c      0x1f0 build\USBCDC\cdcuser.o
 .debug_frame   0x0000296c      0x170 build\USBCDC\serial.o
 .debug_frame   0x00002adc      0x1bc build\USBCDC\usbcore.o
 .debug_frame   0x00002c98      0x334 build\USBCDC\usbhw.o
 .debug_frame   0x00002fcc      0x1f0 build\USBCDC\usbuser.o
 .debug_frame   0x000031bc       0xa8 build\USBCDC\vcomdemo.o
 .debug_frame   0x00003264       0xe4 src\shared\PID.o
 .debug_frame   0x00003348      0x230 src\shared\Packet.o
 .debug_frame   0x00003578      0x2cc build\Command.o
 .debug_frame   0x00003844       0xa0 build\DebugPacketProcessor.o
 .debug_frame   0x000038e4       0x64 build\EepromMap.o
 .debug_frame   0x00003948      0x4dc build\Host.o
 .debug_frame   0x00003e24      0x1f4 build\Interface.o
 .debug_frame   0x00004018      0x238 build\InterfaceBoard.o
 .debug_frame   0x00004250       0x68 build\LPCPort.o
 .debug_frame   0x000042b8      0x52c build\LiquidCrystal.o
 .debug_frame   0x000047e4       0xd8 build\Main.o
 .debug_frame   0x000048bc      0x600 build\Menu.o
 .debug_frame   0x00004ebc      0x31c build\Motherboard.o
 .debug_frame   0x000051d8       0xe4 build\PID.o
 .debug_frame   0x000052bc       0x48 build\PSU.o
 .debug_frame   0x00005304      0x230 build\Packet.o
 .debug_frame   0x00005534      0x2e0 build\SDCard.o
 .debug_frame   0x00005814      0x1cc build\StepperInterface.o
 .debug_frame   0x000059e0      0x308 build\Steppers.o
 .debug_frame   0x00005ce8       0xa0 build\Timeout.o
 .debug_frame   0x00005d88      0x20c build\Tool.o
 .debug_frame   0x00005f94      0x218 build\UART.o
 .debug_frame   0x000061ac       0xac c:/progra~2/codesourcery/source~1/bin/../lib/gcc/arm-none-eabi/4.5.2/../../../../arm-none-eabi/lib/thumb2\libstdc++.a(si_class_type_info.o)
 .debug_frame   0x00006258       0x20 c:/progra~2/codesourcery/source~1/bin/../lib/gcc/arm-none-eabi/4.5.2/../../../../arm-none-eabi/lib/thumb2\libstdc++.a(del_op.o)
 .debug_frame   0x00006278       0x28 c:/progra~2/codesourcery/source~1/bin/../lib/gcc/arm-none-eabi/4.5.2/../../../../arm-none-eabi/lib/thumb2\libstdc++.a(pure.o)
 .debug_frame   0x000062a0       0xd0 c:/progra~2/codesourcery/source~1/bin/../lib/gcc/arm-none-eabi/4.5.2/../../../../arm-none-eabi/lib/thumb2\libstdc++.a(class_type_info.o)
 .debug_frame   0x00006370       0x90 c:/progra~2/codesourcery/source~1/bin/../lib/gcc/arm-none-eabi/4.5.2/../../../../arm-none-eabi/lib/thumb2\libstdc++.a(tinfo.o)
 .debug_frame   0x00006400       0x90 c:/progra~2/codesourcery/source~1/bin/../lib/gcc/arm-none-eabi/4.5.2/../../../../arm-none-eabi/lib/thumb2\libstdc++.a(eh_terminate.o)
 .debug_frame   0x00006490       0x54 c:/progra~2/codesourcery/source~1/bin/../lib/gcc/arm-none-eabi/4.5.2/../../../../arm-none-eabi/lib/thumb2\libstdc++.a(eh_call.o)
 .debug_frame   0x000064e4       0xb4 c:/progra~2/codesourcery/source~1/bin/../lib/gcc/arm-none-eabi/4.5.2/../../../../arm-none-eabi/lib/thumb2\libstdc++.a(eh_personality.o)
 .debug_frame   0x00006598       0x60 c:/progra~2/codesourcery/source~1/bin/../lib/gcc/arm-none-eabi/4.5.2/../../../../arm-none-eabi/lib/thumb2\libstdc++.a(eh_throw.o)
 .debug_frame   0x000065f8       0x30 c:/progra~2/codesourcery/source~1/bin/../lib/gcc/arm-none-eabi/4.5.2/../../../../arm-none-eabi/lib/thumb2\libstdc++.a(eh_globals.o)
 .debug_frame   0x00006628       0x6c c:/progra~2/codesourcery/source~1/bin/../lib/gcc/arm-none-eabi/4.5.2/../../../../arm-none-eabi/lib/thumb2\libstdc++.a(eh_catch.o)
 .debug_frame   0x00006694       0x30 c:/progra~2/codesourcery/source~1/bin/../lib/gcc/arm-none-eabi/4.5.2/../../../../arm-none-eabi/lib/thumb2\libstdc++.a(vterminate.o)
 .debug_frame   0x000066c4       0xd0 c:/progra~2/codesourcery/source~1/bin/../lib/gcc/arm-none-eabi/4.5.2/../../../../arm-none-eabi/lib/thumb2\libstdc++.a(eh_exception.o)
 .debug_frame   0x00006794       0x28 c:/progra~2/codesourcery/source~1/bin/../lib/gcc/arm-none-eabi/4.5.2/../../../../arm-none-eabi/lib/thumb2\libstdc++.a(eh_type.o)
 .debug_frame   0x000067bc       0x64 c:/progra~2/codesourcery/source~1/bin/../lib/gcc/arm-none-eabi/4.5.2/../../../../arm-none-eabi/lib/thumb2\libstdc++.a(eh_arm.o)
 .debug_frame   0x00006820       0x80 c:/progra~2/codesourcery/source~1/bin/../lib/gcc/arm-none-eabi/4.5.2/../../../../arm-none-eabi/lib/thumb2\libstdc++.a(eh_alloc.o)
 .debug_frame   0x000068a0      0x488 c:/progra~2/codesourcery/source~1/bin/../lib/gcc/arm-none-eabi/4.5.2/../../../../arm-none-eabi/lib/thumb2\libstdc++.a(cp-demangle.o)
 .debug_frame   0x00006d28       0x50 c:/progra~2/codesourcery/source~1/bin/../lib/gcc/arm-none-eabi/4.5.2/thumb2\libgcc.a(bpabi.o)
 .debug_frame   0x00006d78      0x288 c:/progra~2/codesourcery/source~1/bin/../lib/gcc/arm-none-eabi/4.5.2/thumb2\libgcc.a(unwind-arm.o)
 .debug_frame   0x00007000       0xf4 c:/progra~2/codesourcery/source~1/bin/../lib/gcc/arm-none-eabi/4.5.2/thumb2\libgcc.a(pr-support.o)
 .debug_frame   0x000070f4       0x3c c:/progra~2/codesourcery/source~1/bin/../lib/gcc/arm-none-eabi/4.5.2/thumb2\libgcc.a(_divdi3.o)
 .debug_frame   0x00007130       0x3c c:/progra~2/codesourcery/source~1/bin/../lib/gcc/arm-none-eabi/4.5.2/thumb2\libgcc.a(_udivdi3.o)
 .debug_frame   0x0000716c       0x20 c:/progra~2/codesourcery/source~1/bin/../lib/gcc/arm-none-eabi/4.5.2/thumb2\libgcc.a(_udivsi3.o)
 .debug_frame   0x0000718c       0x28 c:/progra~2/codesourcery/source~1/bin/../lib/gcc/arm-none-eabi/4.5.2/../../../../arm-none-eabi/lib/thumb2\libc.a(lib_a-abort.o)
 .debug_frame   0x000071b4       0x48 c:/progra~2/codesourcery/source~1/bin/../lib/gcc/arm-none-eabi/4.5.2/../../../../arm-none-eabi/lib/thumb2\libc.a(lib_a-fputc.o)
 .debug_frame   0x000071fc       0x40 c:/progra~2/codesourcery/source~1/bin/../lib/gcc/arm-none-eabi/4.5.2/../../../../arm-none-eabi/lib/thumb2\libc.a(lib_a-fputs.o)
 .debug_frame   0x0000723c       0x3c c:/progra~2/codesourcery/source~1/bin/../lib/gcc/arm-none-eabi/4.5.2/../../../../arm-none-eabi/lib/thumb2\libc.a(lib_a-fvwrite.o)
 .debug_frame   0x00007278       0x58 c:/progra~2/codesourcery/source~1/bin/../lib/gcc/arm-none-eabi/4.5.2/../../../../arm-none-eabi/lib/thumb2\libc.a(lib_a-fwrite.o)
 .debug_frame   0x000072d0       0x30 c:/progra~2/codesourcery/source~1/bin/../lib/gcc/arm-none-eabi/4.5.2/../../../../arm-none-eabi/lib/thumb2\libc.a(lib_a-malloc.o)
 .debug_frame   0x00007300       0x3c c:/progra~2/codesourcery/source~1/bin/../lib/gcc/arm-none-eabi/4.5.2/../../../../arm-none-eabi/lib/thumb2\libc.a(lib_a-mallocr.o)
 .debug_frame   0x0000733c       0x2c c:/progra~2/codesourcery/source~1/bin/../lib/gcc/arm-none-eabi/4.5.2/../../../../arm-none-eabi/lib/thumb2\libc.a(lib_a-memchr.o)
 .debug_frame   0x00007368       0x2c c:/progra~2/codesourcery/source~1/bin/../lib/gcc/arm-none-eabi/4.5.2/../../../../arm-none-eabi/lib/thumb2\libc.a(lib_a-memcmp.o)
 .debug_frame   0x00007394       0x30 c:/progra~2/codesourcery/source~1/bin/../lib/gcc/arm-none-eabi/4.5.2/../../../../arm-none-eabi/lib/thumb2\libc.a(lib_a-memcpy.o)
 .debug_frame   0x000073c4       0x2c c:/progra~2/codesourcery/source~1/bin/../lib/gcc/arm-none-eabi/4.5.2/../../../../arm-none-eabi/lib/thumb2\libc.a(lib_a-memmove.o)
 .debug_frame   0x000073f0       0x2c c:/progra~2/codesourcery/source~1/bin/../lib/gcc/arm-none-eabi/4.5.2/../../../../arm-none-eabi/lib/thumb2\libc.a(lib_a-memset.o)
 .debug_frame   0x0000741c       0x30 c:/progra~2/codesourcery/source~1/bin/../lib/gcc/arm-none-eabi/4.5.2/../../../../arm-none-eabi/lib/thumb2\libc.a(lib_a-mlock.o)
 .debug_frame   0x0000744c       0x48 c:/progra~2/codesourcery/source~1/bin/../lib/gcc/arm-none-eabi/4.5.2/../../../../arm-none-eabi/lib/thumb2\libc.a(lib_a-putc.o)
 .debug_frame   0x00007494       0x48 c:/progra~2/codesourcery/source~1/bin/../lib/gcc/arm-none-eabi/4.5.2/../../../../arm-none-eabi/lib/thumb2\libc.a(lib_a-rand.o)
 .debug_frame   0x000074dc       0x20 c:/progra~2/codesourcery/source~1/bin/../lib/gcc/arm-none-eabi/4.5.2/../../../../arm-none-eabi/lib/thumb2\libc.a(lib_a-realloc.o)
 .debug_frame   0x000074fc       0x3c c:/progra~2/codesourcery/source~1/bin/../lib/gcc/arm-none-eabi/4.5.2/../../../../arm-none-eabi/lib/thumb2\libc.a(lib_a-reallocr.o)
 .debug_frame   0x00007538       0xc0 c:/progra~2/codesourcery/source~1/bin/../lib/gcc/arm-none-eabi/4.5.2/../../../../arm-none-eabi/lib/thumb2\libc.a(lib_a-signal.o)
 .debug_frame   0x000075f8       0x3c c:/progra~2/codesourcery/source~1/bin/../lib/gcc/arm-none-eabi/4.5.2/../../../../arm-none-eabi/lib/thumb2\libc.a(lib_a-signalr.o)
 .debug_frame   0x00007634       0x64 c:/progra~2/codesourcery/source~1/bin/../lib/gcc/arm-none-eabi/4.5.2/../../../../arm-none-eabi/lib/thumb2\libc.a(lib_a-sprintf.o)
 .debug_frame   0x00007698       0x2c c:/progra~2/codesourcery/source~1/bin/../lib/gcc/arm-none-eabi/4.5.2/../../../../arm-none-eabi/lib/thumb2\libc.a(lib_a-strchr.o)
 .debug_frame   0x000076c4       0x30 c:/progra~2/codesourcery/source~1/bin/../lib/gcc/arm-none-eabi/4.5.2/../../../../arm-none-eabi/lib/thumb2\libc.a(lib_a-strcmp.o)
 .debug_frame   0x000076f4       0x20 c:/progra~2/codesourcery/source~1/bin/../lib/gcc/arm-none-eabi/4.5.2/../../../../arm-none-eabi/lib/thumb2\libc.a(lib_a-strcpy.o)
 .debug_frame   0x00007714       0x20 c:/progra~2/codesourcery/source~1/bin/../lib/gcc/arm-none-eabi/4.5.2/../../../../arm-none-eabi/lib/thumb2\libc.a(lib_a-strlen.o)
 .debug_frame   0x00007734       0x2c c:/progra~2/codesourcery/source~1/bin/../lib/gcc/arm-none-eabi/4.5.2/../../../../arm-none-eabi/lib/thumb2\libc.a(lib_a-strncmp.o)
 .debug_frame   0x00007760       0x2c c:/progra~2/codesourcery/source~1/bin/../lib/gcc/arm-none-eabi/4.5.2/../../../../arm-none-eabi/lib/thumb2\libc.a(lib_a-strncpy.o)
 .debug_frame   0x0000778c       0x2c c:/progra~2/codesourcery/source~1/bin/../lib/gcc/arm-none-eabi/4.5.2/../../../../arm-none-eabi/lib/thumb2\libc.a(lib_a-strrchr.o)
 .debug_frame   0x000077b8       0x3c c:/progra~2/codesourcery/source~1/bin/../lib/gcc/arm-none-eabi/4.5.2/../../../../arm-none-eabi/lib/thumb2\libc.a(lib_a-svfprintf.o)
 .debug_frame   0x000077f4       0x28 c:/progra~2/codesourcery/source~1/bin/../lib/gcc/arm-none-eabi/4.5.2/../../../../arm-none-eabi/lib/thumb2\libc.a(lib_a-syswrite.o)
 .debug_frame   0x0000781c       0x3c c:/progra~2/codesourcery/source~1/bin/../lib/gcc/arm-none-eabi/4.5.2/../../../../arm-none-eabi/lib/thumb2\libc.a(lib_a-wbuf.o)
 .debug_frame   0x00007858       0x2c c:/progra~2/codesourcery/source~1/bin/../lib/gcc/arm-none-eabi/4.5.2/../../../../arm-none-eabi/lib/thumb2\libc.a(lib_a-wsetup.o)
 .debug_frame   0x00007884       0x68 c:/progra~2/codesourcery/source~1/bin/../lib/gcc/arm-none-eabi/4.5.2/../../../../arm-none-eabi/lib/thumb2\libc.a(lib_a-dtoa.o)
 .debug_frame   0x000078ec       0x40 c:/progra~2/codesourcery/source~1/bin/../lib/gcc/arm-none-eabi/4.5.2/../../../../arm-none-eabi/lib/thumb2\libc.a(lib_a-fflush.o)
 .debug_frame   0x0000792c      0x114 c:/progra~2/codesourcery/source~1/bin/../lib/gcc/arm-none-eabi/4.5.2/../../../../arm-none-eabi/lib/thumb2\libc.a(lib_a-findfp.o)
 .debug_frame   0x00007a40       0x50 c:/progra~2/codesourcery/source~1/bin/../lib/gcc/arm-none-eabi/4.5.2/../../../../arm-none-eabi/lib/thumb2\libc.a(lib_a-freer.o)
 .debug_frame   0x00007a90       0x58 c:/progra~2/codesourcery/source~1/bin/../lib/gcc/arm-none-eabi/4.5.2/../../../../arm-none-eabi/lib/thumb2\libc.a(lib_a-fwalk.o)
 .debug_frame   0x00007ae8       0x98 c:/progra~2/codesourcery/source~1/bin/../lib/gcc/arm-none-eabi/4.5.2/../../../../arm-none-eabi/lib/thumb2\libc.a(lib_a-locale.o)
 .debug_frame   0x00007b80       0x34 c:/progra~2/codesourcery/source~1/bin/../lib/gcc/arm-none-eabi/4.5.2/../../../../arm-none-eabi/lib/thumb2\libc.a(lib_a-makebuf.o)
 .debug_frame   0x00007bb4      0x244 c:/progra~2/codesourcery/source~1/bin/../lib/gcc/arm-none-eabi/4.5.2/../../../../arm-none-eabi/lib/thumb2\libc.a(lib_a-mprec.o)
 .debug_frame   0x00007df8       0x68 c:/progra~2/codesourcery/source~1/bin/../lib/gcc/arm-none-eabi/4.5.2/../../../../arm-none-eabi/lib/thumb2\libc.a(lib_a-reent.o)
 .debug_frame   0x00007e60       0x28 c:/progra~2/codesourcery/source~1/bin/../lib/gcc/arm-none-eabi/4.5.2/../../../../arm-none-eabi/lib/thumb2\libc.a(lib_a-s_fpclassify.o)
 .debug_frame   0x00007e88       0x80 c:/progra~2/codesourcery/source~1/bin/../lib/gcc/arm-none-eabi/4.5.2/../../../../arm-none-eabi/lib/thumb2\libc.a(lib_a-stdio.o)
 .debug_frame   0x00007f08       0x68 c:/progra~2/codesourcery/source~1/bin/../lib/gcc/arm-none-eabi/4.5.2/../../../../arm-none-eabi/lib/thumb2\libc.a(lib_a-svfiprintf.o)
 .debug_frame   0x00007f70       0x2c c:/progra~2/codesourcery/source~1/bin/../lib/gcc/arm-none-eabi/4.5.2/../../../../arm-none-eabi/lib/thumb2\libc.a(lib_a-callocr.o)
 .debug_frame   0x00007f9c       0x3c c:/progra~2/codesourcery/source~1/bin/../lib/gcc/arm-none-eabi/4.5.2/../../../../arm-none-eabi/lib/thumb2\libc.a(lib_a-fclose.o)
 .debug_frame   0x00007fd8       0x2c c:/progra~2/codesourcery/source~1/bin/../lib/gcc/arm-none-eabi/4.5.2/../../../../arm-none-eabi/lib/thumb2\libc.a(lib_a-fstatr.o)
 .debug_frame   0x00008004       0x2c c:/progra~2/codesourcery/source~1/bin/../lib/gcc/arm-none-eabi/4.5.2/../../../../arm-none-eabi/lib/thumb2\libc.a(lib_a-isattyr.o)
 .debug_frame   0x00008030       0x2c c:/progra~2/codesourcery/source~1/bin/../lib/gcc/arm-none-eabi/4.5.2/../../../../arm-none-eabi/lib/thumb2\libc.a(lib_a-lseekr.o)

.debug_str      0x00000000     0x9742
 *(.debug_str)
 .debug_str     0x00000000       0x95 build\lib_sd\byteordering.o
                                 0xc9 (size before relaxing)
 .debug_str     0x00000095      0x726 build\lib_sd\fat.o
                                0x8a5 (size before relaxing)
 .debug_str     0x000007bb       0x58 build\lib_sd\partition.o
                                0x244 (size before relaxing)
 .debug_str     0x00000813      0x346 build\lib_sd\sd_raw.o
                                0x4b2 (size before relaxing)
 .debug_str     0x00000b59      0x2fc build\lib\source\debug_frmwrk.o
                                0x3f0 (size before relaxing)
 .debug_str     0x00000e55      0x376 build\lib\source\lpc17xx_adc.o
                                0x490 (size before relaxing)
 .debug_str     0x000011cb      0x22d build\lib\source\lpc17xx_clkpwr.o
                                0x37d (size before relaxing)
 .debug_str     0x000013f8      0x138 build\lib\source\lpc17xx_dac.o
                                0x219 (size before relaxing)
 .debug_str     0x00001530      0x199 build\lib\source\lpc17xx_exti.o
                                0x3c1 (size before relaxing)
 .debug_str     0x000016c9      0x451 build\lib\source\lpc17xx_gpdma.o
                                0x686 (size before relaxing)
 .debug_str     0x00001b1a      0x43e build\lib\source\lpc17xx_gpio.o
                                0x552 (size before relaxing)
 .debug_str     0x00001f58      0x6a1 build\lib\source\lpc17xx_i2c.o
                                0x83d (size before relaxing)
 .debug_str     0x000025f9      0x1e3 build\lib\source\lpc17xx_i2s.o
                                0x3d2 (size before relaxing)
 .debug_str     0x000027dc       0x37 build\lib\source\lpc17xx_libcfg_default.o
                                0x104 (size before relaxing)
 .debug_str     0x00002813      0x407 build\lib\source\lpc17xx_mcpwm.o
                                0x51b (size before relaxing)
 .debug_str     0x00002c1a       0x48 build\lib\source\lpc17xx_nvic.o
                                0x1d8 (size before relaxing)
 .debug_str     0x00002c62      0x205 build\lib\source\lpc17xx_pinsel.o
                                0x356 (size before relaxing)
 .debug_str     0x00002e67      0x421 build\lib\source\lpc17xx_pwm.o
                                0x58f (size before relaxing)
 .debug_str     0x00003288      0x35b build\lib\source\lpc17xx_qei.o
                                0x49d (size before relaxing)
 .debug_str     0x000035e3       0xc8 build\lib\source\lpc17xx_rit.o
                                0x1e9 (size before relaxing)
 .debug_str     0x000036ab      0x171 build\lib\source\lpc17xx_spi.o
                                0x389 (size before relaxing)
 .debug_str     0x0000381c       0xc4 build\lib\source\lpc17xx_systick.o
                                0x1e3 (size before relaxing)
 .debug_str     0x000038e0      0x34b build\lib\source\lpc17xx_timer.o
                                0x584 (size before relaxing)
 .debug_str     0x00003c2b      0x7ef build\lib\source\lpc17xx_uart.o
                                0xb2f (size before relaxing)
 .debug_str     0x0000441a      0x175 build\lib\source\lpc17xx_wdt.o
                                0x2a0 (size before relaxing)
 .debug_str     0x0000458f       0x18 build\system\core_cm3.o
                                 0xc5 (size before relaxing)
 .debug_str     0x000045a7      0x437 build\system\system_LPC17xx.o
                                0x766 (size before relaxing)
 .debug_str     0x000049de      0x28e build\USBCDC\cdcuser.o
                                0x396 (size before relaxing)
 .debug_str     0x00004c6c      0x108 build\USBCDC\serial.o
                                0x780 (size before relaxing)
 .debug_str     0x00004d74      0x42c build\USBCDC\usbcore.o
                                0x5c6 (size before relaxing)
 .debug_str     0x000051a0       0x17 build\USBCDC\usbdesc.o
                                0x110 (size before relaxing)
 .debug_str     0x000051b7      0x52f build\USBCDC\usbhw.o
                                0xb3d (size before relaxing)
 .debug_str     0x000056e6      0x11f build\USBCDC\usbuser.o
                                0x211 (size before relaxing)
 .debug_str     0x00005805       0x80 build\USBCDC\vcomdemo.o
                                0x199 (size before relaxing)
 .debug_str     0x00005885      0x1f2 src\shared\PID.o
                                0x2ad (size before relaxing)
 .debug_str     0x00005a77      0x431 src\shared\Packet.o
                                0x553 (size before relaxing)
 .debug_str     0x00005ea8      0x7a8 build\Command.o
                                0xd2d (size before relaxing)
 .debug_str     0x00006650      0x7de build\DebugPacketProcessor.o
                                0xe2d (size before relaxing)
 .debug_str     0x00006e2e       0xbf build\EepromMap.o
                                0x250 (size before relaxing)
 .debug_str     0x00006eed      0x816 build\Host.o
                               0x16b2 (size before relaxing)
 .debug_str     0x00007703      0x41b build\Interface.o
                                0x6fc (size before relaxing)
 .debug_str     0x00007b1e      0x115 build\InterfaceBoard.o
                                0x715 (size before relaxing)
 .debug_str     0x00007c33       0x41 build\LPCPort.o
                                0x1fa (size before relaxing)
 .debug_str     0x00007c74      0x5a1 build\LiquidCrystal.o
                                0x828 (size before relaxing)
 .debug_str     0x00008215       0x49 build\Main.o
                               0x1002 (size before relaxing)
 .debug_str     0x0000825e      0x7f4 build\Menu.o
                               0x119b (size before relaxing)
 .debug_str     0x00008a52      0x15a build\Motherboard.o
                                0xf7a (size before relaxing)
 .debug_str     0x00008bac        0xd build\PID.o
                                0x2a8 (size before relaxing)
 .debug_str     0x00008bb9        0xd build\PSU.o
                                0x10c (size before relaxing)
 .debug_str     0x00008bc6       0x10 build\Packet.o
                                0x54e (size before relaxing)
 .debug_str     0x00008bd6      0x4b1 build\SDCard.o
                                0x9e3 (size before relaxing)
 .debug_str     0x00009087       0x4f build\StepperInterface.o
                                0x484 (size before relaxing)
 .debug_str     0x000090d6      0x439 build\Steppers.o
                               0x10aa (size before relaxing)
 .debug_str     0x0000950f       0x24 build\Timeout.o
                                0xbae (size before relaxing)
 .debug_str     0x00009533      0x1a5 build\Tool.o
                                0xe14 (size before relaxing)
 .debug_str     0x000096d8       0x6a build\UART.o
                                0x9f7 (size before relaxing)

.debug_loc      0x00000000     0xaa6c
 *(.debug_loc)
 .debug_loc     0x00000000      0x6d2 build\lib_sd\fat.o
 .debug_loc     0x000006d2       0x70 build\lib_sd\partition.o
 .debug_loc     0x00000742      0x27c build\lib_sd\sd_raw.o
 .debug_loc     0x000009be      0x268 build\lib\source\debug_frmwrk.o
 .debug_loc     0x00000c26      0x2d8 build\lib\source\lpc17xx_adc.o
 .debug_loc     0x00000efe      0x190 build\lib\source\lpc17xx_clkpwr.o
 .debug_loc     0x0000108e      0x118 build\lib\source\lpc17xx_dac.o
 .debug_loc     0x000011a6      0x138 build\lib\source\lpc17xx_exti.o
 .debug_loc     0x000012de      0x10c build\lib\source\lpc17xx_gpdma.o
 .debug_loc     0x000013ea      0x658 build\lib\source\lpc17xx_gpio.o
 .debug_loc     0x00001a42      0x508 build\lib\source\lpc17xx_i2c.o
 .debug_loc     0x00001f4a      0x4d0 build\lib\source\lpc17xx_i2s.o
 .debug_loc     0x0000241a       0x38 build\lib\source\lpc17xx_libcfg_default.o
 .debug_loc     0x00002452      0x348 build\lib\source\lpc17xx_mcpwm.o
 .debug_loc     0x0000279a       0xa8 build\lib\source\lpc17xx_nvic.o
 .debug_loc     0x00002842      0x150 build\lib\source\lpc17xx_pinsel.o
 .debug_loc     0x00002992      0x310 build\lib\source\lpc17xx_pwm.o
 .debug_loc     0x00002ca2      0x49a build\lib\source\lpc17xx_qei.o
 .debug_loc     0x0000313c      0x150 build\lib\source\lpc17xx_rit.o
 .debug_loc     0x0000328c      0x2d8 build\lib\source\lpc17xx_spi.o
 .debug_loc     0x00003564      0x138 build\lib\source\lpc17xx_systick.o
 .debug_loc     0x0000369c      0x380 build\lib\source\lpc17xx_timer.o
 .debug_loc     0x00003a1c      0x65a build\lib\source\lpc17xx_uart.o
 .debug_loc     0x00004076      0x190 build\lib\source\lpc17xx_wdt.o
 .debug_loc     0x00004206      0x250 build\system\system_LPC17xx.o
 .debug_loc     0x00004456      0x37c build\USBCDC\cdcuser.o
 .debug_loc     0x000047d2      0x2a0 build\USBCDC\serial.o
 .debug_loc     0x00004a72      0x2f4 build\USBCDC\usbcore.o
 .debug_loc     0x00004d66      0x5ac build\USBCDC\usbhw.o
 .debug_loc     0x00005312      0x3a0 build\USBCDC\usbuser.o
 .debug_loc     0x000056b2      0x100 build\USBCDC\vcomdemo.o
 .debug_loc     0x000057b2      0x188 src\shared\PID.o
 .debug_loc     0x0000593a      0x3f0 src\shared\Packet.o
 .debug_loc     0x00005d2a      0x506 build\Command.o
 .debug_loc     0x00006230      0x102 build\DebugPacketProcessor.o
 .debug_loc     0x00006332       0xa8 build\EepromMap.o
 .debug_loc     0x000063da      0x8b4 build\Host.o
 .debug_loc     0x00006c8e      0x338 build\Interface.o
 .debug_loc     0x00006fc6      0x3f2 build\InterfaceBoard.o
 .debug_loc     0x000073b8       0x9c build\LPCPort.o
 .debug_loc     0x00007454      0x8f0 build\LiquidCrystal.o
 .debug_loc     0x00007d44      0x170 build\Main.o
 .debug_loc     0x00007eb4      0xada build\Menu.o
 .debug_loc     0x0000898e      0x578 build\Motherboard.o
 .debug_loc     0x00008f06      0x188 build\PID.o
 .debug_loc     0x0000908e       0x70 build\PSU.o
 .debug_loc     0x000090fe      0x3f0 build\Packet.o
 .debug_loc     0x000094ee      0x4e8 build\SDCard.o
 .debug_loc     0x000099d6      0x310 build\StepperInterface.o
 .debug_loc     0x00009ce6      0x556 build\Steppers.o
 .debug_loc     0x0000a23c      0x10c build\Timeout.o
 .debug_loc     0x0000a348      0x384 build\Tool.o
 .debug_loc     0x0000a6cc      0x3a0 build\UART.o

.debug_macinfo
 *(.debug_macinfo)

.debug_weaknames
 *(.debug_weaknames)

.debug_funcnames
 *(.debug_funcnames)

.debug_typenames
 *(.debug_typenames)

.debug_varnames
 *(.debug_varnames)

.note.gnu.arm.ident
 *(.note.gnu.arm.ident)

.ARM.attributes
                0x00000000       0x2f
 *(.ARM.attributes)
 .ARM.attributes
                0x00000000       0x31 build\lib_sd\byteordering.o
 .ARM.attributes
                0x00000031       0x31 build\lib_sd\fat.o
 .ARM.attributes
                0x00000062       0x31 build\lib_sd\partition.o
 .ARM.attributes
                0x00000093       0x31 build\lib_sd\sd_raw.o
 .ARM.attributes
                0x000000c4       0x31 build\lib\source\debug_frmwrk.o
 .ARM.attributes
                0x000000f5       0x31 build\lib\source\lpc17xx_adc.o
 .ARM.attributes
                0x00000126       0x31 build\lib\source\lpc17xx_clkpwr.o
 .ARM.attributes
                0x00000157       0x31 build\lib\source\lpc17xx_dac.o
 .ARM.attributes
                0x00000188       0x31 build\lib\source\lpc17xx_exti.o
 .ARM.attributes
                0x000001b9       0x31 build\lib\source\lpc17xx_gpdma.o
 .ARM.attributes
                0x000001ea       0x31 build\lib\source\lpc17xx_gpio.o
 .ARM.attributes
                0x0000021b       0x31 build\lib\source\lpc17xx_i2c.o
 .ARM.attributes
                0x0000024c       0x31 build\lib\source\lpc17xx_i2s.o
 .ARM.attributes
                0x0000027d       0x31 build\lib\source\lpc17xx_libcfg_default.o
 .ARM.attributes
                0x000002ae       0x31 build\lib\source\lpc17xx_mcpwm.o
 .ARM.attributes
                0x000002df       0x31 build\lib\source\lpc17xx_nvic.o
 .ARM.attributes
                0x00000310       0x31 build\lib\source\lpc17xx_pinsel.o
 .ARM.attributes
                0x00000341       0x31 build\lib\source\lpc17xx_pwm.o
 .ARM.attributes
                0x00000372       0x31 build\lib\source\lpc17xx_qei.o
 .ARM.attributes
                0x000003a3       0x31 build\lib\source\lpc17xx_rit.o
 .ARM.attributes
                0x000003d4       0x31 build\lib\source\lpc17xx_spi.o
 .ARM.attributes
                0x00000405       0x31 build\lib\source\lpc17xx_systick.o
 .ARM.attributes
                0x00000436       0x31 build\lib\source\lpc17xx_timer.o
 .ARM.attributes
                0x00000467       0x31 build\lib\source\lpc17xx_uart.o
 .ARM.attributes
                0x00000498       0x31 build\lib\source\lpc17xx_wdt.o
 .ARM.attributes
                0x000004c9       0x31 build\system\core_cm3.o
 .ARM.attributes
                0x000004fa       0x31 build\system\system_LPC17xx.o
 .ARM.attributes
                0x0000052b       0x21 build\system\startup_LPC17xx.o
 .ARM.attributes
                0x0000054c       0x31 build\USBCDC\cdcuser.o
 .ARM.attributes
                0x0000057d       0x31 build\USBCDC\serial.o
 .ARM.attributes
                0x000005ae       0x31 build\USBCDC\usbcore.o
 .ARM.attributes
                0x000005df       0x31 build\USBCDC\usbdesc.o
 .ARM.attributes
                0x00000610       0x31 build\USBCDC\usbhw.o
 .ARM.attributes
                0x00000641       0x31 build\USBCDC\usbuser.o
 .ARM.attributes
                0x00000672       0x31 build\USBCDC\vcomdemo.o
 .ARM.attributes
                0x000006a3       0x31 src\shared\PID.o
 .ARM.attributes
                0x000006d4       0x31 src\shared\Packet.o
 .ARM.attributes
                0x00000705       0x31 build\Command.o
 .ARM.attributes
                0x00000736       0x31 build\DebugPacketProcessor.o
 .ARM.attributes
                0x00000767       0x31 build\EepromMap.o
 .ARM.attributes
                0x00000798       0x31 build\Host.o
 .ARM.attributes
                0x000007c9       0x31 build\Interface.o
 .ARM.attributes
                0x000007fa       0x31 build\InterfaceBoard.o
 .ARM.attributes
                0x0000082b       0x31 build\LPCPort.o
 .ARM.attributes
                0x0000085c       0x31 build\LiquidCrystal.o
 .ARM.attributes
                0x0000088d       0x31 build\Main.o
 .ARM.attributes
                0x000008be       0x31 build\Menu.o
 .ARM.attributes
                0x000008ef       0x31 build\Motherboard.o
 .ARM.attributes
                0x00000920       0x31 build\PID.o
 .ARM.attributes
                0x00000951       0x31 build\PSU.o
 .ARM.attributes
                0x00000982       0x31 build\Packet.o
 .ARM.attributes
                0x000009b3       0x31 build\SDCard.o
 .ARM.attributes
                0x000009e4       0x31 build\StepperInterface.o
 .ARM.attributes
                0x00000a15       0x31 build\Steppers.o
 .ARM.attributes
                0x00000a46       0x31 build\Timeout.o
 .ARM.attributes
                0x00000a77       0x31 build\Tool.o
 .ARM.attributes
                0x00000aa8       0x31 build\UART.o
 .ARM.attributes
                0x00000ad9       0x29 c:/progra~2/codesourcery/source~1/bin/../lib/gcc/arm-none-eabi/4.5.2/../../../../arm-none-eabi/lib/thumb2\libstdc++.a(si_class_type_info.o)
 .ARM.attributes
                0x00000b02       0x29 c:/progra~2/codesourcery/source~1/bin/../lib/gcc/arm-none-eabi/4.5.2/../../../../arm-none-eabi/lib/thumb2\libstdc++.a(del_op.o)
 .ARM.attributes
                0x00000b2b       0x29 c:/progra~2/codesourcery/source~1/bin/../lib/gcc/arm-none-eabi/4.5.2/../../../../arm-none-eabi/lib/thumb2\libstdc++.a(pure.o)
 .ARM.attributes
                0x00000b54       0x29 c:/progra~2/codesourcery/source~1/bin/../lib/gcc/arm-none-eabi/4.5.2/../../../../arm-none-eabi/lib/thumb2\libstdc++.a(class_type_info.o)
 .ARM.attributes
                0x00000b7d       0x29 c:/progra~2/codesourcery/source~1/bin/../lib/gcc/arm-none-eabi/4.5.2/../../../../arm-none-eabi/lib/thumb2\libstdc++.a(tinfo.o)
 .ARM.attributes
                0x00000ba6       0x29 c:/progra~2/codesourcery/source~1/bin/../lib/gcc/arm-none-eabi/4.5.2/../../../../arm-none-eabi/lib/thumb2\libstdc++.a(eh_terminate.o)
 .ARM.attributes
                0x00000bcf       0x29 c:/progra~2/codesourcery/source~1/bin/../lib/gcc/arm-none-eabi/4.5.2/../../../../arm-none-eabi/lib/thumb2\libstdc++.a(eh_call.o)
 .ARM.attributes
                0x00000bf8       0x29 c:/progra~2/codesourcery/source~1/bin/../lib/gcc/arm-none-eabi/4.5.2/../../../../arm-none-eabi/lib/thumb2\libstdc++.a(eh_term_handler.o)
 .ARM.attributes
                0x00000c21       0x29 c:/progra~2/codesourcery/source~1/bin/../lib/gcc/arm-none-eabi/4.5.2/../../../../arm-none-eabi/lib/thumb2\libstdc++.a(eh_personality.o)
 .ARM.attributes
                0x00000c4a       0x29 c:/progra~2/codesourcery/source~1/bin/../lib/gcc/arm-none-eabi/4.5.2/../../../../arm-none-eabi/lib/thumb2\libstdc++.a(eh_throw.o)
 .ARM.attributes
                0x00000c73       0x29 c:/progra~2/codesourcery/source~1/bin/../lib/gcc/arm-none-eabi/4.5.2/../../../../arm-none-eabi/lib/thumb2\libstdc++.a(eh_unex_handler.o)
 .ARM.attributes
                0x00000c9c       0x29 c:/progra~2/codesourcery/source~1/bin/../lib/gcc/arm-none-eabi/4.5.2/../../../../arm-none-eabi/lib/thumb2\libstdc++.a(eh_globals.o)
 .ARM.attributes
                0x00000cc5       0x29 c:/progra~2/codesourcery/source~1/bin/../lib/gcc/arm-none-eabi/4.5.2/../../../../arm-none-eabi/lib/thumb2\libstdc++.a(eh_catch.o)
 .ARM.attributes
                0x00000cee       0x29 c:/progra~2/codesourcery/source~1/bin/../lib/gcc/arm-none-eabi/4.5.2/../../../../arm-none-eabi/lib/thumb2\libstdc++.a(vterminate.o)
 .ARM.attributes
                0x00000d17       0x29 c:/progra~2/codesourcery/source~1/bin/../lib/gcc/arm-none-eabi/4.5.2/../../../../arm-none-eabi/lib/thumb2\libstdc++.a(eh_exception.o)
 .ARM.attributes
                0x00000d40       0x29 c:/progra~2/codesourcery/source~1/bin/../lib/gcc/arm-none-eabi/4.5.2/../../../../arm-none-eabi/lib/thumb2\libstdc++.a(eh_type.o)
 .ARM.attributes
                0x00000d69       0x29 c:/progra~2/codesourcery/source~1/bin/../lib/gcc/arm-none-eabi/4.5.2/../../../../arm-none-eabi/lib/thumb2\libstdc++.a(eh_arm.o)
 .ARM.attributes
                0x00000d92       0x29 c:/progra~2/codesourcery/source~1/bin/../lib/gcc/arm-none-eabi/4.5.2/../../../../arm-none-eabi/lib/thumb2\libstdc++.a(eh_alloc.o)
 .ARM.attributes
                0x00000dbb       0x29 c:/progra~2/codesourcery/source~1/bin/../lib/gcc/arm-none-eabi/4.5.2/../../../../arm-none-eabi/lib/thumb2\libstdc++.a(cp-demangle.o)
 .ARM.attributes
                0x00000de4       0x1b c:/progra~2/codesourcery/source~1/bin/../lib/gcc/arm-none-eabi/4.5.2/thumb2\libgcc.a(_arm_addsubsf3.o)
 .ARM.attributes
                0x00000dff       0x1b c:/progra~2/codesourcery/source~1/bin/../lib/gcc/arm-none-eabi/4.5.2/thumb2\libgcc.a(_arm_muldivsf3.o)
 .ARM.attributes
                0x00000e1a       0x1b c:/progra~2/codesourcery/source~1/bin/../lib/gcc/arm-none-eabi/4.5.2/thumb2\libgcc.a(_arm_cmpsf2.o)
 .ARM.attributes
                0x00000e35       0x1b c:/progra~2/codesourcery/source~1/bin/../lib/gcc/arm-none-eabi/4.5.2/thumb2\libgcc.a(_arm_fixsfsi.o)
 .ARM.attributes
                0x00000e50       0x1b c:/progra~2/codesourcery/source~1/bin/../lib/gcc/arm-none-eabi/4.5.2/thumb2\libgcc.a(_aeabi_uldivmod.o)
 .ARM.attributes
                0x00000e6b       0x29 c:/progra~2/codesourcery/source~1/bin/../lib/gcc/arm-none-eabi/4.5.2/thumb2\libgcc.a(bpabi.o)
 .ARM.attributes
                0x00000e94       0x29 c:/progra~2/codesourcery/source~1/bin/../lib/gcc/arm-none-eabi/4.5.2/thumb2\libgcc.a(unwind-arm.o)
 .ARM.attributes
                0x00000ebd       0x1b c:/progra~2/codesourcery/source~1/bin/../lib/gcc/arm-none-eabi/4.5.2/thumb2\libgcc.a(libunwind.o)
 .ARM.attributes
                0x00000ed8       0x29 c:/progra~2/codesourcery/source~1/bin/../lib/gcc/arm-none-eabi/4.5.2/thumb2\libgcc.a(pr-support.o)
 .ARM.attributes
                0x00000f01       0x1b c:/progra~2/codesourcery/source~1/bin/../lib/gcc/arm-none-eabi/4.5.2/thumb2\libgcc.a(_dvmd_tls.o)
 .ARM.attributes
                0x00000f1c       0x29 c:/progra~2/codesourcery/source~1/bin/../lib/gcc/arm-none-eabi/4.5.2/thumb2\libgcc.a(_divdi3.o)
 .ARM.attributes
                0x00000f45       0x29 c:/progra~2/codesourcery/source~1/bin/../lib/gcc/arm-none-eabi/4.5.2/thumb2\libgcc.a(_udivdi3.o)
 .ARM.attributes
                0x00000f6e       0x1b c:/progra~2/codesourcery/source~1/bin/../lib/gcc/arm-none-eabi/4.5.2/thumb2\libgcc.a(_udivsi3.o)
 .ARM.attributes
                0x00000f89       0x29 c:/progra~2/codesourcery/source~1/bin/../lib/gcc/arm-none-eabi/4.5.2/../../../../arm-none-eabi/lib/thumb2\libc.a(lib_a-abort.o)
 .ARM.attributes
                0x00000fb2       0x29 c:/progra~2/codesourcery/source~1/bin/../lib/gcc/arm-none-eabi/4.5.2/../../../../arm-none-eabi/lib/thumb2\libc.a(lib_a-fputc.o)
 .ARM.attributes
                0x00000fdb       0x29 c:/progra~2/codesourcery/source~1/bin/../lib/gcc/arm-none-eabi/4.5.2/../../../../arm-none-eabi/lib/thumb2\libc.a(lib_a-fputs.o)
 .ARM.attributes
                0x00001004       0x29 c:/progra~2/codesourcery/source~1/bin/../lib/gcc/arm-none-eabi/4.5.2/../../../../arm-none-eabi/lib/thumb2\libc.a(lib_a-fvwrite.o)
 .ARM.attributes
                0x0000102d       0x29 c:/progra~2/codesourcery/source~1/bin/../lib/gcc/arm-none-eabi/4.5.2/../../../../arm-none-eabi/lib/thumb2\libc.a(lib_a-fwrite.o)
 .ARM.attributes
                0x00001056       0x29 c:/progra~2/codesourcery/source~1/bin/../lib/gcc/arm-none-eabi/4.5.2/../../../../arm-none-eabi/lib/thumb2\libc.a(lib_a-impure.o)
 .ARM.attributes
                0x0000107f       0x29 c:/progra~2/codesourcery/source~1/bin/../lib/gcc/arm-none-eabi/4.5.2/../../../../arm-none-eabi/lib/thumb2\libc.a(lib_a-malloc.o)
 .ARM.attributes
                0x000010a8       0x29 c:/progra~2/codesourcery/source~1/bin/../lib/gcc/arm-none-eabi/4.5.2/../../../../arm-none-eabi/lib/thumb2\libc.a(lib_a-mallocr.o)
 .ARM.attributes
                0x000010d1       0x29 c:/progra~2/codesourcery/source~1/bin/../lib/gcc/arm-none-eabi/4.5.2/../../../../arm-none-eabi/lib/thumb2\libc.a(lib_a-memchr.o)
 .ARM.attributes
                0x000010fa       0x29 c:/progra~2/codesourcery/source~1/bin/../lib/gcc/arm-none-eabi/4.5.2/../../../../arm-none-eabi/lib/thumb2\libc.a(lib_a-memcmp.o)
 .ARM.attributes
                0x00001123       0x29 c:/progra~2/codesourcery/source~1/bin/../lib/gcc/arm-none-eabi/4.5.2/../../../../arm-none-eabi/lib/thumb2\libc.a(lib_a-memcpy.o)
 .ARM.attributes
                0x0000114c       0x29 c:/progra~2/codesourcery/source~1/bin/../lib/gcc/arm-none-eabi/4.5.2/../../../../arm-none-eabi/lib/thumb2\libc.a(lib_a-memmove.o)
 .ARM.attributes
                0x00001175       0x29 c:/progra~2/codesourcery/source~1/bin/../lib/gcc/arm-none-eabi/4.5.2/../../../../arm-none-eabi/lib/thumb2\libc.a(lib_a-memset.o)
 .ARM.attributes
                0x0000119e       0x29 c:/progra~2/codesourcery/source~1/bin/../lib/gcc/arm-none-eabi/4.5.2/../../../../arm-none-eabi/lib/thumb2\libc.a(lib_a-mlock.o)
 .ARM.attributes
                0x000011c7       0x29 c:/progra~2/codesourcery/source~1/bin/../lib/gcc/arm-none-eabi/4.5.2/../../../../arm-none-eabi/lib/thumb2\libc.a(lib_a-putc.o)
 .ARM.attributes
                0x000011f0       0x29 c:/progra~2/codesourcery/source~1/bin/../lib/gcc/arm-none-eabi/4.5.2/../../../../arm-none-eabi/lib/thumb2\libc.a(lib_a-rand.o)
 .ARM.attributes
                0x00001219       0x29 c:/progra~2/codesourcery/source~1/bin/../lib/gcc/arm-none-eabi/4.5.2/../../../../arm-none-eabi/lib/thumb2\libc.a(lib_a-realloc.o)
 .ARM.attributes
                0x00001242       0x29 c:/progra~2/codesourcery/source~1/bin/../lib/gcc/arm-none-eabi/4.5.2/../../../../arm-none-eabi/lib/thumb2\libc.a(lib_a-reallocr.o)
 .ARM.attributes
                0x0000126b       0x29 c:/progra~2/codesourcery/source~1/bin/../lib/gcc/arm-none-eabi/4.5.2/../../../../arm-none-eabi/lib/thumb2\libc.a(lib_a-signal.o)
 .ARM.attributes
                0x00001294       0x29 c:/progra~2/codesourcery/source~1/bin/../lib/gcc/arm-none-eabi/4.5.2/../../../../arm-none-eabi/lib/thumb2\libc.a(lib_a-signalr.o)
 .ARM.attributes
                0x000012bd       0x29 c:/progra~2/codesourcery/source~1/bin/../lib/gcc/arm-none-eabi/4.5.2/../../../../arm-none-eabi/lib/thumb2\libc.a(lib_a-sprintf.o)
 .ARM.attributes
                0x000012e6       0x29 c:/progra~2/codesourcery/source~1/bin/../lib/gcc/arm-none-eabi/4.5.2/../../../../arm-none-eabi/lib/thumb2\libc.a(lib_a-strchr.o)
 .ARM.attributes
                0x0000130f       0x29 c:/progra~2/codesourcery/source~1/bin/../lib/gcc/arm-none-eabi/4.5.2/../../../../arm-none-eabi/lib/thumb2\libc.a(lib_a-strcmp.o)
 .ARM.attributes
                0x00001338       0x29 c:/progra~2/codesourcery/source~1/bin/../lib/gcc/arm-none-eabi/4.5.2/../../../../arm-none-eabi/lib/thumb2\libc.a(lib_a-strcpy.o)
 .ARM.attributes
                0x00001361       0x29 c:/progra~2/codesourcery/source~1/bin/../lib/gcc/arm-none-eabi/4.5.2/../../../../arm-none-eabi/lib/thumb2\libc.a(lib_a-strlen.o)
 .ARM.attributes
                0x0000138a       0x29 c:/progra~2/codesourcery/source~1/bin/../lib/gcc/arm-none-eabi/4.5.2/../../../../arm-none-eabi/lib/thumb2\libc.a(lib_a-strncmp.o)
 .ARM.attributes
                0x000013b3       0x29 c:/progra~2/codesourcery/source~1/bin/../lib/gcc/arm-none-eabi/4.5.2/../../../../arm-none-eabi/lib/thumb2\libc.a(lib_a-strncpy.o)
 .ARM.attributes
                0x000013dc       0x29 c:/progra~2/codesourcery/source~1/bin/../lib/gcc/arm-none-eabi/4.5.2/../../../../arm-none-eabi/lib/thumb2\libc.a(lib_a-strrchr.o)
 .ARM.attributes
                0x00001405       0x29 c:/progra~2/codesourcery/source~1/bin/../lib/gcc/arm-none-eabi/4.5.2/../../../../arm-none-eabi/lib/thumb2\libc.a(lib_a-svfprintf.o)
 .ARM.attributes
                0x0000142e       0x29 c:/progra~2/codesourcery/source~1/bin/../lib/gcc/arm-none-eabi/4.5.2/../../../../arm-none-eabi/lib/thumb2\libc.a(lib_a-syswrite.o)
 .ARM.attributes
                0x00001457       0x29 c:/progra~2/codesourcery/source~1/bin/../lib/gcc/arm-none-eabi/4.5.2/../../../../arm-none-eabi/lib/thumb2\libc.a(lib_a-wbuf.o)
 .ARM.attributes
                0x00001480       0x29 c:/progra~2/codesourcery/source~1/bin/../lib/gcc/arm-none-eabi/4.5.2/../../../../arm-none-eabi/lib/thumb2\libc.a(lib_a-wsetup.o)
 .ARM.attributes
                0x000014a9       0x29 c:/progra~2/codesourcery/source~1/bin/../lib/gcc/arm-none-eabi/4.5.2/../../../../arm-none-eabi/lib/thumb2\libc.a(lib_a-dtoa.o)
 .ARM.attributes
                0x000014d2       0x29 c:/progra~2/codesourcery/source~1/bin/../lib/gcc/arm-none-eabi/4.5.2/../../../../arm-none-eabi/lib/thumb2\libc.a(lib_a-fflush.o)
 .ARM.attributes
                0x000014fb       0x29 c:/progra~2/codesourcery/source~1/bin/../lib/gcc/arm-none-eabi/4.5.2/../../../../arm-none-eabi/lib/thumb2\libc.a(lib_a-findfp.o)
 .ARM.attributes
                0x00001524       0x29 c:/progra~2/codesourcery/source~1/bin/../lib/gcc/arm-none-eabi/4.5.2/../../../../arm-none-eabi/lib/thumb2\libc.a(lib_a-freer.o)
 .ARM.attributes
                0x0000154d       0x29 c:/progra~2/codesourcery/source~1/bin/../lib/gcc/arm-none-eabi/4.5.2/../../../../arm-none-eabi/lib/thumb2\libc.a(lib_a-fwalk.o)
 .ARM.attributes
                0x00001576       0x29 c:/progra~2/codesourcery/source~1/bin/../lib/gcc/arm-none-eabi/4.5.2/../../../../arm-none-eabi/lib/thumb2\libc.a(lib_a-locale.o)
 .ARM.attributes
                0x0000159f       0x29 c:/progra~2/codesourcery/source~1/bin/../lib/gcc/arm-none-eabi/4.5.2/../../../../arm-none-eabi/lib/thumb2\libc.a(lib_a-makebuf.o)
 .ARM.attributes
                0x000015c8       0x29 c:/progra~2/codesourcery/source~1/bin/../lib/gcc/arm-none-eabi/4.5.2/../../../../arm-none-eabi/lib/thumb2\libc.a(lib_a-mprec.o)
 .ARM.attributes
                0x000015f1       0x29 c:/progra~2/codesourcery/source~1/bin/../lib/gcc/arm-none-eabi/4.5.2/../../../../arm-none-eabi/lib/thumb2\libc.a(lib_a-reent.o)
 .ARM.attributes
                0x0000161a       0x29 c:/progra~2/codesourcery/source~1/bin/../lib/gcc/arm-none-eabi/4.5.2/../../../../arm-none-eabi/lib/thumb2\libc.a(lib_a-s_fpclassify.o)
 .ARM.attributes
                0x00001643       0x29 c:/progra~2/codesourcery/source~1/bin/../lib/gcc/arm-none-eabi/4.5.2/../../../../arm-none-eabi/lib/thumb2\libc.a(lib_a-stdio.o)
 .ARM.attributes
                0x0000166c       0x29 c:/progra~2/codesourcery/source~1/bin/../lib/gcc/arm-none-eabi/4.5.2/../../../../arm-none-eabi/lib/thumb2\libc.a(lib_a-svfiprintf.o)
 .ARM.attributes
                0x00001695       0x29 c:/progra~2/codesourcery/source~1/bin/../lib/gcc/arm-none-eabi/4.5.2/../../../../arm-none-eabi/lib/thumb2\libc.a(lib_a-callocr.o)
 .ARM.attributes
                0x000016be       0x29 c:/progra~2/codesourcery/source~1/bin/../lib/gcc/arm-none-eabi/4.5.2/../../../../arm-none-eabi/lib/thumb2\libc.a(lib_a-fclose.o)
 .ARM.attributes
                0x000016e7       0x29 c:/progra~2/codesourcery/source~1/bin/../lib/gcc/arm-none-eabi/4.5.2/../../../../arm-none-eabi/lib/thumb2\libc.a(lib_a-fstatr.o)
 .ARM.attributes
                0x00001710       0x29 c:/progra~2/codesourcery/source~1/bin/../lib/gcc/arm-none-eabi/4.5.2/../../../../arm-none-eabi/lib/thumb2\libc.a(lib_a-isattyr.o)
 .ARM.attributes
                0x00001739       0x29 c:/progra~2/codesourcery/source~1/bin/../lib/gcc/arm-none-eabi/4.5.2/../../../../arm-none-eabi/lib/thumb2\libc.a(lib_a-lseekr.o)
 .ARM.attributes
                0x00001762       0x1b c:/progra~2/codesourcery/source~1/bin/../lib/gcc/arm-none-eabi/4.5.2/thumb2\libgcc.a(_arm_addsubdf3.o)
 .ARM.attributes
                0x0000177d       0x1b c:/progra~2/codesourcery/source~1/bin/../lib/gcc/arm-none-eabi/4.5.2/thumb2\libgcc.a(_arm_muldivdf3.o)
 .ARM.attributes
                0x00001798       0x1b c:/progra~2/codesourcery/source~1/bin/../lib/gcc/arm-none-eabi/4.5.2/thumb2\libgcc.a(_arm_cmpdf2.o)
 .ARM.attributes
                0x000017b3       0x1b c:/progra~2/codesourcery/source~1/bin/../lib/gcc/arm-none-eabi/4.5.2/thumb2\libgcc.a(_arm_fixdfsi.o)

/DISCARD/
 *(.note.GNU-stack)
LOAD c:/progra~2/codesourcery/source~1/bin/../lib/gcc/arm-none-eabi/4.5.2/../../../../arm-none-eabi/lib/thumb2\libstdc++.a
LOAD c:/progra~2/codesourcery/source~1/bin/../lib/gcc/arm-none-eabi/4.5.2/../../../../arm-none-eabi/lib/thumb2\libm.a
START GROUP
LOAD c:/progra~2/codesourcery/source~1/bin/../lib/gcc/arm-none-eabi/4.5.2/thumb2\libgcc.a
LOAD c:/progra~2/codesourcery/source~1/bin/../lib/gcc/arm-none-eabi/4.5.2/../../../../arm-none-eabi/lib/thumb2\libc.a
END GROUP
OUTPUT(build\MB-lpc1768-v3.0.elf elf32-littlearm)

.debug_pubtypes
                0x00000000     0x277f
 .debug_pubtypes
                0x00000000       0x12 build\lib_sd\byteordering.o
 .debug_pubtypes
                0x00000012      0x1c9 build\lib_sd\fat.o
 .debug_pubtypes
                0x000001db      0x105 build\lib_sd\partition.o
 .debug_pubtypes
                0x000002e0       0xf3 build\lib_sd\sd_raw.o
 .debug_pubtypes
                0x000003d3       0xc0 build\lib\source\debug_frmwrk.o
 .debug_pubtypes
                0x00000493       0x90 build\lib\source\lpc17xx_adc.o
 .debug_pubtypes
                0x00000523       0x6b build\lib\source\lpc17xx_clkpwr.o
 .debug_pubtypes
                0x0000058e       0x73 build\lib\source\lpc17xx_dac.o
 .debug_pubtypes
                0x00000601       0x90 build\lib\source\lpc17xx_exti.o
 .debug_pubtypes
                0x00000691      0x179 build\lib\source\lpc17xx_gpdma.o
 .debug_pubtypes
                0x0000080a       0xb5 build\lib\source\lpc17xx_gpio.o
 .debug_pubtypes
                0x000008bf      0x113 build\lib\source\lpc17xx_i2c.o
 .debug_pubtypes
                0x000009d2       0xa6 build\lib\source\lpc17xx_i2s.o
 .debug_pubtypes
                0x00000a78       0x2b build\lib\source\lpc17xx_libcfg_default.o
 .debug_pubtypes
                0x00000aa3       0xb3 build\lib\source\lpc17xx_mcpwm.o
 .debug_pubtypes
                0x00000b56       0x52 build\lib\source\lpc17xx_nvic.o
 .debug_pubtypes
                0x00000ba8       0x76 build\lib\source\lpc17xx_pinsel.o
 .debug_pubtypes
                0x00000c1e       0xd6 build\lib\source\lpc17xx_pwm.o
 .debug_pubtypes
                0x00000cf4       0xb7 build\lib\source\lpc17xx_qei.o
 .debug_pubtypes
                0x00000dab       0x6d build\lib\source\lpc17xx_rit.o
 .debug_pubtypes
                0x00000e18       0xc8 build\lib\source\lpc17xx_spi.o
 .debug_pubtypes
                0x00000ee0       0x5c build\lib\source\lpc17xx_systick.o
 .debug_pubtypes
                0x00000f3c      0x113 build\lib\source\lpc17xx_timer.o
 .debug_pubtypes
                0x0000104f      0x225 build\lib\source\lpc17xx_uart.o
 .debug_pubtypes
                0x00001274       0x7b build\lib\source\lpc17xx_wdt.o
 .debug_pubtypes
                0x000012ef       0x12 build\system\core_cm3.o
 .debug_pubtypes
                0x00001301      0x157 build\system\system_LPC17xx.o
 .debug_pubtypes
                0x00001458       0x72 build\USBCDC\cdcuser.o
 .debug_pubtypes
                0x000014ca       0xcf build\USBCDC\serial.o
 .debug_pubtypes
                0x00001599      0x1de build\USBCDC\usbcore.o
 .debug_pubtypes
                0x00001777       0x1e build\USBCDC\usbdesc.o
 .debug_pubtypes
                0x00001795       0xe0 build\USBCDC\usbhw.o
 .debug_pubtypes
                0x00001875       0x38 build\USBCDC\usbuser.o
 .debug_pubtypes
                0x000018ad       0x2a build\USBCDC\vcomdemo.o
 .debug_pubtypes
                0x000018d7       0x26 src\shared\PID.o
 .debug_pubtypes
                0x000018fd       0x6a src\shared\Packet.o
 .debug_pubtypes
                0x00001967       0xd4 build\Command.o
 .debug_pubtypes
                0x00001a3b       0xda build\DebugPacketProcessor.o
 .debug_pubtypes
                0x00001b15       0x2b build\EepromMap.o
 .debug_pubtypes
                0x00001b40       0xe4 build\Host.o
 .debug_pubtypes
                0x00001c24       0xd3 build\Interface.o
 .debug_pubtypes
                0x00001cf7       0xde build\InterfaceBoard.o
 .debug_pubtypes
                0x00001dd5       0x43 build\LPCPort.o
 .debug_pubtypes
                0x00001e18       0x77 build\LiquidCrystal.o
 .debug_pubtypes
                0x00001e8f       0xf1 build\Main.o
 .debug_pubtypes
                0x00001f80      0x17b build\Menu.o
 .debug_pubtypes
                0x000020fb       0xe7 build\Motherboard.o
 .debug_pubtypes
                0x000021e2       0x26 build\PID.o
 .debug_pubtypes
                0x00002208       0x26 build\PSU.o
 .debug_pubtypes
                0x0000222e       0x6a build\Packet.o
 .debug_pubtypes
                0x00002298      0x145 build\SDCard.o
 .debug_pubtypes
                0x000023dd       0x6d build\StepperInterface.o
 .debug_pubtypes
                0x0000244a       0xed build\Steppers.o
 .debug_pubtypes
                0x00002537       0xda build\Timeout.o
 .debug_pubtypes
                0x00002611       0xda build\Tool.o
 .debug_pubtypes
                0x000026eb       0x94 build\UART.o

.debug_ranges   0x00000000      0x670
 .debug_ranges  0x00000000       0x80 build\lib_sd\fat.o
 .debug_ranges  0x00000080       0x18 build\lib_sd\sd_raw.o
 .debug_ranges  0x00000098       0x20 src\shared\Packet.o
 .debug_ranges  0x000000b8       0x88 build\Command.o
 .debug_ranges  0x00000140       0x20 build\DebugPacketProcessor.o
 .debug_ranges  0x00000160      0x100 build\Host.o
 .debug_ranges  0x00000260       0x48 build\Interface.o
 .debug_ranges  0x000002a8       0x50 build\InterfaceBoard.o
 .debug_ranges  0x000002f8       0x18 build\LPCPort.o
 .debug_ranges  0x00000310       0x60 build\LiquidCrystal.o
 .debug_ranges  0x00000370       0x18 build\Main.o
 .debug_ranges  0x00000388       0x90 build\Menu.o
 .debug_ranges  0x00000418       0x88 build\Motherboard.o
 .debug_ranges  0x000004a0       0x20 build\Packet.o
 .debug_ranges  0x000004c0       0x38 build\SDCard.o
 .debug_ranges  0x000004f8       0x50 build\StepperInterface.o
 .debug_ranges  0x00000548       0x70 build\Steppers.o
 .debug_ranges  0x000005b8       0x18 build\Timeout.o
 .debug_ranges  0x000005d0       0x50 build\Tool.o
 .debug_ranges  0x00000620       0x50 build\UART.o
